ARM GAS  C:\Users\dtjld\AppData\Local\Temp\ccTXdst3.s 			page 1


   1              		.cpu cortex-m4
   2              		.eabi_attribute 27, 1
   3              		.eabi_attribute 28, 1
   4              		.eabi_attribute 20, 1
   5              		.eabi_attribute 21, 1
   6              		.eabi_attribute 23, 3
   7              		.eabi_attribute 24, 1
   8              		.eabi_attribute 25, 1
   9              		.eabi_attribute 26, 1
  10              		.eabi_attribute 30, 6
  11              		.eabi_attribute 34, 1
  12              		.eabi_attribute 18, 4
  13              		.file	"x509_crt.c"
  14              		.text
  15              	.Ltext0:
  16              		.cfi_sections	.debug_frame
  17              		.section	.text.mbedtls_pk_ec,"ax",%progbits
  18              		.align	1
  19              		.syntax unified
  20              		.thumb
  21              		.thumb_func
  22              		.fpu fpv4-sp-d16
  24              	mbedtls_pk_ec:
  25              	.LFB1:
  26              		.file 1 "C:/Users/dtjld/workspace/AIoT/src/LiteOS_Lab/iot_link/network/dtls/mbedtls/mbedtls-2.16.2
   1:C:/Users/dtjld/workspace/AIoT/src/LiteOS_Lab/iot_link/network/dtls/mbedtls/mbedtls-2.16.2/include/mbedtls\pk.h **** /**
   2:C:/Users/dtjld/workspace/AIoT/src/LiteOS_Lab/iot_link/network/dtls/mbedtls/mbedtls-2.16.2/include/mbedtls\pk.h ****  * \file pk.h
   3:C:/Users/dtjld/workspace/AIoT/src/LiteOS_Lab/iot_link/network/dtls/mbedtls/mbedtls-2.16.2/include/mbedtls\pk.h ****  *
   4:C:/Users/dtjld/workspace/AIoT/src/LiteOS_Lab/iot_link/network/dtls/mbedtls/mbedtls-2.16.2/include/mbedtls\pk.h ****  * \brief Public Key abstraction layer
   5:C:/Users/dtjld/workspace/AIoT/src/LiteOS_Lab/iot_link/network/dtls/mbedtls/mbedtls-2.16.2/include/mbedtls\pk.h ****  */
   6:C:/Users/dtjld/workspace/AIoT/src/LiteOS_Lab/iot_link/network/dtls/mbedtls/mbedtls-2.16.2/include/mbedtls\pk.h **** /*
   7:C:/Users/dtjld/workspace/AIoT/src/LiteOS_Lab/iot_link/network/dtls/mbedtls/mbedtls-2.16.2/include/mbedtls\pk.h ****  *  Copyright (C) 2006-2015, ARM Limited, All Rights Reserved
   8:C:/Users/dtjld/workspace/AIoT/src/LiteOS_Lab/iot_link/network/dtls/mbedtls/mbedtls-2.16.2/include/mbedtls\pk.h ****  *  SPDX-License-Identifier: Apache-2.0
   9:C:/Users/dtjld/workspace/AIoT/src/LiteOS_Lab/iot_link/network/dtls/mbedtls/mbedtls-2.16.2/include/mbedtls\pk.h ****  *
  10:C:/Users/dtjld/workspace/AIoT/src/LiteOS_Lab/iot_link/network/dtls/mbedtls/mbedtls-2.16.2/include/mbedtls\pk.h ****  *  Licensed under the Apache License, Version 2.0 (the "License"); you may
  11:C:/Users/dtjld/workspace/AIoT/src/LiteOS_Lab/iot_link/network/dtls/mbedtls/mbedtls-2.16.2/include/mbedtls\pk.h ****  *  not use this file except in compliance with the License.
  12:C:/Users/dtjld/workspace/AIoT/src/LiteOS_Lab/iot_link/network/dtls/mbedtls/mbedtls-2.16.2/include/mbedtls\pk.h ****  *  You may obtain a copy of the License at
  13:C:/Users/dtjld/workspace/AIoT/src/LiteOS_Lab/iot_link/network/dtls/mbedtls/mbedtls-2.16.2/include/mbedtls\pk.h ****  *
  14:C:/Users/dtjld/workspace/AIoT/src/LiteOS_Lab/iot_link/network/dtls/mbedtls/mbedtls-2.16.2/include/mbedtls\pk.h ****  *  http://www.apache.org/licenses/LICENSE-2.0
  15:C:/Users/dtjld/workspace/AIoT/src/LiteOS_Lab/iot_link/network/dtls/mbedtls/mbedtls-2.16.2/include/mbedtls\pk.h ****  *
  16:C:/Users/dtjld/workspace/AIoT/src/LiteOS_Lab/iot_link/network/dtls/mbedtls/mbedtls-2.16.2/include/mbedtls\pk.h ****  *  Unless required by applicable law or agreed to in writing, software
  17:C:/Users/dtjld/workspace/AIoT/src/LiteOS_Lab/iot_link/network/dtls/mbedtls/mbedtls-2.16.2/include/mbedtls\pk.h ****  *  distributed under the License is distributed on an "AS IS" BASIS, WITHOUT
  18:C:/Users/dtjld/workspace/AIoT/src/LiteOS_Lab/iot_link/network/dtls/mbedtls/mbedtls-2.16.2/include/mbedtls\pk.h ****  *  WARRANTIES OR CONDITIONS OF ANY KIND, either express or implied.
  19:C:/Users/dtjld/workspace/AIoT/src/LiteOS_Lab/iot_link/network/dtls/mbedtls/mbedtls-2.16.2/include/mbedtls\pk.h ****  *  See the License for the specific language governing permissions and
  20:C:/Users/dtjld/workspace/AIoT/src/LiteOS_Lab/iot_link/network/dtls/mbedtls/mbedtls-2.16.2/include/mbedtls\pk.h ****  *  limitations under the License.
  21:C:/Users/dtjld/workspace/AIoT/src/LiteOS_Lab/iot_link/network/dtls/mbedtls/mbedtls-2.16.2/include/mbedtls\pk.h ****  *
  22:C:/Users/dtjld/workspace/AIoT/src/LiteOS_Lab/iot_link/network/dtls/mbedtls/mbedtls-2.16.2/include/mbedtls\pk.h ****  *  This file is part of mbed TLS (https://tls.mbed.org)
  23:C:/Users/dtjld/workspace/AIoT/src/LiteOS_Lab/iot_link/network/dtls/mbedtls/mbedtls-2.16.2/include/mbedtls\pk.h ****  */
  24:C:/Users/dtjld/workspace/AIoT/src/LiteOS_Lab/iot_link/network/dtls/mbedtls/mbedtls-2.16.2/include/mbedtls\pk.h **** 
  25:C:/Users/dtjld/workspace/AIoT/src/LiteOS_Lab/iot_link/network/dtls/mbedtls/mbedtls-2.16.2/include/mbedtls\pk.h **** #ifndef MBEDTLS_PK_H
  26:C:/Users/dtjld/workspace/AIoT/src/LiteOS_Lab/iot_link/network/dtls/mbedtls/mbedtls-2.16.2/include/mbedtls\pk.h **** #define MBEDTLS_PK_H
  27:C:/Users/dtjld/workspace/AIoT/src/LiteOS_Lab/iot_link/network/dtls/mbedtls/mbedtls-2.16.2/include/mbedtls\pk.h **** 
  28:C:/Users/dtjld/workspace/AIoT/src/LiteOS_Lab/iot_link/network/dtls/mbedtls/mbedtls-2.16.2/include/mbedtls\pk.h **** #if !defined(MBEDTLS_CONFIG_FILE)
  29:C:/Users/dtjld/workspace/AIoT/src/LiteOS_Lab/iot_link/network/dtls/mbedtls/mbedtls-2.16.2/include/mbedtls\pk.h **** #include "config.h"
  30:C:/Users/dtjld/workspace/AIoT/src/LiteOS_Lab/iot_link/network/dtls/mbedtls/mbedtls-2.16.2/include/mbedtls\pk.h **** #else
  31:C:/Users/dtjld/workspace/AIoT/src/LiteOS_Lab/iot_link/network/dtls/mbedtls/mbedtls-2.16.2/include/mbedtls\pk.h **** #include MBEDTLS_CONFIG_FILE
  32:C:/Users/dtjld/workspace/AIoT/src/LiteOS_Lab/iot_link/network/dtls/mbedtls/mbedtls-2.16.2/include/mbedtls\pk.h **** #endif
ARM GAS  C:\Users\dtjld\AppData\Local\Temp\ccTXdst3.s 			page 2


  33:C:/Users/dtjld/workspace/AIoT/src/LiteOS_Lab/iot_link/network/dtls/mbedtls/mbedtls-2.16.2/include/mbedtls\pk.h **** 
  34:C:/Users/dtjld/workspace/AIoT/src/LiteOS_Lab/iot_link/network/dtls/mbedtls/mbedtls-2.16.2/include/mbedtls\pk.h **** #include "md.h"
  35:C:/Users/dtjld/workspace/AIoT/src/LiteOS_Lab/iot_link/network/dtls/mbedtls/mbedtls-2.16.2/include/mbedtls\pk.h **** 
  36:C:/Users/dtjld/workspace/AIoT/src/LiteOS_Lab/iot_link/network/dtls/mbedtls/mbedtls-2.16.2/include/mbedtls\pk.h **** #if defined(MBEDTLS_RSA_C)
  37:C:/Users/dtjld/workspace/AIoT/src/LiteOS_Lab/iot_link/network/dtls/mbedtls/mbedtls-2.16.2/include/mbedtls\pk.h **** #include "rsa.h"
  38:C:/Users/dtjld/workspace/AIoT/src/LiteOS_Lab/iot_link/network/dtls/mbedtls/mbedtls-2.16.2/include/mbedtls\pk.h **** #endif
  39:C:/Users/dtjld/workspace/AIoT/src/LiteOS_Lab/iot_link/network/dtls/mbedtls/mbedtls-2.16.2/include/mbedtls\pk.h **** 
  40:C:/Users/dtjld/workspace/AIoT/src/LiteOS_Lab/iot_link/network/dtls/mbedtls/mbedtls-2.16.2/include/mbedtls\pk.h **** #if defined(MBEDTLS_ECP_C)
  41:C:/Users/dtjld/workspace/AIoT/src/LiteOS_Lab/iot_link/network/dtls/mbedtls/mbedtls-2.16.2/include/mbedtls\pk.h **** #include "ecp.h"
  42:C:/Users/dtjld/workspace/AIoT/src/LiteOS_Lab/iot_link/network/dtls/mbedtls/mbedtls-2.16.2/include/mbedtls\pk.h **** #endif
  43:C:/Users/dtjld/workspace/AIoT/src/LiteOS_Lab/iot_link/network/dtls/mbedtls/mbedtls-2.16.2/include/mbedtls\pk.h **** 
  44:C:/Users/dtjld/workspace/AIoT/src/LiteOS_Lab/iot_link/network/dtls/mbedtls/mbedtls-2.16.2/include/mbedtls\pk.h **** #if defined(MBEDTLS_ECDSA_C)
  45:C:/Users/dtjld/workspace/AIoT/src/LiteOS_Lab/iot_link/network/dtls/mbedtls/mbedtls-2.16.2/include/mbedtls\pk.h **** #include "ecdsa.h"
  46:C:/Users/dtjld/workspace/AIoT/src/LiteOS_Lab/iot_link/network/dtls/mbedtls/mbedtls-2.16.2/include/mbedtls\pk.h **** #endif
  47:C:/Users/dtjld/workspace/AIoT/src/LiteOS_Lab/iot_link/network/dtls/mbedtls/mbedtls-2.16.2/include/mbedtls\pk.h **** 
  48:C:/Users/dtjld/workspace/AIoT/src/LiteOS_Lab/iot_link/network/dtls/mbedtls/mbedtls-2.16.2/include/mbedtls\pk.h **** #if ( defined(__ARMCC_VERSION) || defined(_MSC_VER) ) && \
  49:C:/Users/dtjld/workspace/AIoT/src/LiteOS_Lab/iot_link/network/dtls/mbedtls/mbedtls-2.16.2/include/mbedtls\pk.h ****     !defined(inline) && !defined(__cplusplus)
  50:C:/Users/dtjld/workspace/AIoT/src/LiteOS_Lab/iot_link/network/dtls/mbedtls/mbedtls-2.16.2/include/mbedtls\pk.h **** #define inline __inline
  51:C:/Users/dtjld/workspace/AIoT/src/LiteOS_Lab/iot_link/network/dtls/mbedtls/mbedtls-2.16.2/include/mbedtls\pk.h **** #endif
  52:C:/Users/dtjld/workspace/AIoT/src/LiteOS_Lab/iot_link/network/dtls/mbedtls/mbedtls-2.16.2/include/mbedtls\pk.h **** 
  53:C:/Users/dtjld/workspace/AIoT/src/LiteOS_Lab/iot_link/network/dtls/mbedtls/mbedtls-2.16.2/include/mbedtls\pk.h **** #define MBEDTLS_ERR_PK_ALLOC_FAILED        -0x3F80  /**< Memory allocation failed. */
  54:C:/Users/dtjld/workspace/AIoT/src/LiteOS_Lab/iot_link/network/dtls/mbedtls/mbedtls-2.16.2/include/mbedtls\pk.h **** #define MBEDTLS_ERR_PK_TYPE_MISMATCH       -0x3F00  /**< Type mismatch, eg attempt to encrypt with 
  55:C:/Users/dtjld/workspace/AIoT/src/LiteOS_Lab/iot_link/network/dtls/mbedtls/mbedtls-2.16.2/include/mbedtls\pk.h **** #define MBEDTLS_ERR_PK_BAD_INPUT_DATA      -0x3E80  /**< Bad input parameters to function. */
  56:C:/Users/dtjld/workspace/AIoT/src/LiteOS_Lab/iot_link/network/dtls/mbedtls/mbedtls-2.16.2/include/mbedtls\pk.h **** #define MBEDTLS_ERR_PK_FILE_IO_ERROR       -0x3E00  /**< Read/write of file failed. */
  57:C:/Users/dtjld/workspace/AIoT/src/LiteOS_Lab/iot_link/network/dtls/mbedtls/mbedtls-2.16.2/include/mbedtls\pk.h **** #define MBEDTLS_ERR_PK_KEY_INVALID_VERSION -0x3D80  /**< Unsupported key version */
  58:C:/Users/dtjld/workspace/AIoT/src/LiteOS_Lab/iot_link/network/dtls/mbedtls/mbedtls-2.16.2/include/mbedtls\pk.h **** #define MBEDTLS_ERR_PK_KEY_INVALID_FORMAT  -0x3D00  /**< Invalid key tag or value. */
  59:C:/Users/dtjld/workspace/AIoT/src/LiteOS_Lab/iot_link/network/dtls/mbedtls/mbedtls-2.16.2/include/mbedtls\pk.h **** #define MBEDTLS_ERR_PK_UNKNOWN_PK_ALG      -0x3C80  /**< Key algorithm is unsupported (only RSA and
  60:C:/Users/dtjld/workspace/AIoT/src/LiteOS_Lab/iot_link/network/dtls/mbedtls/mbedtls-2.16.2/include/mbedtls\pk.h **** #define MBEDTLS_ERR_PK_PASSWORD_REQUIRED   -0x3C00  /**< Private key password can't be empty. */
  61:C:/Users/dtjld/workspace/AIoT/src/LiteOS_Lab/iot_link/network/dtls/mbedtls/mbedtls-2.16.2/include/mbedtls\pk.h **** #define MBEDTLS_ERR_PK_PASSWORD_MISMATCH   -0x3B80  /**< Given private key password does not allow 
  62:C:/Users/dtjld/workspace/AIoT/src/LiteOS_Lab/iot_link/network/dtls/mbedtls/mbedtls-2.16.2/include/mbedtls\pk.h **** #define MBEDTLS_ERR_PK_INVALID_PUBKEY      -0x3B00  /**< The pubkey tag or value is invalid (only R
  63:C:/Users/dtjld/workspace/AIoT/src/LiteOS_Lab/iot_link/network/dtls/mbedtls/mbedtls-2.16.2/include/mbedtls\pk.h **** #define MBEDTLS_ERR_PK_INVALID_ALG         -0x3A80  /**< The algorithm tag or value is invalid. */
  64:C:/Users/dtjld/workspace/AIoT/src/LiteOS_Lab/iot_link/network/dtls/mbedtls/mbedtls-2.16.2/include/mbedtls\pk.h **** #define MBEDTLS_ERR_PK_UNKNOWN_NAMED_CURVE -0x3A00  /**< Elliptic curve is unsupported (only NIST c
  65:C:/Users/dtjld/workspace/AIoT/src/LiteOS_Lab/iot_link/network/dtls/mbedtls/mbedtls-2.16.2/include/mbedtls\pk.h **** #define MBEDTLS_ERR_PK_FEATURE_UNAVAILABLE -0x3980  /**< Unavailable feature, e.g. RSA disabled for
  66:C:/Users/dtjld/workspace/AIoT/src/LiteOS_Lab/iot_link/network/dtls/mbedtls/mbedtls-2.16.2/include/mbedtls\pk.h **** #define MBEDTLS_ERR_PK_SIG_LEN_MISMATCH    -0x3900  /**< The buffer contains a valid signature foll
  67:C:/Users/dtjld/workspace/AIoT/src/LiteOS_Lab/iot_link/network/dtls/mbedtls/mbedtls-2.16.2/include/mbedtls\pk.h **** 
  68:C:/Users/dtjld/workspace/AIoT/src/LiteOS_Lab/iot_link/network/dtls/mbedtls/mbedtls-2.16.2/include/mbedtls\pk.h **** /* MBEDTLS_ERR_PK_HW_ACCEL_FAILED is deprecated and should not be used. */
  69:C:/Users/dtjld/workspace/AIoT/src/LiteOS_Lab/iot_link/network/dtls/mbedtls/mbedtls-2.16.2/include/mbedtls\pk.h **** #define MBEDTLS_ERR_PK_HW_ACCEL_FAILED     -0x3880  /**< PK hardware accelerator failed. */
  70:C:/Users/dtjld/workspace/AIoT/src/LiteOS_Lab/iot_link/network/dtls/mbedtls/mbedtls-2.16.2/include/mbedtls\pk.h **** 
  71:C:/Users/dtjld/workspace/AIoT/src/LiteOS_Lab/iot_link/network/dtls/mbedtls/mbedtls-2.16.2/include/mbedtls\pk.h **** #ifdef __cplusplus
  72:C:/Users/dtjld/workspace/AIoT/src/LiteOS_Lab/iot_link/network/dtls/mbedtls/mbedtls-2.16.2/include/mbedtls\pk.h **** extern "C" {
  73:C:/Users/dtjld/workspace/AIoT/src/LiteOS_Lab/iot_link/network/dtls/mbedtls/mbedtls-2.16.2/include/mbedtls\pk.h **** #endif
  74:C:/Users/dtjld/workspace/AIoT/src/LiteOS_Lab/iot_link/network/dtls/mbedtls/mbedtls-2.16.2/include/mbedtls\pk.h **** 
  75:C:/Users/dtjld/workspace/AIoT/src/LiteOS_Lab/iot_link/network/dtls/mbedtls/mbedtls-2.16.2/include/mbedtls\pk.h **** /**
  76:C:/Users/dtjld/workspace/AIoT/src/LiteOS_Lab/iot_link/network/dtls/mbedtls/mbedtls-2.16.2/include/mbedtls\pk.h ****  * \brief          Public key types
  77:C:/Users/dtjld/workspace/AIoT/src/LiteOS_Lab/iot_link/network/dtls/mbedtls/mbedtls-2.16.2/include/mbedtls\pk.h ****  */
  78:C:/Users/dtjld/workspace/AIoT/src/LiteOS_Lab/iot_link/network/dtls/mbedtls/mbedtls-2.16.2/include/mbedtls\pk.h **** typedef enum {
  79:C:/Users/dtjld/workspace/AIoT/src/LiteOS_Lab/iot_link/network/dtls/mbedtls/mbedtls-2.16.2/include/mbedtls\pk.h ****     MBEDTLS_PK_NONE=0,
  80:C:/Users/dtjld/workspace/AIoT/src/LiteOS_Lab/iot_link/network/dtls/mbedtls/mbedtls-2.16.2/include/mbedtls\pk.h ****     MBEDTLS_PK_RSA,
  81:C:/Users/dtjld/workspace/AIoT/src/LiteOS_Lab/iot_link/network/dtls/mbedtls/mbedtls-2.16.2/include/mbedtls\pk.h ****     MBEDTLS_PK_ECKEY,
  82:C:/Users/dtjld/workspace/AIoT/src/LiteOS_Lab/iot_link/network/dtls/mbedtls/mbedtls-2.16.2/include/mbedtls\pk.h ****     MBEDTLS_PK_ECKEY_DH,
  83:C:/Users/dtjld/workspace/AIoT/src/LiteOS_Lab/iot_link/network/dtls/mbedtls/mbedtls-2.16.2/include/mbedtls\pk.h ****     MBEDTLS_PK_ECDSA,
  84:C:/Users/dtjld/workspace/AIoT/src/LiteOS_Lab/iot_link/network/dtls/mbedtls/mbedtls-2.16.2/include/mbedtls\pk.h ****     MBEDTLS_PK_RSA_ALT,
  85:C:/Users/dtjld/workspace/AIoT/src/LiteOS_Lab/iot_link/network/dtls/mbedtls/mbedtls-2.16.2/include/mbedtls\pk.h ****     MBEDTLS_PK_RSASSA_PSS,
  86:C:/Users/dtjld/workspace/AIoT/src/LiteOS_Lab/iot_link/network/dtls/mbedtls/mbedtls-2.16.2/include/mbedtls\pk.h **** } mbedtls_pk_type_t;
  87:C:/Users/dtjld/workspace/AIoT/src/LiteOS_Lab/iot_link/network/dtls/mbedtls/mbedtls-2.16.2/include/mbedtls\pk.h **** 
  88:C:/Users/dtjld/workspace/AIoT/src/LiteOS_Lab/iot_link/network/dtls/mbedtls/mbedtls-2.16.2/include/mbedtls\pk.h **** /**
  89:C:/Users/dtjld/workspace/AIoT/src/LiteOS_Lab/iot_link/network/dtls/mbedtls/mbedtls-2.16.2/include/mbedtls\pk.h ****  * \brief           Options for RSASSA-PSS signature verification.
ARM GAS  C:\Users\dtjld\AppData\Local\Temp\ccTXdst3.s 			page 3


  90:C:/Users/dtjld/workspace/AIoT/src/LiteOS_Lab/iot_link/network/dtls/mbedtls/mbedtls-2.16.2/include/mbedtls\pk.h ****  *                  See \c mbedtls_rsa_rsassa_pss_verify_ext()
  91:C:/Users/dtjld/workspace/AIoT/src/LiteOS_Lab/iot_link/network/dtls/mbedtls/mbedtls-2.16.2/include/mbedtls\pk.h ****  */
  92:C:/Users/dtjld/workspace/AIoT/src/LiteOS_Lab/iot_link/network/dtls/mbedtls/mbedtls-2.16.2/include/mbedtls\pk.h **** typedef struct mbedtls_pk_rsassa_pss_options
  93:C:/Users/dtjld/workspace/AIoT/src/LiteOS_Lab/iot_link/network/dtls/mbedtls/mbedtls-2.16.2/include/mbedtls\pk.h **** {
  94:C:/Users/dtjld/workspace/AIoT/src/LiteOS_Lab/iot_link/network/dtls/mbedtls/mbedtls-2.16.2/include/mbedtls\pk.h ****     mbedtls_md_type_t mgf1_hash_id;
  95:C:/Users/dtjld/workspace/AIoT/src/LiteOS_Lab/iot_link/network/dtls/mbedtls/mbedtls-2.16.2/include/mbedtls\pk.h ****     int expected_salt_len;
  96:C:/Users/dtjld/workspace/AIoT/src/LiteOS_Lab/iot_link/network/dtls/mbedtls/mbedtls-2.16.2/include/mbedtls\pk.h **** 
  97:C:/Users/dtjld/workspace/AIoT/src/LiteOS_Lab/iot_link/network/dtls/mbedtls/mbedtls-2.16.2/include/mbedtls\pk.h **** } mbedtls_pk_rsassa_pss_options;
  98:C:/Users/dtjld/workspace/AIoT/src/LiteOS_Lab/iot_link/network/dtls/mbedtls/mbedtls-2.16.2/include/mbedtls\pk.h **** 
  99:C:/Users/dtjld/workspace/AIoT/src/LiteOS_Lab/iot_link/network/dtls/mbedtls/mbedtls-2.16.2/include/mbedtls\pk.h **** /**
 100:C:/Users/dtjld/workspace/AIoT/src/LiteOS_Lab/iot_link/network/dtls/mbedtls/mbedtls-2.16.2/include/mbedtls\pk.h ****  * \brief           Types for interfacing with the debug module
 101:C:/Users/dtjld/workspace/AIoT/src/LiteOS_Lab/iot_link/network/dtls/mbedtls/mbedtls-2.16.2/include/mbedtls\pk.h ****  */
 102:C:/Users/dtjld/workspace/AIoT/src/LiteOS_Lab/iot_link/network/dtls/mbedtls/mbedtls-2.16.2/include/mbedtls\pk.h **** typedef enum
 103:C:/Users/dtjld/workspace/AIoT/src/LiteOS_Lab/iot_link/network/dtls/mbedtls/mbedtls-2.16.2/include/mbedtls\pk.h **** {
 104:C:/Users/dtjld/workspace/AIoT/src/LiteOS_Lab/iot_link/network/dtls/mbedtls/mbedtls-2.16.2/include/mbedtls\pk.h ****     MBEDTLS_PK_DEBUG_NONE = 0,
 105:C:/Users/dtjld/workspace/AIoT/src/LiteOS_Lab/iot_link/network/dtls/mbedtls/mbedtls-2.16.2/include/mbedtls\pk.h ****     MBEDTLS_PK_DEBUG_MPI,
 106:C:/Users/dtjld/workspace/AIoT/src/LiteOS_Lab/iot_link/network/dtls/mbedtls/mbedtls-2.16.2/include/mbedtls\pk.h ****     MBEDTLS_PK_DEBUG_ECP,
 107:C:/Users/dtjld/workspace/AIoT/src/LiteOS_Lab/iot_link/network/dtls/mbedtls/mbedtls-2.16.2/include/mbedtls\pk.h **** } mbedtls_pk_debug_type;
 108:C:/Users/dtjld/workspace/AIoT/src/LiteOS_Lab/iot_link/network/dtls/mbedtls/mbedtls-2.16.2/include/mbedtls\pk.h **** 
 109:C:/Users/dtjld/workspace/AIoT/src/LiteOS_Lab/iot_link/network/dtls/mbedtls/mbedtls-2.16.2/include/mbedtls\pk.h **** /**
 110:C:/Users/dtjld/workspace/AIoT/src/LiteOS_Lab/iot_link/network/dtls/mbedtls/mbedtls-2.16.2/include/mbedtls\pk.h ****  * \brief           Item to send to the debug module
 111:C:/Users/dtjld/workspace/AIoT/src/LiteOS_Lab/iot_link/network/dtls/mbedtls/mbedtls-2.16.2/include/mbedtls\pk.h ****  */
 112:C:/Users/dtjld/workspace/AIoT/src/LiteOS_Lab/iot_link/network/dtls/mbedtls/mbedtls-2.16.2/include/mbedtls\pk.h **** typedef struct mbedtls_pk_debug_item
 113:C:/Users/dtjld/workspace/AIoT/src/LiteOS_Lab/iot_link/network/dtls/mbedtls/mbedtls-2.16.2/include/mbedtls\pk.h **** {
 114:C:/Users/dtjld/workspace/AIoT/src/LiteOS_Lab/iot_link/network/dtls/mbedtls/mbedtls-2.16.2/include/mbedtls\pk.h ****     mbedtls_pk_debug_type type;
 115:C:/Users/dtjld/workspace/AIoT/src/LiteOS_Lab/iot_link/network/dtls/mbedtls/mbedtls-2.16.2/include/mbedtls\pk.h ****     const char *name;
 116:C:/Users/dtjld/workspace/AIoT/src/LiteOS_Lab/iot_link/network/dtls/mbedtls/mbedtls-2.16.2/include/mbedtls\pk.h ****     void *value;
 117:C:/Users/dtjld/workspace/AIoT/src/LiteOS_Lab/iot_link/network/dtls/mbedtls/mbedtls-2.16.2/include/mbedtls\pk.h **** } mbedtls_pk_debug_item;
 118:C:/Users/dtjld/workspace/AIoT/src/LiteOS_Lab/iot_link/network/dtls/mbedtls/mbedtls-2.16.2/include/mbedtls\pk.h **** 
 119:C:/Users/dtjld/workspace/AIoT/src/LiteOS_Lab/iot_link/network/dtls/mbedtls/mbedtls-2.16.2/include/mbedtls\pk.h **** /** Maximum number of item send for debugging, plus 1 */
 120:C:/Users/dtjld/workspace/AIoT/src/LiteOS_Lab/iot_link/network/dtls/mbedtls/mbedtls-2.16.2/include/mbedtls\pk.h **** #define MBEDTLS_PK_DEBUG_MAX_ITEMS 3
 121:C:/Users/dtjld/workspace/AIoT/src/LiteOS_Lab/iot_link/network/dtls/mbedtls/mbedtls-2.16.2/include/mbedtls\pk.h **** 
 122:C:/Users/dtjld/workspace/AIoT/src/LiteOS_Lab/iot_link/network/dtls/mbedtls/mbedtls-2.16.2/include/mbedtls\pk.h **** /**
 123:C:/Users/dtjld/workspace/AIoT/src/LiteOS_Lab/iot_link/network/dtls/mbedtls/mbedtls-2.16.2/include/mbedtls\pk.h ****  * \brief           Public key information and operations
 124:C:/Users/dtjld/workspace/AIoT/src/LiteOS_Lab/iot_link/network/dtls/mbedtls/mbedtls-2.16.2/include/mbedtls\pk.h ****  */
 125:C:/Users/dtjld/workspace/AIoT/src/LiteOS_Lab/iot_link/network/dtls/mbedtls/mbedtls-2.16.2/include/mbedtls\pk.h **** typedef struct mbedtls_pk_info_t mbedtls_pk_info_t;
 126:C:/Users/dtjld/workspace/AIoT/src/LiteOS_Lab/iot_link/network/dtls/mbedtls/mbedtls-2.16.2/include/mbedtls\pk.h **** 
 127:C:/Users/dtjld/workspace/AIoT/src/LiteOS_Lab/iot_link/network/dtls/mbedtls/mbedtls-2.16.2/include/mbedtls\pk.h **** /**
 128:C:/Users/dtjld/workspace/AIoT/src/LiteOS_Lab/iot_link/network/dtls/mbedtls/mbedtls-2.16.2/include/mbedtls\pk.h ****  * \brief           Public key container
 129:C:/Users/dtjld/workspace/AIoT/src/LiteOS_Lab/iot_link/network/dtls/mbedtls/mbedtls-2.16.2/include/mbedtls\pk.h ****  */
 130:C:/Users/dtjld/workspace/AIoT/src/LiteOS_Lab/iot_link/network/dtls/mbedtls/mbedtls-2.16.2/include/mbedtls\pk.h **** typedef struct mbedtls_pk_context
 131:C:/Users/dtjld/workspace/AIoT/src/LiteOS_Lab/iot_link/network/dtls/mbedtls/mbedtls-2.16.2/include/mbedtls\pk.h **** {
 132:C:/Users/dtjld/workspace/AIoT/src/LiteOS_Lab/iot_link/network/dtls/mbedtls/mbedtls-2.16.2/include/mbedtls\pk.h ****     const mbedtls_pk_info_t *   pk_info; /**< Public key information         */
 133:C:/Users/dtjld/workspace/AIoT/src/LiteOS_Lab/iot_link/network/dtls/mbedtls/mbedtls-2.16.2/include/mbedtls\pk.h ****     void *                      pk_ctx;  /**< Underlying public key context  */
 134:C:/Users/dtjld/workspace/AIoT/src/LiteOS_Lab/iot_link/network/dtls/mbedtls/mbedtls-2.16.2/include/mbedtls\pk.h **** } mbedtls_pk_context;
 135:C:/Users/dtjld/workspace/AIoT/src/LiteOS_Lab/iot_link/network/dtls/mbedtls/mbedtls-2.16.2/include/mbedtls\pk.h **** 
 136:C:/Users/dtjld/workspace/AIoT/src/LiteOS_Lab/iot_link/network/dtls/mbedtls/mbedtls-2.16.2/include/mbedtls\pk.h **** #if defined(MBEDTLS_ECDSA_C) && defined(MBEDTLS_ECP_RESTARTABLE)
 137:C:/Users/dtjld/workspace/AIoT/src/LiteOS_Lab/iot_link/network/dtls/mbedtls/mbedtls-2.16.2/include/mbedtls\pk.h **** /**
 138:C:/Users/dtjld/workspace/AIoT/src/LiteOS_Lab/iot_link/network/dtls/mbedtls/mbedtls-2.16.2/include/mbedtls\pk.h ****  * \brief           Context for resuming operations
 139:C:/Users/dtjld/workspace/AIoT/src/LiteOS_Lab/iot_link/network/dtls/mbedtls/mbedtls-2.16.2/include/mbedtls\pk.h ****  */
 140:C:/Users/dtjld/workspace/AIoT/src/LiteOS_Lab/iot_link/network/dtls/mbedtls/mbedtls-2.16.2/include/mbedtls\pk.h **** typedef struct
 141:C:/Users/dtjld/workspace/AIoT/src/LiteOS_Lab/iot_link/network/dtls/mbedtls/mbedtls-2.16.2/include/mbedtls\pk.h **** {
 142:C:/Users/dtjld/workspace/AIoT/src/LiteOS_Lab/iot_link/network/dtls/mbedtls/mbedtls-2.16.2/include/mbedtls\pk.h ****     const mbedtls_pk_info_t *   pk_info; /**< Public key information         */
 143:C:/Users/dtjld/workspace/AIoT/src/LiteOS_Lab/iot_link/network/dtls/mbedtls/mbedtls-2.16.2/include/mbedtls\pk.h ****     void *                      rs_ctx;  /**< Underlying restart context     */
 144:C:/Users/dtjld/workspace/AIoT/src/LiteOS_Lab/iot_link/network/dtls/mbedtls/mbedtls-2.16.2/include/mbedtls\pk.h **** } mbedtls_pk_restart_ctx;
 145:C:/Users/dtjld/workspace/AIoT/src/LiteOS_Lab/iot_link/network/dtls/mbedtls/mbedtls-2.16.2/include/mbedtls\pk.h **** #else /* MBEDTLS_ECDSA_C && MBEDTLS_ECP_RESTARTABLE */
 146:C:/Users/dtjld/workspace/AIoT/src/LiteOS_Lab/iot_link/network/dtls/mbedtls/mbedtls-2.16.2/include/mbedtls\pk.h **** /* Now we can declare functions that take a pointer to that */
ARM GAS  C:\Users\dtjld\AppData\Local\Temp\ccTXdst3.s 			page 4


 147:C:/Users/dtjld/workspace/AIoT/src/LiteOS_Lab/iot_link/network/dtls/mbedtls/mbedtls-2.16.2/include/mbedtls\pk.h **** typedef void mbedtls_pk_restart_ctx;
 148:C:/Users/dtjld/workspace/AIoT/src/LiteOS_Lab/iot_link/network/dtls/mbedtls/mbedtls-2.16.2/include/mbedtls\pk.h **** #endif /* MBEDTLS_ECDSA_C && MBEDTLS_ECP_RESTARTABLE */
 149:C:/Users/dtjld/workspace/AIoT/src/LiteOS_Lab/iot_link/network/dtls/mbedtls/mbedtls-2.16.2/include/mbedtls\pk.h **** 
 150:C:/Users/dtjld/workspace/AIoT/src/LiteOS_Lab/iot_link/network/dtls/mbedtls/mbedtls-2.16.2/include/mbedtls\pk.h **** #if defined(MBEDTLS_RSA_C)
 151:C:/Users/dtjld/workspace/AIoT/src/LiteOS_Lab/iot_link/network/dtls/mbedtls/mbedtls-2.16.2/include/mbedtls\pk.h **** /**
 152:C:/Users/dtjld/workspace/AIoT/src/LiteOS_Lab/iot_link/network/dtls/mbedtls/mbedtls-2.16.2/include/mbedtls\pk.h ****  * Quick access to an RSA context inside a PK context.
 153:C:/Users/dtjld/workspace/AIoT/src/LiteOS_Lab/iot_link/network/dtls/mbedtls/mbedtls-2.16.2/include/mbedtls\pk.h ****  *
 154:C:/Users/dtjld/workspace/AIoT/src/LiteOS_Lab/iot_link/network/dtls/mbedtls/mbedtls-2.16.2/include/mbedtls\pk.h ****  * \warning You must make sure the PK context actually holds an RSA context
 155:C:/Users/dtjld/workspace/AIoT/src/LiteOS_Lab/iot_link/network/dtls/mbedtls/mbedtls-2.16.2/include/mbedtls\pk.h ****  * before using this function!
 156:C:/Users/dtjld/workspace/AIoT/src/LiteOS_Lab/iot_link/network/dtls/mbedtls/mbedtls-2.16.2/include/mbedtls\pk.h ****  */
 157:C:/Users/dtjld/workspace/AIoT/src/LiteOS_Lab/iot_link/network/dtls/mbedtls/mbedtls-2.16.2/include/mbedtls\pk.h **** static inline mbedtls_rsa_context *mbedtls_pk_rsa( const mbedtls_pk_context pk )
 158:C:/Users/dtjld/workspace/AIoT/src/LiteOS_Lab/iot_link/network/dtls/mbedtls/mbedtls-2.16.2/include/mbedtls\pk.h **** {
 159:C:/Users/dtjld/workspace/AIoT/src/LiteOS_Lab/iot_link/network/dtls/mbedtls/mbedtls-2.16.2/include/mbedtls\pk.h ****     return( (mbedtls_rsa_context *) (pk).pk_ctx );
 160:C:/Users/dtjld/workspace/AIoT/src/LiteOS_Lab/iot_link/network/dtls/mbedtls/mbedtls-2.16.2/include/mbedtls\pk.h **** }
 161:C:/Users/dtjld/workspace/AIoT/src/LiteOS_Lab/iot_link/network/dtls/mbedtls/mbedtls-2.16.2/include/mbedtls\pk.h **** #endif /* MBEDTLS_RSA_C */
 162:C:/Users/dtjld/workspace/AIoT/src/LiteOS_Lab/iot_link/network/dtls/mbedtls/mbedtls-2.16.2/include/mbedtls\pk.h **** 
 163:C:/Users/dtjld/workspace/AIoT/src/LiteOS_Lab/iot_link/network/dtls/mbedtls/mbedtls-2.16.2/include/mbedtls\pk.h **** #if defined(MBEDTLS_ECP_C)
 164:C:/Users/dtjld/workspace/AIoT/src/LiteOS_Lab/iot_link/network/dtls/mbedtls/mbedtls-2.16.2/include/mbedtls\pk.h **** /**
 165:C:/Users/dtjld/workspace/AIoT/src/LiteOS_Lab/iot_link/network/dtls/mbedtls/mbedtls-2.16.2/include/mbedtls\pk.h ****  * Quick access to an EC context inside a PK context.
 166:C:/Users/dtjld/workspace/AIoT/src/LiteOS_Lab/iot_link/network/dtls/mbedtls/mbedtls-2.16.2/include/mbedtls\pk.h ****  *
 167:C:/Users/dtjld/workspace/AIoT/src/LiteOS_Lab/iot_link/network/dtls/mbedtls/mbedtls-2.16.2/include/mbedtls\pk.h ****  * \warning You must make sure the PK context actually holds an EC context
 168:C:/Users/dtjld/workspace/AIoT/src/LiteOS_Lab/iot_link/network/dtls/mbedtls/mbedtls-2.16.2/include/mbedtls\pk.h ****  * before using this function!
 169:C:/Users/dtjld/workspace/AIoT/src/LiteOS_Lab/iot_link/network/dtls/mbedtls/mbedtls-2.16.2/include/mbedtls\pk.h ****  */
 170:C:/Users/dtjld/workspace/AIoT/src/LiteOS_Lab/iot_link/network/dtls/mbedtls/mbedtls-2.16.2/include/mbedtls\pk.h **** static inline mbedtls_ecp_keypair *mbedtls_pk_ec( const mbedtls_pk_context pk )
 171:C:/Users/dtjld/workspace/AIoT/src/LiteOS_Lab/iot_link/network/dtls/mbedtls/mbedtls-2.16.2/include/mbedtls\pk.h **** {
  27              		.loc 1 171 0
  28              		.cfi_startproc
  29              		@ args = 0, pretend = 0, frame = 8
  30              		@ frame_needed = 1, uses_anonymous_args = 0
  31              		@ link register save eliminated.
  32 0000 80B4     		push	{r7}
  33              	.LCFI0:
  34              		.cfi_def_cfa_offset 4
  35              		.cfi_offset 7, -4
  36 0002 83B0     		sub	sp, sp, #12
  37              	.LCFI1:
  38              		.cfi_def_cfa_offset 16
  39 0004 00AF     		add	r7, sp, #0
  40              	.LCFI2:
  41              		.cfi_def_cfa_register 7
  42 0006 3B46     		mov	r3, r7
  43 0008 83E80300 		stm	r3, {r0, r1}
 172:C:/Users/dtjld/workspace/AIoT/src/LiteOS_Lab/iot_link/network/dtls/mbedtls/mbedtls-2.16.2/include/mbedtls\pk.h ****     return( (mbedtls_ecp_keypair *) (pk).pk_ctx );
  44              		.loc 1 172 0
  45 000c 7B68     		ldr	r3, [r7, #4]
 173:C:/Users/dtjld/workspace/AIoT/src/LiteOS_Lab/iot_link/network/dtls/mbedtls/mbedtls-2.16.2/include/mbedtls\pk.h **** }
  46              		.loc 1 173 0
  47 000e 1846     		mov	r0, r3
  48 0010 0C37     		adds	r7, r7, #12
  49              	.LCFI3:
  50              		.cfi_def_cfa_offset 4
  51 0012 BD46     		mov	sp, r7
  52              	.LCFI4:
  53              		.cfi_def_cfa_register 13
  54              		@ sp needed
  55 0014 5DF8047B 		ldr	r7, [sp], #4
  56              	.LCFI5:
ARM GAS  C:\Users\dtjld\AppData\Local\Temp\ccTXdst3.s 			page 5


  57              		.cfi_restore 7
  58              		.cfi_def_cfa_offset 0
  59 0018 7047     		bx	lr
  60              		.cfi_endproc
  61              	.LFE1:
  63              		.global	mbedtls_x509_crt_profile_default
  64              		.section	.rodata.mbedtls_x509_crt_profile_default,"a",%progbits
  65              		.align	2
  68              	mbedtls_x509_crt_profile_default:
  69 0000 F0000000 		.word	240
  70 0004 FFFFFF0F 		.word	268435455
  71 0008 FFFFFF0F 		.word	268435455
  72 000c 00080000 		.word	2048
  73              		.global	mbedtls_x509_crt_profile_next
  74              		.section	.rodata.mbedtls_x509_crt_profile_next,"a",%progbits
  75              		.align	2
  78              	mbedtls_x509_crt_profile_next:
  79 0000 E0000000 		.word	224
  80 0004 FFFFFF0F 		.word	268435455
  81 0008 FC080000 		.word	2300
  82 000c 00080000 		.word	2048
  83              		.global	mbedtls_x509_crt_profile_suiteb
  84              		.section	.rodata.mbedtls_x509_crt_profile_suiteb,"a",%progbits
  85              		.align	2
  88              	mbedtls_x509_crt_profile_suiteb:
  89 0000 60000000 		.word	96
  90 0004 0A000000 		.word	10
  91 0008 0C000000 		.word	12
  92 000c 00000000 		.word	0
  93              		.section	.text.x509_profile_check_md_alg,"ax",%progbits
  94              		.align	1
  95              		.syntax unified
  96              		.thumb
  97              		.thumb_func
  98              		.fpu fpv4-sp-d16
 100              	x509_profile_check_md_alg:
 101              	.LFB13:
 102              		.file 2 "C:/Users/dtjld/workspace/AIoT/src/LiteOS_Lab/iot_link/network/dtls/mbedtls/mbedtls-2.16.2
   1:C:/Users/dtjld/workspace/AIoT/src/LiteOS_Lab/iot_link/network/dtls/mbedtls/mbedtls-2.16.2/library\x509_crt.c **** /*
   2:C:/Users/dtjld/workspace/AIoT/src/LiteOS_Lab/iot_link/network/dtls/mbedtls/mbedtls-2.16.2/library\x509_crt.c ****  *  X.509 certificate parsing and verification
   3:C:/Users/dtjld/workspace/AIoT/src/LiteOS_Lab/iot_link/network/dtls/mbedtls/mbedtls-2.16.2/library\x509_crt.c ****  *
   4:C:/Users/dtjld/workspace/AIoT/src/LiteOS_Lab/iot_link/network/dtls/mbedtls/mbedtls-2.16.2/library\x509_crt.c ****  *  Copyright (C) 2006-2015, ARM Limited, All Rights Reserved
   5:C:/Users/dtjld/workspace/AIoT/src/LiteOS_Lab/iot_link/network/dtls/mbedtls/mbedtls-2.16.2/library\x509_crt.c ****  *  SPDX-License-Identifier: Apache-2.0
   6:C:/Users/dtjld/workspace/AIoT/src/LiteOS_Lab/iot_link/network/dtls/mbedtls/mbedtls-2.16.2/library\x509_crt.c ****  *
   7:C:/Users/dtjld/workspace/AIoT/src/LiteOS_Lab/iot_link/network/dtls/mbedtls/mbedtls-2.16.2/library\x509_crt.c ****  *  Licensed under the Apache License, Version 2.0 (the "License"); you may
   8:C:/Users/dtjld/workspace/AIoT/src/LiteOS_Lab/iot_link/network/dtls/mbedtls/mbedtls-2.16.2/library\x509_crt.c ****  *  not use this file except in compliance with the License.
   9:C:/Users/dtjld/workspace/AIoT/src/LiteOS_Lab/iot_link/network/dtls/mbedtls/mbedtls-2.16.2/library\x509_crt.c ****  *  You may obtain a copy of the License at
  10:C:/Users/dtjld/workspace/AIoT/src/LiteOS_Lab/iot_link/network/dtls/mbedtls/mbedtls-2.16.2/library\x509_crt.c ****  *
  11:C:/Users/dtjld/workspace/AIoT/src/LiteOS_Lab/iot_link/network/dtls/mbedtls/mbedtls-2.16.2/library\x509_crt.c ****  *  http://www.apache.org/licenses/LICENSE-2.0
  12:C:/Users/dtjld/workspace/AIoT/src/LiteOS_Lab/iot_link/network/dtls/mbedtls/mbedtls-2.16.2/library\x509_crt.c ****  *
  13:C:/Users/dtjld/workspace/AIoT/src/LiteOS_Lab/iot_link/network/dtls/mbedtls/mbedtls-2.16.2/library\x509_crt.c ****  *  Unless required by applicable law or agreed to in writing, software
  14:C:/Users/dtjld/workspace/AIoT/src/LiteOS_Lab/iot_link/network/dtls/mbedtls/mbedtls-2.16.2/library\x509_crt.c ****  *  distributed under the License is distributed on an "AS IS" BASIS, WITHOUT
  15:C:/Users/dtjld/workspace/AIoT/src/LiteOS_Lab/iot_link/network/dtls/mbedtls/mbedtls-2.16.2/library\x509_crt.c ****  *  WARRANTIES OR CONDITIONS OF ANY KIND, either express or implied.
  16:C:/Users/dtjld/workspace/AIoT/src/LiteOS_Lab/iot_link/network/dtls/mbedtls/mbedtls-2.16.2/library\x509_crt.c ****  *  See the License for the specific language governing permissions and
  17:C:/Users/dtjld/workspace/AIoT/src/LiteOS_Lab/iot_link/network/dtls/mbedtls/mbedtls-2.16.2/library\x509_crt.c ****  *  limitations under the License.
  18:C:/Users/dtjld/workspace/AIoT/src/LiteOS_Lab/iot_link/network/dtls/mbedtls/mbedtls-2.16.2/library\x509_crt.c ****  *
  19:C:/Users/dtjld/workspace/AIoT/src/LiteOS_Lab/iot_link/network/dtls/mbedtls/mbedtls-2.16.2/library\x509_crt.c ****  *  This file is part of mbed TLS (https://tls.mbed.org)
ARM GAS  C:\Users\dtjld\AppData\Local\Temp\ccTXdst3.s 			page 6


  20:C:/Users/dtjld/workspace/AIoT/src/LiteOS_Lab/iot_link/network/dtls/mbedtls/mbedtls-2.16.2/library\x509_crt.c ****  */
  21:C:/Users/dtjld/workspace/AIoT/src/LiteOS_Lab/iot_link/network/dtls/mbedtls/mbedtls-2.16.2/library\x509_crt.c **** /*
  22:C:/Users/dtjld/workspace/AIoT/src/LiteOS_Lab/iot_link/network/dtls/mbedtls/mbedtls-2.16.2/library\x509_crt.c ****  *  The ITU-T X.509 standard defines a certificate format for PKI.
  23:C:/Users/dtjld/workspace/AIoT/src/LiteOS_Lab/iot_link/network/dtls/mbedtls/mbedtls-2.16.2/library\x509_crt.c ****  *
  24:C:/Users/dtjld/workspace/AIoT/src/LiteOS_Lab/iot_link/network/dtls/mbedtls/mbedtls-2.16.2/library\x509_crt.c ****  *  http://www.ietf.org/rfc/rfc5280.txt (Certificates and CRLs)
  25:C:/Users/dtjld/workspace/AIoT/src/LiteOS_Lab/iot_link/network/dtls/mbedtls/mbedtls-2.16.2/library\x509_crt.c ****  *  http://www.ietf.org/rfc/rfc3279.txt (Alg IDs for CRLs)
  26:C:/Users/dtjld/workspace/AIoT/src/LiteOS_Lab/iot_link/network/dtls/mbedtls/mbedtls-2.16.2/library\x509_crt.c ****  *  http://www.ietf.org/rfc/rfc2986.txt (CSRs, aka PKCS#10)
  27:C:/Users/dtjld/workspace/AIoT/src/LiteOS_Lab/iot_link/network/dtls/mbedtls/mbedtls-2.16.2/library\x509_crt.c ****  *
  28:C:/Users/dtjld/workspace/AIoT/src/LiteOS_Lab/iot_link/network/dtls/mbedtls/mbedtls-2.16.2/library\x509_crt.c ****  *  http://www.itu.int/ITU-T/studygroups/com17/languages/X.680-0207.pdf
  29:C:/Users/dtjld/workspace/AIoT/src/LiteOS_Lab/iot_link/network/dtls/mbedtls/mbedtls-2.16.2/library\x509_crt.c ****  *  http://www.itu.int/ITU-T/studygroups/com17/languages/X.690-0207.pdf
  30:C:/Users/dtjld/workspace/AIoT/src/LiteOS_Lab/iot_link/network/dtls/mbedtls/mbedtls-2.16.2/library\x509_crt.c ****  *
  31:C:/Users/dtjld/workspace/AIoT/src/LiteOS_Lab/iot_link/network/dtls/mbedtls/mbedtls-2.16.2/library\x509_crt.c ****  *  [SIRO] https://cabforum.org/wp-content/uploads/Chunghwatelecom201503cabforumV4.pdf
  32:C:/Users/dtjld/workspace/AIoT/src/LiteOS_Lab/iot_link/network/dtls/mbedtls/mbedtls-2.16.2/library\x509_crt.c ****  */
  33:C:/Users/dtjld/workspace/AIoT/src/LiteOS_Lab/iot_link/network/dtls/mbedtls/mbedtls-2.16.2/library\x509_crt.c **** 
  34:C:/Users/dtjld/workspace/AIoT/src/LiteOS_Lab/iot_link/network/dtls/mbedtls/mbedtls-2.16.2/library\x509_crt.c **** #if !defined(MBEDTLS_CONFIG_FILE)
  35:C:/Users/dtjld/workspace/AIoT/src/LiteOS_Lab/iot_link/network/dtls/mbedtls/mbedtls-2.16.2/library\x509_crt.c **** #include "mbedtls/config.h"
  36:C:/Users/dtjld/workspace/AIoT/src/LiteOS_Lab/iot_link/network/dtls/mbedtls/mbedtls-2.16.2/library\x509_crt.c **** #else
  37:C:/Users/dtjld/workspace/AIoT/src/LiteOS_Lab/iot_link/network/dtls/mbedtls/mbedtls-2.16.2/library\x509_crt.c **** #include MBEDTLS_CONFIG_FILE
  38:C:/Users/dtjld/workspace/AIoT/src/LiteOS_Lab/iot_link/network/dtls/mbedtls/mbedtls-2.16.2/library\x509_crt.c **** #endif
  39:C:/Users/dtjld/workspace/AIoT/src/LiteOS_Lab/iot_link/network/dtls/mbedtls/mbedtls-2.16.2/library\x509_crt.c **** 
  40:C:/Users/dtjld/workspace/AIoT/src/LiteOS_Lab/iot_link/network/dtls/mbedtls/mbedtls-2.16.2/library\x509_crt.c **** #if defined(MBEDTLS_X509_CRT_PARSE_C)
  41:C:/Users/dtjld/workspace/AIoT/src/LiteOS_Lab/iot_link/network/dtls/mbedtls/mbedtls-2.16.2/library\x509_crt.c **** 
  42:C:/Users/dtjld/workspace/AIoT/src/LiteOS_Lab/iot_link/network/dtls/mbedtls/mbedtls-2.16.2/library\x509_crt.c **** #include "mbedtls/x509_crt.h"
  43:C:/Users/dtjld/workspace/AIoT/src/LiteOS_Lab/iot_link/network/dtls/mbedtls/mbedtls-2.16.2/library\x509_crt.c **** #include "mbedtls/oid.h"
  44:C:/Users/dtjld/workspace/AIoT/src/LiteOS_Lab/iot_link/network/dtls/mbedtls/mbedtls-2.16.2/library\x509_crt.c **** #include "mbedtls/platform_util.h"
  45:C:/Users/dtjld/workspace/AIoT/src/LiteOS_Lab/iot_link/network/dtls/mbedtls/mbedtls-2.16.2/library\x509_crt.c **** 
  46:C:/Users/dtjld/workspace/AIoT/src/LiteOS_Lab/iot_link/network/dtls/mbedtls/mbedtls-2.16.2/library\x509_crt.c **** #include <string.h>
  47:C:/Users/dtjld/workspace/AIoT/src/LiteOS_Lab/iot_link/network/dtls/mbedtls/mbedtls-2.16.2/library\x509_crt.c **** 
  48:C:/Users/dtjld/workspace/AIoT/src/LiteOS_Lab/iot_link/network/dtls/mbedtls/mbedtls-2.16.2/library\x509_crt.c **** #if defined(MBEDTLS_PEM_PARSE_C)
  49:C:/Users/dtjld/workspace/AIoT/src/LiteOS_Lab/iot_link/network/dtls/mbedtls/mbedtls-2.16.2/library\x509_crt.c **** #include "mbedtls/pem.h"
  50:C:/Users/dtjld/workspace/AIoT/src/LiteOS_Lab/iot_link/network/dtls/mbedtls/mbedtls-2.16.2/library\x509_crt.c **** #endif
  51:C:/Users/dtjld/workspace/AIoT/src/LiteOS_Lab/iot_link/network/dtls/mbedtls/mbedtls-2.16.2/library\x509_crt.c **** 
  52:C:/Users/dtjld/workspace/AIoT/src/LiteOS_Lab/iot_link/network/dtls/mbedtls/mbedtls-2.16.2/library\x509_crt.c **** #if defined(MBEDTLS_PLATFORM_C)
  53:C:/Users/dtjld/workspace/AIoT/src/LiteOS_Lab/iot_link/network/dtls/mbedtls/mbedtls-2.16.2/library\x509_crt.c **** #include "mbedtls/platform.h"
  54:C:/Users/dtjld/workspace/AIoT/src/LiteOS_Lab/iot_link/network/dtls/mbedtls/mbedtls-2.16.2/library\x509_crt.c **** #else
  55:C:/Users/dtjld/workspace/AIoT/src/LiteOS_Lab/iot_link/network/dtls/mbedtls/mbedtls-2.16.2/library\x509_crt.c **** #include <stdio.h>
  56:C:/Users/dtjld/workspace/AIoT/src/LiteOS_Lab/iot_link/network/dtls/mbedtls/mbedtls-2.16.2/library\x509_crt.c **** #include <stdlib.h>
  57:C:/Users/dtjld/workspace/AIoT/src/LiteOS_Lab/iot_link/network/dtls/mbedtls/mbedtls-2.16.2/library\x509_crt.c **** #define mbedtls_free       free
  58:C:/Users/dtjld/workspace/AIoT/src/LiteOS_Lab/iot_link/network/dtls/mbedtls/mbedtls-2.16.2/library\x509_crt.c **** #define mbedtls_calloc    calloc
  59:C:/Users/dtjld/workspace/AIoT/src/LiteOS_Lab/iot_link/network/dtls/mbedtls/mbedtls-2.16.2/library\x509_crt.c **** #define mbedtls_snprintf   snprintf
  60:C:/Users/dtjld/workspace/AIoT/src/LiteOS_Lab/iot_link/network/dtls/mbedtls/mbedtls-2.16.2/library\x509_crt.c **** #endif
  61:C:/Users/dtjld/workspace/AIoT/src/LiteOS_Lab/iot_link/network/dtls/mbedtls/mbedtls-2.16.2/library\x509_crt.c **** 
  62:C:/Users/dtjld/workspace/AIoT/src/LiteOS_Lab/iot_link/network/dtls/mbedtls/mbedtls-2.16.2/library\x509_crt.c **** #if defined(MBEDTLS_THREADING_C)
  63:C:/Users/dtjld/workspace/AIoT/src/LiteOS_Lab/iot_link/network/dtls/mbedtls/mbedtls-2.16.2/library\x509_crt.c **** #include "mbedtls/threading.h"
  64:C:/Users/dtjld/workspace/AIoT/src/LiteOS_Lab/iot_link/network/dtls/mbedtls/mbedtls-2.16.2/library\x509_crt.c **** #endif
  65:C:/Users/dtjld/workspace/AIoT/src/LiteOS_Lab/iot_link/network/dtls/mbedtls/mbedtls-2.16.2/library\x509_crt.c **** 
  66:C:/Users/dtjld/workspace/AIoT/src/LiteOS_Lab/iot_link/network/dtls/mbedtls/mbedtls-2.16.2/library\x509_crt.c **** #if defined(_WIN32) && !defined(EFIX64) && !defined(EFI32)
  67:C:/Users/dtjld/workspace/AIoT/src/LiteOS_Lab/iot_link/network/dtls/mbedtls/mbedtls-2.16.2/library\x509_crt.c **** #include <windows.h>
  68:C:/Users/dtjld/workspace/AIoT/src/LiteOS_Lab/iot_link/network/dtls/mbedtls/mbedtls-2.16.2/library\x509_crt.c **** #else
  69:C:/Users/dtjld/workspace/AIoT/src/LiteOS_Lab/iot_link/network/dtls/mbedtls/mbedtls-2.16.2/library\x509_crt.c **** #include <time.h>
  70:C:/Users/dtjld/workspace/AIoT/src/LiteOS_Lab/iot_link/network/dtls/mbedtls/mbedtls-2.16.2/library\x509_crt.c **** #endif
  71:C:/Users/dtjld/workspace/AIoT/src/LiteOS_Lab/iot_link/network/dtls/mbedtls/mbedtls-2.16.2/library\x509_crt.c **** 
  72:C:/Users/dtjld/workspace/AIoT/src/LiteOS_Lab/iot_link/network/dtls/mbedtls/mbedtls-2.16.2/library\x509_crt.c **** #if defined(MBEDTLS_FS_IO)
  73:C:/Users/dtjld/workspace/AIoT/src/LiteOS_Lab/iot_link/network/dtls/mbedtls/mbedtls-2.16.2/library\x509_crt.c **** #include <stdio.h>
  74:C:/Users/dtjld/workspace/AIoT/src/LiteOS_Lab/iot_link/network/dtls/mbedtls/mbedtls-2.16.2/library\x509_crt.c **** #if !defined(_WIN32) || defined(EFIX64) || defined(EFI32)
  75:C:/Users/dtjld/workspace/AIoT/src/LiteOS_Lab/iot_link/network/dtls/mbedtls/mbedtls-2.16.2/library\x509_crt.c **** #include <sys/types.h>
  76:C:/Users/dtjld/workspace/AIoT/src/LiteOS_Lab/iot_link/network/dtls/mbedtls/mbedtls-2.16.2/library\x509_crt.c **** #include <sys/stat.h>
ARM GAS  C:\Users\dtjld\AppData\Local\Temp\ccTXdst3.s 			page 7


  77:C:/Users/dtjld/workspace/AIoT/src/LiteOS_Lab/iot_link/network/dtls/mbedtls/mbedtls-2.16.2/library\x509_crt.c **** #include <dirent.h>
  78:C:/Users/dtjld/workspace/AIoT/src/LiteOS_Lab/iot_link/network/dtls/mbedtls/mbedtls-2.16.2/library\x509_crt.c **** #endif /* !_WIN32 || EFIX64 || EFI32 */
  79:C:/Users/dtjld/workspace/AIoT/src/LiteOS_Lab/iot_link/network/dtls/mbedtls/mbedtls-2.16.2/library\x509_crt.c **** #endif
  80:C:/Users/dtjld/workspace/AIoT/src/LiteOS_Lab/iot_link/network/dtls/mbedtls/mbedtls-2.16.2/library\x509_crt.c **** 
  81:C:/Users/dtjld/workspace/AIoT/src/LiteOS_Lab/iot_link/network/dtls/mbedtls/mbedtls-2.16.2/library\x509_crt.c **** /*
  82:C:/Users/dtjld/workspace/AIoT/src/LiteOS_Lab/iot_link/network/dtls/mbedtls/mbedtls-2.16.2/library\x509_crt.c ****  * Item in a verification chain: cert and flags for it
  83:C:/Users/dtjld/workspace/AIoT/src/LiteOS_Lab/iot_link/network/dtls/mbedtls/mbedtls-2.16.2/library\x509_crt.c ****  */
  84:C:/Users/dtjld/workspace/AIoT/src/LiteOS_Lab/iot_link/network/dtls/mbedtls/mbedtls-2.16.2/library\x509_crt.c **** typedef struct {
  85:C:/Users/dtjld/workspace/AIoT/src/LiteOS_Lab/iot_link/network/dtls/mbedtls/mbedtls-2.16.2/library\x509_crt.c ****     mbedtls_x509_crt *crt;
  86:C:/Users/dtjld/workspace/AIoT/src/LiteOS_Lab/iot_link/network/dtls/mbedtls/mbedtls-2.16.2/library\x509_crt.c ****     uint32_t flags;
  87:C:/Users/dtjld/workspace/AIoT/src/LiteOS_Lab/iot_link/network/dtls/mbedtls/mbedtls-2.16.2/library\x509_crt.c **** } x509_crt_verify_chain_item;
  88:C:/Users/dtjld/workspace/AIoT/src/LiteOS_Lab/iot_link/network/dtls/mbedtls/mbedtls-2.16.2/library\x509_crt.c **** 
  89:C:/Users/dtjld/workspace/AIoT/src/LiteOS_Lab/iot_link/network/dtls/mbedtls/mbedtls-2.16.2/library\x509_crt.c **** /*
  90:C:/Users/dtjld/workspace/AIoT/src/LiteOS_Lab/iot_link/network/dtls/mbedtls/mbedtls-2.16.2/library\x509_crt.c ****  * Max size of verification chain: end-entity + intermediates + trusted root
  91:C:/Users/dtjld/workspace/AIoT/src/LiteOS_Lab/iot_link/network/dtls/mbedtls/mbedtls-2.16.2/library\x509_crt.c ****  */
  92:C:/Users/dtjld/workspace/AIoT/src/LiteOS_Lab/iot_link/network/dtls/mbedtls/mbedtls-2.16.2/library\x509_crt.c **** #define X509_MAX_VERIFY_CHAIN_SIZE    ( MBEDTLS_X509_MAX_INTERMEDIATE_CA + 2 )
  93:C:/Users/dtjld/workspace/AIoT/src/LiteOS_Lab/iot_link/network/dtls/mbedtls/mbedtls-2.16.2/library\x509_crt.c **** 
  94:C:/Users/dtjld/workspace/AIoT/src/LiteOS_Lab/iot_link/network/dtls/mbedtls/mbedtls-2.16.2/library\x509_crt.c **** /*
  95:C:/Users/dtjld/workspace/AIoT/src/LiteOS_Lab/iot_link/network/dtls/mbedtls/mbedtls-2.16.2/library\x509_crt.c ****  * Default profile
  96:C:/Users/dtjld/workspace/AIoT/src/LiteOS_Lab/iot_link/network/dtls/mbedtls/mbedtls-2.16.2/library\x509_crt.c ****  */
  97:C:/Users/dtjld/workspace/AIoT/src/LiteOS_Lab/iot_link/network/dtls/mbedtls/mbedtls-2.16.2/library\x509_crt.c **** const mbedtls_x509_crt_profile mbedtls_x509_crt_profile_default =
  98:C:/Users/dtjld/workspace/AIoT/src/LiteOS_Lab/iot_link/network/dtls/mbedtls/mbedtls-2.16.2/library\x509_crt.c **** {
  99:C:/Users/dtjld/workspace/AIoT/src/LiteOS_Lab/iot_link/network/dtls/mbedtls/mbedtls-2.16.2/library\x509_crt.c **** #if defined(MBEDTLS_TLS_DEFAULT_ALLOW_SHA1_IN_CERTIFICATES)
 100:C:/Users/dtjld/workspace/AIoT/src/LiteOS_Lab/iot_link/network/dtls/mbedtls/mbedtls-2.16.2/library\x509_crt.c ****     /* Allow SHA-1 (weak, but still safe in controlled environments) */
 101:C:/Users/dtjld/workspace/AIoT/src/LiteOS_Lab/iot_link/network/dtls/mbedtls/mbedtls-2.16.2/library\x509_crt.c ****     MBEDTLS_X509_ID_FLAG( MBEDTLS_MD_SHA1 ) |
 102:C:/Users/dtjld/workspace/AIoT/src/LiteOS_Lab/iot_link/network/dtls/mbedtls/mbedtls-2.16.2/library\x509_crt.c **** #endif
 103:C:/Users/dtjld/workspace/AIoT/src/LiteOS_Lab/iot_link/network/dtls/mbedtls/mbedtls-2.16.2/library\x509_crt.c ****     /* Only SHA-2 hashes */
 104:C:/Users/dtjld/workspace/AIoT/src/LiteOS_Lab/iot_link/network/dtls/mbedtls/mbedtls-2.16.2/library\x509_crt.c ****     MBEDTLS_X509_ID_FLAG( MBEDTLS_MD_SHA224 ) |
 105:C:/Users/dtjld/workspace/AIoT/src/LiteOS_Lab/iot_link/network/dtls/mbedtls/mbedtls-2.16.2/library\x509_crt.c ****     MBEDTLS_X509_ID_FLAG( MBEDTLS_MD_SHA256 ) |
 106:C:/Users/dtjld/workspace/AIoT/src/LiteOS_Lab/iot_link/network/dtls/mbedtls/mbedtls-2.16.2/library\x509_crt.c ****     MBEDTLS_X509_ID_FLAG( MBEDTLS_MD_SHA384 ) |
 107:C:/Users/dtjld/workspace/AIoT/src/LiteOS_Lab/iot_link/network/dtls/mbedtls/mbedtls-2.16.2/library\x509_crt.c ****     MBEDTLS_X509_ID_FLAG( MBEDTLS_MD_SHA512 ),
 108:C:/Users/dtjld/workspace/AIoT/src/LiteOS_Lab/iot_link/network/dtls/mbedtls/mbedtls-2.16.2/library\x509_crt.c ****     0xFFFFFFF, /* Any PK alg    */
 109:C:/Users/dtjld/workspace/AIoT/src/LiteOS_Lab/iot_link/network/dtls/mbedtls/mbedtls-2.16.2/library\x509_crt.c ****     0xFFFFFFF, /* Any curve     */
 110:C:/Users/dtjld/workspace/AIoT/src/LiteOS_Lab/iot_link/network/dtls/mbedtls/mbedtls-2.16.2/library\x509_crt.c ****     2048,
 111:C:/Users/dtjld/workspace/AIoT/src/LiteOS_Lab/iot_link/network/dtls/mbedtls/mbedtls-2.16.2/library\x509_crt.c **** };
 112:C:/Users/dtjld/workspace/AIoT/src/LiteOS_Lab/iot_link/network/dtls/mbedtls/mbedtls-2.16.2/library\x509_crt.c **** 
 113:C:/Users/dtjld/workspace/AIoT/src/LiteOS_Lab/iot_link/network/dtls/mbedtls/mbedtls-2.16.2/library\x509_crt.c **** /*
 114:C:/Users/dtjld/workspace/AIoT/src/LiteOS_Lab/iot_link/network/dtls/mbedtls/mbedtls-2.16.2/library\x509_crt.c ****  * Next-default profile
 115:C:/Users/dtjld/workspace/AIoT/src/LiteOS_Lab/iot_link/network/dtls/mbedtls/mbedtls-2.16.2/library\x509_crt.c ****  */
 116:C:/Users/dtjld/workspace/AIoT/src/LiteOS_Lab/iot_link/network/dtls/mbedtls/mbedtls-2.16.2/library\x509_crt.c **** const mbedtls_x509_crt_profile mbedtls_x509_crt_profile_next =
 117:C:/Users/dtjld/workspace/AIoT/src/LiteOS_Lab/iot_link/network/dtls/mbedtls/mbedtls-2.16.2/library\x509_crt.c **** {
 118:C:/Users/dtjld/workspace/AIoT/src/LiteOS_Lab/iot_link/network/dtls/mbedtls/mbedtls-2.16.2/library\x509_crt.c ****     /* Hashes from SHA-256 and above */
 119:C:/Users/dtjld/workspace/AIoT/src/LiteOS_Lab/iot_link/network/dtls/mbedtls/mbedtls-2.16.2/library\x509_crt.c ****     MBEDTLS_X509_ID_FLAG( MBEDTLS_MD_SHA256 ) |
 120:C:/Users/dtjld/workspace/AIoT/src/LiteOS_Lab/iot_link/network/dtls/mbedtls/mbedtls-2.16.2/library\x509_crt.c ****     MBEDTLS_X509_ID_FLAG( MBEDTLS_MD_SHA384 ) |
 121:C:/Users/dtjld/workspace/AIoT/src/LiteOS_Lab/iot_link/network/dtls/mbedtls/mbedtls-2.16.2/library\x509_crt.c ****     MBEDTLS_X509_ID_FLAG( MBEDTLS_MD_SHA512 ),
 122:C:/Users/dtjld/workspace/AIoT/src/LiteOS_Lab/iot_link/network/dtls/mbedtls/mbedtls-2.16.2/library\x509_crt.c ****     0xFFFFFFF, /* Any PK alg    */
 123:C:/Users/dtjld/workspace/AIoT/src/LiteOS_Lab/iot_link/network/dtls/mbedtls/mbedtls-2.16.2/library\x509_crt.c **** #if defined(MBEDTLS_ECP_C)
 124:C:/Users/dtjld/workspace/AIoT/src/LiteOS_Lab/iot_link/network/dtls/mbedtls/mbedtls-2.16.2/library\x509_crt.c ****     /* Curves at or above 128-bit security level */
 125:C:/Users/dtjld/workspace/AIoT/src/LiteOS_Lab/iot_link/network/dtls/mbedtls/mbedtls-2.16.2/library\x509_crt.c ****     MBEDTLS_X509_ID_FLAG( MBEDTLS_ECP_DP_SECP256R1 ) |
 126:C:/Users/dtjld/workspace/AIoT/src/LiteOS_Lab/iot_link/network/dtls/mbedtls/mbedtls-2.16.2/library\x509_crt.c ****     MBEDTLS_X509_ID_FLAG( MBEDTLS_ECP_DP_SECP384R1 ) |
 127:C:/Users/dtjld/workspace/AIoT/src/LiteOS_Lab/iot_link/network/dtls/mbedtls/mbedtls-2.16.2/library\x509_crt.c ****     MBEDTLS_X509_ID_FLAG( MBEDTLS_ECP_DP_SECP521R1 ) |
 128:C:/Users/dtjld/workspace/AIoT/src/LiteOS_Lab/iot_link/network/dtls/mbedtls/mbedtls-2.16.2/library\x509_crt.c ****     MBEDTLS_X509_ID_FLAG( MBEDTLS_ECP_DP_BP256R1 ) |
 129:C:/Users/dtjld/workspace/AIoT/src/LiteOS_Lab/iot_link/network/dtls/mbedtls/mbedtls-2.16.2/library\x509_crt.c ****     MBEDTLS_X509_ID_FLAG( MBEDTLS_ECP_DP_BP384R1 ) |
 130:C:/Users/dtjld/workspace/AIoT/src/LiteOS_Lab/iot_link/network/dtls/mbedtls/mbedtls-2.16.2/library\x509_crt.c ****     MBEDTLS_X509_ID_FLAG( MBEDTLS_ECP_DP_BP512R1 ) |
 131:C:/Users/dtjld/workspace/AIoT/src/LiteOS_Lab/iot_link/network/dtls/mbedtls/mbedtls-2.16.2/library\x509_crt.c ****     MBEDTLS_X509_ID_FLAG( MBEDTLS_ECP_DP_SECP256K1 ),
 132:C:/Users/dtjld/workspace/AIoT/src/LiteOS_Lab/iot_link/network/dtls/mbedtls/mbedtls-2.16.2/library\x509_crt.c **** #else
 133:C:/Users/dtjld/workspace/AIoT/src/LiteOS_Lab/iot_link/network/dtls/mbedtls/mbedtls-2.16.2/library\x509_crt.c ****     0,
ARM GAS  C:\Users\dtjld\AppData\Local\Temp\ccTXdst3.s 			page 8


 134:C:/Users/dtjld/workspace/AIoT/src/LiteOS_Lab/iot_link/network/dtls/mbedtls/mbedtls-2.16.2/library\x509_crt.c **** #endif
 135:C:/Users/dtjld/workspace/AIoT/src/LiteOS_Lab/iot_link/network/dtls/mbedtls/mbedtls-2.16.2/library\x509_crt.c ****     2048,
 136:C:/Users/dtjld/workspace/AIoT/src/LiteOS_Lab/iot_link/network/dtls/mbedtls/mbedtls-2.16.2/library\x509_crt.c **** };
 137:C:/Users/dtjld/workspace/AIoT/src/LiteOS_Lab/iot_link/network/dtls/mbedtls/mbedtls-2.16.2/library\x509_crt.c **** 
 138:C:/Users/dtjld/workspace/AIoT/src/LiteOS_Lab/iot_link/network/dtls/mbedtls/mbedtls-2.16.2/library\x509_crt.c **** /*
 139:C:/Users/dtjld/workspace/AIoT/src/LiteOS_Lab/iot_link/network/dtls/mbedtls/mbedtls-2.16.2/library\x509_crt.c ****  * NSA Suite B Profile
 140:C:/Users/dtjld/workspace/AIoT/src/LiteOS_Lab/iot_link/network/dtls/mbedtls/mbedtls-2.16.2/library\x509_crt.c ****  */
 141:C:/Users/dtjld/workspace/AIoT/src/LiteOS_Lab/iot_link/network/dtls/mbedtls/mbedtls-2.16.2/library\x509_crt.c **** const mbedtls_x509_crt_profile mbedtls_x509_crt_profile_suiteb =
 142:C:/Users/dtjld/workspace/AIoT/src/LiteOS_Lab/iot_link/network/dtls/mbedtls/mbedtls-2.16.2/library\x509_crt.c **** {
 143:C:/Users/dtjld/workspace/AIoT/src/LiteOS_Lab/iot_link/network/dtls/mbedtls/mbedtls-2.16.2/library\x509_crt.c ****     /* Only SHA-256 and 384 */
 144:C:/Users/dtjld/workspace/AIoT/src/LiteOS_Lab/iot_link/network/dtls/mbedtls/mbedtls-2.16.2/library\x509_crt.c ****     MBEDTLS_X509_ID_FLAG( MBEDTLS_MD_SHA256 ) |
 145:C:/Users/dtjld/workspace/AIoT/src/LiteOS_Lab/iot_link/network/dtls/mbedtls/mbedtls-2.16.2/library\x509_crt.c ****     MBEDTLS_X509_ID_FLAG( MBEDTLS_MD_SHA384 ),
 146:C:/Users/dtjld/workspace/AIoT/src/LiteOS_Lab/iot_link/network/dtls/mbedtls/mbedtls-2.16.2/library\x509_crt.c ****     /* Only ECDSA */
 147:C:/Users/dtjld/workspace/AIoT/src/LiteOS_Lab/iot_link/network/dtls/mbedtls/mbedtls-2.16.2/library\x509_crt.c ****     MBEDTLS_X509_ID_FLAG( MBEDTLS_PK_ECDSA ) |
 148:C:/Users/dtjld/workspace/AIoT/src/LiteOS_Lab/iot_link/network/dtls/mbedtls/mbedtls-2.16.2/library\x509_crt.c ****     MBEDTLS_X509_ID_FLAG( MBEDTLS_PK_ECKEY ),
 149:C:/Users/dtjld/workspace/AIoT/src/LiteOS_Lab/iot_link/network/dtls/mbedtls/mbedtls-2.16.2/library\x509_crt.c **** #if defined(MBEDTLS_ECP_C)
 150:C:/Users/dtjld/workspace/AIoT/src/LiteOS_Lab/iot_link/network/dtls/mbedtls/mbedtls-2.16.2/library\x509_crt.c ****     /* Only NIST P-256 and P-384 */
 151:C:/Users/dtjld/workspace/AIoT/src/LiteOS_Lab/iot_link/network/dtls/mbedtls/mbedtls-2.16.2/library\x509_crt.c ****     MBEDTLS_X509_ID_FLAG( MBEDTLS_ECP_DP_SECP256R1 ) |
 152:C:/Users/dtjld/workspace/AIoT/src/LiteOS_Lab/iot_link/network/dtls/mbedtls/mbedtls-2.16.2/library\x509_crt.c ****     MBEDTLS_X509_ID_FLAG( MBEDTLS_ECP_DP_SECP384R1 ),
 153:C:/Users/dtjld/workspace/AIoT/src/LiteOS_Lab/iot_link/network/dtls/mbedtls/mbedtls-2.16.2/library\x509_crt.c **** #else
 154:C:/Users/dtjld/workspace/AIoT/src/LiteOS_Lab/iot_link/network/dtls/mbedtls/mbedtls-2.16.2/library\x509_crt.c ****     0,
 155:C:/Users/dtjld/workspace/AIoT/src/LiteOS_Lab/iot_link/network/dtls/mbedtls/mbedtls-2.16.2/library\x509_crt.c **** #endif
 156:C:/Users/dtjld/workspace/AIoT/src/LiteOS_Lab/iot_link/network/dtls/mbedtls/mbedtls-2.16.2/library\x509_crt.c ****     0,
 157:C:/Users/dtjld/workspace/AIoT/src/LiteOS_Lab/iot_link/network/dtls/mbedtls/mbedtls-2.16.2/library\x509_crt.c **** };
 158:C:/Users/dtjld/workspace/AIoT/src/LiteOS_Lab/iot_link/network/dtls/mbedtls/mbedtls-2.16.2/library\x509_crt.c **** 
 159:C:/Users/dtjld/workspace/AIoT/src/LiteOS_Lab/iot_link/network/dtls/mbedtls/mbedtls-2.16.2/library\x509_crt.c **** /*
 160:C:/Users/dtjld/workspace/AIoT/src/LiteOS_Lab/iot_link/network/dtls/mbedtls/mbedtls-2.16.2/library\x509_crt.c ****  * Check md_alg against profile
 161:C:/Users/dtjld/workspace/AIoT/src/LiteOS_Lab/iot_link/network/dtls/mbedtls/mbedtls-2.16.2/library\x509_crt.c ****  * Return 0 if md_alg is acceptable for this profile, -1 otherwise
 162:C:/Users/dtjld/workspace/AIoT/src/LiteOS_Lab/iot_link/network/dtls/mbedtls/mbedtls-2.16.2/library\x509_crt.c ****  */
 163:C:/Users/dtjld/workspace/AIoT/src/LiteOS_Lab/iot_link/network/dtls/mbedtls/mbedtls-2.16.2/library\x509_crt.c **** static int x509_profile_check_md_alg( const mbedtls_x509_crt_profile *profile,
 164:C:/Users/dtjld/workspace/AIoT/src/LiteOS_Lab/iot_link/network/dtls/mbedtls/mbedtls-2.16.2/library\x509_crt.c ****                                       mbedtls_md_type_t md_alg )
 165:C:/Users/dtjld/workspace/AIoT/src/LiteOS_Lab/iot_link/network/dtls/mbedtls/mbedtls-2.16.2/library\x509_crt.c **** {
 103              		.loc 2 165 0
 104              		.cfi_startproc
 105              		@ args = 0, pretend = 0, frame = 8
 106              		@ frame_needed = 1, uses_anonymous_args = 0
 107              		@ link register save eliminated.
 108 0000 80B4     		push	{r7}
 109              	.LCFI6:
 110              		.cfi_def_cfa_offset 4
 111              		.cfi_offset 7, -4
 112 0002 83B0     		sub	sp, sp, #12
 113              	.LCFI7:
 114              		.cfi_def_cfa_offset 16
 115 0004 00AF     		add	r7, sp, #0
 116              	.LCFI8:
 117              		.cfi_def_cfa_register 7
 118 0006 7860     		str	r0, [r7, #4]
 119 0008 0B46     		mov	r3, r1
 120 000a FB70     		strb	r3, [r7, #3]
 166:C:/Users/dtjld/workspace/AIoT/src/LiteOS_Lab/iot_link/network/dtls/mbedtls/mbedtls-2.16.2/library\x509_crt.c ****     if( md_alg == MBEDTLS_MD_NONE )
 121              		.loc 2 166 0
 122 000c FB78     		ldrb	r3, [r7, #3]	@ zero_extendqisi2
 123 000e 002B     		cmp	r3, #0
 124 0010 02D1     		bne	.L4
 167:C:/Users/dtjld/workspace/AIoT/src/LiteOS_Lab/iot_link/network/dtls/mbedtls/mbedtls-2.16.2/library\x509_crt.c ****         return( -1 );
 125              		.loc 2 167 0
ARM GAS  C:\Users\dtjld\AppData\Local\Temp\ccTXdst3.s 			page 9


 126 0012 4FF0FF33 		mov	r3, #-1
 127 0016 0DE0     		b	.L5
 128              	.L4:
 168:C:/Users/dtjld/workspace/AIoT/src/LiteOS_Lab/iot_link/network/dtls/mbedtls/mbedtls-2.16.2/library\x509_crt.c **** 
 169:C:/Users/dtjld/workspace/AIoT/src/LiteOS_Lab/iot_link/network/dtls/mbedtls/mbedtls-2.16.2/library\x509_crt.c ****     if( ( profile->allowed_mds & MBEDTLS_X509_ID_FLAG( md_alg ) ) != 0 )
 129              		.loc 2 169 0
 130 0018 7B68     		ldr	r3, [r7, #4]
 131 001a 1B68     		ldr	r3, [r3]
 132 001c FA78     		ldrb	r2, [r7, #3]	@ zero_extendqisi2
 133 001e 013A     		subs	r2, r2, #1
 134 0020 0121     		movs	r1, #1
 135 0022 01FA02F2 		lsl	r2, r1, r2
 136 0026 1340     		ands	r3, r3, r2
 137 0028 002B     		cmp	r3, #0
 138 002a 01D0     		beq	.L6
 170:C:/Users/dtjld/workspace/AIoT/src/LiteOS_Lab/iot_link/network/dtls/mbedtls/mbedtls-2.16.2/library\x509_crt.c ****         return( 0 );
 139              		.loc 2 170 0
 140 002c 0023     		movs	r3, #0
 141 002e 01E0     		b	.L5
 142              	.L6:
 171:C:/Users/dtjld/workspace/AIoT/src/LiteOS_Lab/iot_link/network/dtls/mbedtls/mbedtls-2.16.2/library\x509_crt.c **** 
 172:C:/Users/dtjld/workspace/AIoT/src/LiteOS_Lab/iot_link/network/dtls/mbedtls/mbedtls-2.16.2/library\x509_crt.c ****     return( -1 );
 143              		.loc 2 172 0
 144 0030 4FF0FF33 		mov	r3, #-1
 145              	.L5:
 173:C:/Users/dtjld/workspace/AIoT/src/LiteOS_Lab/iot_link/network/dtls/mbedtls/mbedtls-2.16.2/library\x509_crt.c **** }
 146              		.loc 2 173 0
 147 0034 1846     		mov	r0, r3
 148 0036 0C37     		adds	r7, r7, #12
 149              	.LCFI9:
 150              		.cfi_def_cfa_offset 4
 151 0038 BD46     		mov	sp, r7
 152              	.LCFI10:
 153              		.cfi_def_cfa_register 13
 154              		@ sp needed
 155 003a 5DF8047B 		ldr	r7, [sp], #4
 156              	.LCFI11:
 157              		.cfi_restore 7
 158              		.cfi_def_cfa_offset 0
 159 003e 7047     		bx	lr
 160              		.cfi_endproc
 161              	.LFE13:
 163              		.section	.text.x509_profile_check_pk_alg,"ax",%progbits
 164              		.align	1
 165              		.syntax unified
 166              		.thumb
 167              		.thumb_func
 168              		.fpu fpv4-sp-d16
 170              	x509_profile_check_pk_alg:
 171              	.LFB14:
 174:C:/Users/dtjld/workspace/AIoT/src/LiteOS_Lab/iot_link/network/dtls/mbedtls/mbedtls-2.16.2/library\x509_crt.c **** 
 175:C:/Users/dtjld/workspace/AIoT/src/LiteOS_Lab/iot_link/network/dtls/mbedtls/mbedtls-2.16.2/library\x509_crt.c **** /*
 176:C:/Users/dtjld/workspace/AIoT/src/LiteOS_Lab/iot_link/network/dtls/mbedtls/mbedtls-2.16.2/library\x509_crt.c ****  * Check pk_alg against profile
 177:C:/Users/dtjld/workspace/AIoT/src/LiteOS_Lab/iot_link/network/dtls/mbedtls/mbedtls-2.16.2/library\x509_crt.c ****  * Return 0 if pk_alg is acceptable for this profile, -1 otherwise
 178:C:/Users/dtjld/workspace/AIoT/src/LiteOS_Lab/iot_link/network/dtls/mbedtls/mbedtls-2.16.2/library\x509_crt.c ****  */
 179:C:/Users/dtjld/workspace/AIoT/src/LiteOS_Lab/iot_link/network/dtls/mbedtls/mbedtls-2.16.2/library\x509_crt.c **** static int x509_profile_check_pk_alg( const mbedtls_x509_crt_profile *profile,
 180:C:/Users/dtjld/workspace/AIoT/src/LiteOS_Lab/iot_link/network/dtls/mbedtls/mbedtls-2.16.2/library\x509_crt.c ****                                       mbedtls_pk_type_t pk_alg )
ARM GAS  C:\Users\dtjld\AppData\Local\Temp\ccTXdst3.s 			page 10


 181:C:/Users/dtjld/workspace/AIoT/src/LiteOS_Lab/iot_link/network/dtls/mbedtls/mbedtls-2.16.2/library\x509_crt.c **** {
 172              		.loc 2 181 0
 173              		.cfi_startproc
 174              		@ args = 0, pretend = 0, frame = 8
 175              		@ frame_needed = 1, uses_anonymous_args = 0
 176              		@ link register save eliminated.
 177 0000 80B4     		push	{r7}
 178              	.LCFI12:
 179              		.cfi_def_cfa_offset 4
 180              		.cfi_offset 7, -4
 181 0002 83B0     		sub	sp, sp, #12
 182              	.LCFI13:
 183              		.cfi_def_cfa_offset 16
 184 0004 00AF     		add	r7, sp, #0
 185              	.LCFI14:
 186              		.cfi_def_cfa_register 7
 187 0006 7860     		str	r0, [r7, #4]
 188 0008 0B46     		mov	r3, r1
 189 000a FB70     		strb	r3, [r7, #3]
 182:C:/Users/dtjld/workspace/AIoT/src/LiteOS_Lab/iot_link/network/dtls/mbedtls/mbedtls-2.16.2/library\x509_crt.c ****     if( pk_alg == MBEDTLS_PK_NONE )
 190              		.loc 2 182 0
 191 000c FB78     		ldrb	r3, [r7, #3]	@ zero_extendqisi2
 192 000e 002B     		cmp	r3, #0
 193 0010 02D1     		bne	.L8
 183:C:/Users/dtjld/workspace/AIoT/src/LiteOS_Lab/iot_link/network/dtls/mbedtls/mbedtls-2.16.2/library\x509_crt.c ****         return( -1 );
 194              		.loc 2 183 0
 195 0012 4FF0FF33 		mov	r3, #-1
 196 0016 0DE0     		b	.L9
 197              	.L8:
 184:C:/Users/dtjld/workspace/AIoT/src/LiteOS_Lab/iot_link/network/dtls/mbedtls/mbedtls-2.16.2/library\x509_crt.c **** 
 185:C:/Users/dtjld/workspace/AIoT/src/LiteOS_Lab/iot_link/network/dtls/mbedtls/mbedtls-2.16.2/library\x509_crt.c ****     if( ( profile->allowed_pks & MBEDTLS_X509_ID_FLAG( pk_alg ) ) != 0 )
 198              		.loc 2 185 0
 199 0018 7B68     		ldr	r3, [r7, #4]
 200 001a 5B68     		ldr	r3, [r3, #4]
 201 001c FA78     		ldrb	r2, [r7, #3]	@ zero_extendqisi2
 202 001e 013A     		subs	r2, r2, #1
 203 0020 0121     		movs	r1, #1
 204 0022 01FA02F2 		lsl	r2, r1, r2
 205 0026 1340     		ands	r3, r3, r2
 206 0028 002B     		cmp	r3, #0
 207 002a 01D0     		beq	.L10
 186:C:/Users/dtjld/workspace/AIoT/src/LiteOS_Lab/iot_link/network/dtls/mbedtls/mbedtls-2.16.2/library\x509_crt.c ****         return( 0 );
 208              		.loc 2 186 0
 209 002c 0023     		movs	r3, #0
 210 002e 01E0     		b	.L9
 211              	.L10:
 187:C:/Users/dtjld/workspace/AIoT/src/LiteOS_Lab/iot_link/network/dtls/mbedtls/mbedtls-2.16.2/library\x509_crt.c **** 
 188:C:/Users/dtjld/workspace/AIoT/src/LiteOS_Lab/iot_link/network/dtls/mbedtls/mbedtls-2.16.2/library\x509_crt.c ****     return( -1 );
 212              		.loc 2 188 0
 213 0030 4FF0FF33 		mov	r3, #-1
 214              	.L9:
 189:C:/Users/dtjld/workspace/AIoT/src/LiteOS_Lab/iot_link/network/dtls/mbedtls/mbedtls-2.16.2/library\x509_crt.c **** }
 215              		.loc 2 189 0
 216 0034 1846     		mov	r0, r3
 217 0036 0C37     		adds	r7, r7, #12
 218              	.LCFI15:
 219              		.cfi_def_cfa_offset 4
ARM GAS  C:\Users\dtjld\AppData\Local\Temp\ccTXdst3.s 			page 11


 220 0038 BD46     		mov	sp, r7
 221              	.LCFI16:
 222              		.cfi_def_cfa_register 13
 223              		@ sp needed
 224 003a 5DF8047B 		ldr	r7, [sp], #4
 225              	.LCFI17:
 226              		.cfi_restore 7
 227              		.cfi_def_cfa_offset 0
 228 003e 7047     		bx	lr
 229              		.cfi_endproc
 230              	.LFE14:
 232              		.section	.text.x509_profile_check_key,"ax",%progbits
 233              		.align	1
 234              		.syntax unified
 235              		.thumb
 236              		.thumb_func
 237              		.fpu fpv4-sp-d16
 239              	x509_profile_check_key:
 240              	.LFB15:
 190:C:/Users/dtjld/workspace/AIoT/src/LiteOS_Lab/iot_link/network/dtls/mbedtls/mbedtls-2.16.2/library\x509_crt.c **** 
 191:C:/Users/dtjld/workspace/AIoT/src/LiteOS_Lab/iot_link/network/dtls/mbedtls/mbedtls-2.16.2/library\x509_crt.c **** /*
 192:C:/Users/dtjld/workspace/AIoT/src/LiteOS_Lab/iot_link/network/dtls/mbedtls/mbedtls-2.16.2/library\x509_crt.c ****  * Check key against profile
 193:C:/Users/dtjld/workspace/AIoT/src/LiteOS_Lab/iot_link/network/dtls/mbedtls/mbedtls-2.16.2/library\x509_crt.c ****  * Return 0 if pk is acceptable for this profile, -1 otherwise
 194:C:/Users/dtjld/workspace/AIoT/src/LiteOS_Lab/iot_link/network/dtls/mbedtls/mbedtls-2.16.2/library\x509_crt.c ****  */
 195:C:/Users/dtjld/workspace/AIoT/src/LiteOS_Lab/iot_link/network/dtls/mbedtls/mbedtls-2.16.2/library\x509_crt.c **** static int x509_profile_check_key( const mbedtls_x509_crt_profile *profile,
 196:C:/Users/dtjld/workspace/AIoT/src/LiteOS_Lab/iot_link/network/dtls/mbedtls/mbedtls-2.16.2/library\x509_crt.c ****                                    const mbedtls_pk_context *pk )
 197:C:/Users/dtjld/workspace/AIoT/src/LiteOS_Lab/iot_link/network/dtls/mbedtls/mbedtls-2.16.2/library\x509_crt.c **** {
 241              		.loc 2 197 0
 242              		.cfi_startproc
 243              		@ args = 0, pretend = 0, frame = 16
 244              		@ frame_needed = 1, uses_anonymous_args = 0
 245 0000 80B5     		push	{r7, lr}
 246              	.LCFI18:
 247              		.cfi_def_cfa_offset 8
 248              		.cfi_offset 7, -8
 249              		.cfi_offset 14, -4
 250 0002 84B0     		sub	sp, sp, #16
 251              	.LCFI19:
 252              		.cfi_def_cfa_offset 24
 253 0004 00AF     		add	r7, sp, #0
 254              	.LCFI20:
 255              		.cfi_def_cfa_register 7
 256 0006 7860     		str	r0, [r7, #4]
 257 0008 3960     		str	r1, [r7]
 198:C:/Users/dtjld/workspace/AIoT/src/LiteOS_Lab/iot_link/network/dtls/mbedtls/mbedtls-2.16.2/library\x509_crt.c ****     const mbedtls_pk_type_t pk_alg = mbedtls_pk_get_type( pk );
 258              		.loc 2 198 0
 259 000a 3868     		ldr	r0, [r7]
 260 000c FFF7FEFF 		bl	mbedtls_pk_get_type
 261 0010 0346     		mov	r3, r0
 262 0012 FB73     		strb	r3, [r7, #15]
 199:C:/Users/dtjld/workspace/AIoT/src/LiteOS_Lab/iot_link/network/dtls/mbedtls/mbedtls-2.16.2/library\x509_crt.c **** 
 200:C:/Users/dtjld/workspace/AIoT/src/LiteOS_Lab/iot_link/network/dtls/mbedtls/mbedtls-2.16.2/library\x509_crt.c **** #if defined(MBEDTLS_RSA_C)
 201:C:/Users/dtjld/workspace/AIoT/src/LiteOS_Lab/iot_link/network/dtls/mbedtls/mbedtls-2.16.2/library\x509_crt.c ****     if( pk_alg == MBEDTLS_PK_RSA || pk_alg == MBEDTLS_PK_RSASSA_PSS )
 263              		.loc 2 201 0
 264 0014 FB7B     		ldrb	r3, [r7, #15]	@ zero_extendqisi2
 265 0016 012B     		cmp	r3, #1
 266 0018 02D0     		beq	.L12
ARM GAS  C:\Users\dtjld\AppData\Local\Temp\ccTXdst3.s 			page 12


 267              		.loc 2 201 0 is_stmt 0 discriminator 1
 268 001a FB7B     		ldrb	r3, [r7, #15]	@ zero_extendqisi2
 269 001c 062B     		cmp	r3, #6
 270 001e 0CD1     		bne	.L13
 271              	.L12:
 202:C:/Users/dtjld/workspace/AIoT/src/LiteOS_Lab/iot_link/network/dtls/mbedtls/mbedtls-2.16.2/library\x509_crt.c ****     {
 203:C:/Users/dtjld/workspace/AIoT/src/LiteOS_Lab/iot_link/network/dtls/mbedtls/mbedtls-2.16.2/library\x509_crt.c ****         if( mbedtls_pk_get_bitlen( pk ) >= profile->rsa_min_bitlen )
 272              		.loc 2 203 0 is_stmt 1
 273 0020 3868     		ldr	r0, [r7]
 274 0022 FFF7FEFF 		bl	mbedtls_pk_get_bitlen
 275 0026 0246     		mov	r2, r0
 276 0028 7B68     		ldr	r3, [r7, #4]
 277 002a DB68     		ldr	r3, [r3, #12]
 278 002c 9A42     		cmp	r2, r3
 279 002e 01D3     		bcc	.L14
 204:C:/Users/dtjld/workspace/AIoT/src/LiteOS_Lab/iot_link/network/dtls/mbedtls/mbedtls-2.16.2/library\x509_crt.c ****             return( 0 );
 280              		.loc 2 204 0
 281 0030 0023     		movs	r3, #0
 282 0032 2AE0     		b	.L15
 283              	.L14:
 205:C:/Users/dtjld/workspace/AIoT/src/LiteOS_Lab/iot_link/network/dtls/mbedtls/mbedtls-2.16.2/library\x509_crt.c **** 
 206:C:/Users/dtjld/workspace/AIoT/src/LiteOS_Lab/iot_link/network/dtls/mbedtls/mbedtls-2.16.2/library\x509_crt.c ****         return( -1 );
 284              		.loc 2 206 0
 285 0034 4FF0FF33 		mov	r3, #-1
 286 0038 27E0     		b	.L15
 287              	.L13:
 207:C:/Users/dtjld/workspace/AIoT/src/LiteOS_Lab/iot_link/network/dtls/mbedtls/mbedtls-2.16.2/library\x509_crt.c ****     }
 208:C:/Users/dtjld/workspace/AIoT/src/LiteOS_Lab/iot_link/network/dtls/mbedtls/mbedtls-2.16.2/library\x509_crt.c **** #endif
 209:C:/Users/dtjld/workspace/AIoT/src/LiteOS_Lab/iot_link/network/dtls/mbedtls/mbedtls-2.16.2/library\x509_crt.c **** 
 210:C:/Users/dtjld/workspace/AIoT/src/LiteOS_Lab/iot_link/network/dtls/mbedtls/mbedtls-2.16.2/library\x509_crt.c **** #if defined(MBEDTLS_ECP_C)
 211:C:/Users/dtjld/workspace/AIoT/src/LiteOS_Lab/iot_link/network/dtls/mbedtls/mbedtls-2.16.2/library\x509_crt.c ****     if( pk_alg == MBEDTLS_PK_ECDSA ||
 288              		.loc 2 211 0
 289 003a FB7B     		ldrb	r3, [r7, #15]	@ zero_extendqisi2
 290 003c 042B     		cmp	r3, #4
 291 003e 05D0     		beq	.L16
 292              		.loc 2 211 0 is_stmt 0 discriminator 1
 293 0040 FB7B     		ldrb	r3, [r7, #15]	@ zero_extendqisi2
 294 0042 022B     		cmp	r3, #2
 295 0044 02D0     		beq	.L16
 212:C:/Users/dtjld/workspace/AIoT/src/LiteOS_Lab/iot_link/network/dtls/mbedtls/mbedtls-2.16.2/library\x509_crt.c ****         pk_alg == MBEDTLS_PK_ECKEY ||
 296              		.loc 2 212 0 is_stmt 1
 297 0046 FB7B     		ldrb	r3, [r7, #15]	@ zero_extendqisi2
 298 0048 032B     		cmp	r3, #3
 299 004a 1CD1     		bne	.L17
 300              	.L16:
 301              	.LBB2:
 213:C:/Users/dtjld/workspace/AIoT/src/LiteOS_Lab/iot_link/network/dtls/mbedtls/mbedtls-2.16.2/library\x509_crt.c ****         pk_alg == MBEDTLS_PK_ECKEY_DH )
 214:C:/Users/dtjld/workspace/AIoT/src/LiteOS_Lab/iot_link/network/dtls/mbedtls/mbedtls-2.16.2/library\x509_crt.c ****     {
 215:C:/Users/dtjld/workspace/AIoT/src/LiteOS_Lab/iot_link/network/dtls/mbedtls/mbedtls-2.16.2/library\x509_crt.c ****         const mbedtls_ecp_group_id gid = mbedtls_pk_ec( *pk )->grp.id;
 302              		.loc 2 215 0
 303 004c 3B68     		ldr	r3, [r7]
 304 004e 93E80300 		ldm	r3, {r0, r1}
 305 0052 FFF7FEFF 		bl	mbedtls_pk_ec
 306 0056 0346     		mov	r3, r0
 307 0058 1B78     		ldrb	r3, [r3]
 308 005a BB73     		strb	r3, [r7, #14]
 216:C:/Users/dtjld/workspace/AIoT/src/LiteOS_Lab/iot_link/network/dtls/mbedtls/mbedtls-2.16.2/library\x509_crt.c **** 
ARM GAS  C:\Users\dtjld\AppData\Local\Temp\ccTXdst3.s 			page 13


 217:C:/Users/dtjld/workspace/AIoT/src/LiteOS_Lab/iot_link/network/dtls/mbedtls/mbedtls-2.16.2/library\x509_crt.c ****         if( gid == MBEDTLS_ECP_DP_NONE )
 309              		.loc 2 217 0
 310 005c BB7B     		ldrb	r3, [r7, #14]	@ zero_extendqisi2
 311 005e 002B     		cmp	r3, #0
 312 0060 02D1     		bne	.L18
 218:C:/Users/dtjld/workspace/AIoT/src/LiteOS_Lab/iot_link/network/dtls/mbedtls/mbedtls-2.16.2/library\x509_crt.c ****             return( -1 );
 313              		.loc 2 218 0
 314 0062 4FF0FF33 		mov	r3, #-1
 315 0066 10E0     		b	.L15
 316              	.L18:
 219:C:/Users/dtjld/workspace/AIoT/src/LiteOS_Lab/iot_link/network/dtls/mbedtls/mbedtls-2.16.2/library\x509_crt.c **** 
 220:C:/Users/dtjld/workspace/AIoT/src/LiteOS_Lab/iot_link/network/dtls/mbedtls/mbedtls-2.16.2/library\x509_crt.c ****         if( ( profile->allowed_curves & MBEDTLS_X509_ID_FLAG( gid ) ) != 0 )
 317              		.loc 2 220 0
 318 0068 7B68     		ldr	r3, [r7, #4]
 319 006a 9B68     		ldr	r3, [r3, #8]
 320 006c BA7B     		ldrb	r2, [r7, #14]	@ zero_extendqisi2
 321 006e 013A     		subs	r2, r2, #1
 322 0070 0121     		movs	r1, #1
 323 0072 01FA02F2 		lsl	r2, r1, r2
 324 0076 1340     		ands	r3, r3, r2
 325 0078 002B     		cmp	r3, #0
 326 007a 01D0     		beq	.L19
 221:C:/Users/dtjld/workspace/AIoT/src/LiteOS_Lab/iot_link/network/dtls/mbedtls/mbedtls-2.16.2/library\x509_crt.c ****             return( 0 );
 327              		.loc 2 221 0
 328 007c 0023     		movs	r3, #0
 329 007e 04E0     		b	.L15
 330              	.L19:
 222:C:/Users/dtjld/workspace/AIoT/src/LiteOS_Lab/iot_link/network/dtls/mbedtls/mbedtls-2.16.2/library\x509_crt.c **** 
 223:C:/Users/dtjld/workspace/AIoT/src/LiteOS_Lab/iot_link/network/dtls/mbedtls/mbedtls-2.16.2/library\x509_crt.c ****         return( -1 );
 331              		.loc 2 223 0
 332 0080 4FF0FF33 		mov	r3, #-1
 333 0084 01E0     		b	.L15
 334              	.L17:
 335              	.LBE2:
 224:C:/Users/dtjld/workspace/AIoT/src/LiteOS_Lab/iot_link/network/dtls/mbedtls/mbedtls-2.16.2/library\x509_crt.c ****     }
 225:C:/Users/dtjld/workspace/AIoT/src/LiteOS_Lab/iot_link/network/dtls/mbedtls/mbedtls-2.16.2/library\x509_crt.c **** #endif
 226:C:/Users/dtjld/workspace/AIoT/src/LiteOS_Lab/iot_link/network/dtls/mbedtls/mbedtls-2.16.2/library\x509_crt.c **** 
 227:C:/Users/dtjld/workspace/AIoT/src/LiteOS_Lab/iot_link/network/dtls/mbedtls/mbedtls-2.16.2/library\x509_crt.c ****     return( -1 );
 336              		.loc 2 227 0
 337 0086 4FF0FF33 		mov	r3, #-1
 338              	.L15:
 228:C:/Users/dtjld/workspace/AIoT/src/LiteOS_Lab/iot_link/network/dtls/mbedtls/mbedtls-2.16.2/library\x509_crt.c **** }
 339              		.loc 2 228 0
 340 008a 1846     		mov	r0, r3
 341 008c 1037     		adds	r7, r7, #16
 342              	.LCFI21:
 343              		.cfi_def_cfa_offset 8
 344 008e BD46     		mov	sp, r7
 345              	.LCFI22:
 346              		.cfi_def_cfa_register 13
 347              		@ sp needed
 348 0090 80BD     		pop	{r7, pc}
 349              		.cfi_endproc
 350              	.LFE15:
 352              		.section	.text.x509_memcasecmp,"ax",%progbits
 353              		.align	1
 354              		.syntax unified
ARM GAS  C:\Users\dtjld\AppData\Local\Temp\ccTXdst3.s 			page 14


 355              		.thumb
 356              		.thumb_func
 357              		.fpu fpv4-sp-d16
 359              	x509_memcasecmp:
 360              	.LFB16:
 229:C:/Users/dtjld/workspace/AIoT/src/LiteOS_Lab/iot_link/network/dtls/mbedtls/mbedtls-2.16.2/library\x509_crt.c **** 
 230:C:/Users/dtjld/workspace/AIoT/src/LiteOS_Lab/iot_link/network/dtls/mbedtls/mbedtls-2.16.2/library\x509_crt.c **** /*
 231:C:/Users/dtjld/workspace/AIoT/src/LiteOS_Lab/iot_link/network/dtls/mbedtls/mbedtls-2.16.2/library\x509_crt.c ****  * Like memcmp, but case-insensitive and always returns -1 if different
 232:C:/Users/dtjld/workspace/AIoT/src/LiteOS_Lab/iot_link/network/dtls/mbedtls/mbedtls-2.16.2/library\x509_crt.c ****  */
 233:C:/Users/dtjld/workspace/AIoT/src/LiteOS_Lab/iot_link/network/dtls/mbedtls/mbedtls-2.16.2/library\x509_crt.c **** static int x509_memcasecmp( const void *s1, const void *s2, size_t len )
 234:C:/Users/dtjld/workspace/AIoT/src/LiteOS_Lab/iot_link/network/dtls/mbedtls/mbedtls-2.16.2/library\x509_crt.c **** {
 361              		.loc 2 234 0
 362              		.cfi_startproc
 363              		@ args = 0, pretend = 0, frame = 32
 364              		@ frame_needed = 1, uses_anonymous_args = 0
 365              		@ link register save eliminated.
 366 0000 80B4     		push	{r7}
 367              	.LCFI23:
 368              		.cfi_def_cfa_offset 4
 369              		.cfi_offset 7, -4
 370 0002 89B0     		sub	sp, sp, #36
 371              	.LCFI24:
 372              		.cfi_def_cfa_offset 40
 373 0004 00AF     		add	r7, sp, #0
 374              	.LCFI25:
 375              		.cfi_def_cfa_register 7
 376 0006 F860     		str	r0, [r7, #12]
 377 0008 B960     		str	r1, [r7, #8]
 378 000a 7A60     		str	r2, [r7, #4]
 235:C:/Users/dtjld/workspace/AIoT/src/LiteOS_Lab/iot_link/network/dtls/mbedtls/mbedtls-2.16.2/library\x509_crt.c ****     size_t i;
 236:C:/Users/dtjld/workspace/AIoT/src/LiteOS_Lab/iot_link/network/dtls/mbedtls/mbedtls-2.16.2/library\x509_crt.c ****     unsigned char diff;
 237:C:/Users/dtjld/workspace/AIoT/src/LiteOS_Lab/iot_link/network/dtls/mbedtls/mbedtls-2.16.2/library\x509_crt.c ****     const unsigned char *n1 = s1, *n2 = s2;
 379              		.loc 2 237 0
 380 000c FB68     		ldr	r3, [r7, #12]
 381 000e BB61     		str	r3, [r7, #24]
 382 0010 BB68     		ldr	r3, [r7, #8]
 383 0012 7B61     		str	r3, [r7, #20]
 238:C:/Users/dtjld/workspace/AIoT/src/LiteOS_Lab/iot_link/network/dtls/mbedtls/mbedtls-2.16.2/library\x509_crt.c **** 
 239:C:/Users/dtjld/workspace/AIoT/src/LiteOS_Lab/iot_link/network/dtls/mbedtls/mbedtls-2.16.2/library\x509_crt.c ****     for( i = 0; i < len; i++ )
 384              		.loc 2 239 0
 385 0014 0023     		movs	r3, #0
 386 0016 FB61     		str	r3, [r7, #28]
 387 0018 30E0     		b	.L21
 388              	.L28:
 240:C:/Users/dtjld/workspace/AIoT/src/LiteOS_Lab/iot_link/network/dtls/mbedtls/mbedtls-2.16.2/library\x509_crt.c ****     {
 241:C:/Users/dtjld/workspace/AIoT/src/LiteOS_Lab/iot_link/network/dtls/mbedtls/mbedtls-2.16.2/library\x509_crt.c ****         diff = n1[i] ^ n2[i];
 389              		.loc 2 241 0
 390 001a BA69     		ldr	r2, [r7, #24]
 391 001c FB69     		ldr	r3, [r7, #28]
 392 001e 1344     		add	r3, r3, r2
 393 0020 1A78     		ldrb	r2, [r3]	@ zero_extendqisi2
 394 0022 7969     		ldr	r1, [r7, #20]
 395 0024 FB69     		ldr	r3, [r7, #28]
 396 0026 0B44     		add	r3, r3, r1
 397 0028 1B78     		ldrb	r3, [r3]	@ zero_extendqisi2
 398 002a 5340     		eors	r3, r3, r2
 399 002c FB74     		strb	r3, [r7, #19]
ARM GAS  C:\Users\dtjld\AppData\Local\Temp\ccTXdst3.s 			page 15


 242:C:/Users/dtjld/workspace/AIoT/src/LiteOS_Lab/iot_link/network/dtls/mbedtls/mbedtls-2.16.2/library\x509_crt.c **** 
 243:C:/Users/dtjld/workspace/AIoT/src/LiteOS_Lab/iot_link/network/dtls/mbedtls/mbedtls-2.16.2/library\x509_crt.c ****         if( diff == 0 )
 400              		.loc 2 243 0
 401 002e FB7C     		ldrb	r3, [r7, #19]	@ zero_extendqisi2
 402 0030 002B     		cmp	r3, #0
 403 0032 1DD0     		beq	.L29
 244:C:/Users/dtjld/workspace/AIoT/src/LiteOS_Lab/iot_link/network/dtls/mbedtls/mbedtls-2.16.2/library\x509_crt.c ****             continue;
 245:C:/Users/dtjld/workspace/AIoT/src/LiteOS_Lab/iot_link/network/dtls/mbedtls/mbedtls-2.16.2/library\x509_crt.c **** 
 246:C:/Users/dtjld/workspace/AIoT/src/LiteOS_Lab/iot_link/network/dtls/mbedtls/mbedtls-2.16.2/library\x509_crt.c ****         if( diff == 32 &&
 404              		.loc 2 246 0
 405 0034 FB7C     		ldrb	r3, [r7, #19]	@ zero_extendqisi2
 406 0036 202B     		cmp	r3, #32
 407 0038 17D1     		bne	.L24
 247:C:/Users/dtjld/workspace/AIoT/src/LiteOS_Lab/iot_link/network/dtls/mbedtls/mbedtls-2.16.2/library\x509_crt.c ****             ( ( n1[i] >= 'a' && n1[i] <= 'z' ) ||
 408              		.loc 2 247 0 discriminator 1
 409 003a BA69     		ldr	r2, [r7, #24]
 410 003c FB69     		ldr	r3, [r7, #28]
 411 003e 1344     		add	r3, r3, r2
 412 0040 1B78     		ldrb	r3, [r3]	@ zero_extendqisi2
 246:C:/Users/dtjld/workspace/AIoT/src/LiteOS_Lab/iot_link/network/dtls/mbedtls/mbedtls-2.16.2/library\x509_crt.c ****             ( ( n1[i] >= 'a' && n1[i] <= 'z' ) ||
 413              		.loc 2 246 0 discriminator 1
 414 0042 602B     		cmp	r3, #96
 415 0044 05D9     		bls	.L25
 416              		.loc 2 247 0
 417 0046 BA69     		ldr	r2, [r7, #24]
 418 0048 FB69     		ldr	r3, [r7, #28]
 419 004a 1344     		add	r3, r3, r2
 420 004c 1B78     		ldrb	r3, [r3]	@ zero_extendqisi2
 421 004e 7A2B     		cmp	r3, #122
 422 0050 10D9     		bls	.L30
 423              	.L25:
 248:C:/Users/dtjld/workspace/AIoT/src/LiteOS_Lab/iot_link/network/dtls/mbedtls/mbedtls-2.16.2/library\x509_crt.c ****               ( n1[i] >= 'A' && n1[i] <= 'Z' ) ) )
 424              		.loc 2 248 0 discriminator 1
 425 0052 BA69     		ldr	r2, [r7, #24]
 426 0054 FB69     		ldr	r3, [r7, #28]
 427 0056 1344     		add	r3, r3, r2
 428 0058 1B78     		ldrb	r3, [r3]	@ zero_extendqisi2
 247:C:/Users/dtjld/workspace/AIoT/src/LiteOS_Lab/iot_link/network/dtls/mbedtls/mbedtls-2.16.2/library\x509_crt.c ****             ( ( n1[i] >= 'a' && n1[i] <= 'z' ) ||
 429              		.loc 2 247 0 discriminator 1
 430 005a 402B     		cmp	r3, #64
 431 005c 05D9     		bls	.L24
 432              		.loc 2 248 0
 433 005e BA69     		ldr	r2, [r7, #24]
 434 0060 FB69     		ldr	r3, [r7, #28]
 435 0062 1344     		add	r3, r3, r2
 436 0064 1B78     		ldrb	r3, [r3]	@ zero_extendqisi2
 437 0066 5A2B     		cmp	r3, #90
 438 0068 04D9     		bls	.L30
 439              	.L24:
 249:C:/Users/dtjld/workspace/AIoT/src/LiteOS_Lab/iot_link/network/dtls/mbedtls/mbedtls-2.16.2/library\x509_crt.c ****         {
 250:C:/Users/dtjld/workspace/AIoT/src/LiteOS_Lab/iot_link/network/dtls/mbedtls/mbedtls-2.16.2/library\x509_crt.c ****             continue;
 251:C:/Users/dtjld/workspace/AIoT/src/LiteOS_Lab/iot_link/network/dtls/mbedtls/mbedtls-2.16.2/library\x509_crt.c ****         }
 252:C:/Users/dtjld/workspace/AIoT/src/LiteOS_Lab/iot_link/network/dtls/mbedtls/mbedtls-2.16.2/library\x509_crt.c **** 
 253:C:/Users/dtjld/workspace/AIoT/src/LiteOS_Lab/iot_link/network/dtls/mbedtls/mbedtls-2.16.2/library\x509_crt.c ****         return( -1 );
 440              		.loc 2 253 0
 441 006a 4FF0FF33 		mov	r3, #-1
 442 006e 0AE0     		b	.L27
ARM GAS  C:\Users\dtjld\AppData\Local\Temp\ccTXdst3.s 			page 16


 443              	.L29:
 244:C:/Users/dtjld/workspace/AIoT/src/LiteOS_Lab/iot_link/network/dtls/mbedtls/mbedtls-2.16.2/library\x509_crt.c **** 
 444              		.loc 2 244 0
 445 0070 00BF     		nop
 446 0072 00E0     		b	.L23
 447              	.L30:
 250:C:/Users/dtjld/workspace/AIoT/src/LiteOS_Lab/iot_link/network/dtls/mbedtls/mbedtls-2.16.2/library\x509_crt.c ****         }
 448              		.loc 2 250 0
 449 0074 00BF     		nop
 450              	.L23:
 239:C:/Users/dtjld/workspace/AIoT/src/LiteOS_Lab/iot_link/network/dtls/mbedtls/mbedtls-2.16.2/library\x509_crt.c ****     {
 451              		.loc 2 239 0 discriminator 2
 452 0076 FB69     		ldr	r3, [r7, #28]
 453 0078 0133     		adds	r3, r3, #1
 454 007a FB61     		str	r3, [r7, #28]
 455              	.L21:
 239:C:/Users/dtjld/workspace/AIoT/src/LiteOS_Lab/iot_link/network/dtls/mbedtls/mbedtls-2.16.2/library\x509_crt.c ****     {
 456              		.loc 2 239 0 is_stmt 0 discriminator 1
 457 007c FA69     		ldr	r2, [r7, #28]
 458 007e 7B68     		ldr	r3, [r7, #4]
 459 0080 9A42     		cmp	r2, r3
 460 0082 CAD3     		bcc	.L28
 254:C:/Users/dtjld/workspace/AIoT/src/LiteOS_Lab/iot_link/network/dtls/mbedtls/mbedtls-2.16.2/library\x509_crt.c ****     }
 255:C:/Users/dtjld/workspace/AIoT/src/LiteOS_Lab/iot_link/network/dtls/mbedtls/mbedtls-2.16.2/library\x509_crt.c **** 
 256:C:/Users/dtjld/workspace/AIoT/src/LiteOS_Lab/iot_link/network/dtls/mbedtls/mbedtls-2.16.2/library\x509_crt.c ****     return( 0 );
 461              		.loc 2 256 0 is_stmt 1
 462 0084 0023     		movs	r3, #0
 463              	.L27:
 257:C:/Users/dtjld/workspace/AIoT/src/LiteOS_Lab/iot_link/network/dtls/mbedtls/mbedtls-2.16.2/library\x509_crt.c **** }
 464              		.loc 2 257 0
 465 0086 1846     		mov	r0, r3
 466 0088 2437     		adds	r7, r7, #36
 467              	.LCFI26:
 468              		.cfi_def_cfa_offset 4
 469 008a BD46     		mov	sp, r7
 470              	.LCFI27:
 471              		.cfi_def_cfa_register 13
 472              		@ sp needed
 473 008c 5DF8047B 		ldr	r7, [sp], #4
 474              	.LCFI28:
 475              		.cfi_restore 7
 476              		.cfi_def_cfa_offset 0
 477 0090 7047     		bx	lr
 478              		.cfi_endproc
 479              	.LFE16:
 481              		.section	.text.x509_check_wildcard,"ax",%progbits
 482              		.align	1
 483              		.syntax unified
 484              		.thumb
 485              		.thumb_func
 486              		.fpu fpv4-sp-d16
 488              	x509_check_wildcard:
 489              	.LFB17:
 258:C:/Users/dtjld/workspace/AIoT/src/LiteOS_Lab/iot_link/network/dtls/mbedtls/mbedtls-2.16.2/library\x509_crt.c **** 
 259:C:/Users/dtjld/workspace/AIoT/src/LiteOS_Lab/iot_link/network/dtls/mbedtls/mbedtls-2.16.2/library\x509_crt.c **** /*
 260:C:/Users/dtjld/workspace/AIoT/src/LiteOS_Lab/iot_link/network/dtls/mbedtls/mbedtls-2.16.2/library\x509_crt.c ****  * Return 0 if name matches wildcard, -1 otherwise
 261:C:/Users/dtjld/workspace/AIoT/src/LiteOS_Lab/iot_link/network/dtls/mbedtls/mbedtls-2.16.2/library\x509_crt.c ****  */
ARM GAS  C:\Users\dtjld\AppData\Local\Temp\ccTXdst3.s 			page 17


 262:C:/Users/dtjld/workspace/AIoT/src/LiteOS_Lab/iot_link/network/dtls/mbedtls/mbedtls-2.16.2/library\x509_crt.c **** static int x509_check_wildcard( const char *cn, const mbedtls_x509_buf *name )
 263:C:/Users/dtjld/workspace/AIoT/src/LiteOS_Lab/iot_link/network/dtls/mbedtls/mbedtls-2.16.2/library\x509_crt.c **** {
 490              		.loc 2 263 0
 491              		.cfi_startproc
 492              		@ args = 0, pretend = 0, frame = 24
 493              		@ frame_needed = 1, uses_anonymous_args = 0
 494 0000 80B5     		push	{r7, lr}
 495              	.LCFI29:
 496              		.cfi_def_cfa_offset 8
 497              		.cfi_offset 7, -8
 498              		.cfi_offset 14, -4
 499 0002 86B0     		sub	sp, sp, #24
 500              	.LCFI30:
 501              		.cfi_def_cfa_offset 32
 502 0004 00AF     		add	r7, sp, #0
 503              	.LCFI31:
 504              		.cfi_def_cfa_register 7
 505 0006 7860     		str	r0, [r7, #4]
 506 0008 3960     		str	r1, [r7]
 264:C:/Users/dtjld/workspace/AIoT/src/LiteOS_Lab/iot_link/network/dtls/mbedtls/mbedtls-2.16.2/library\x509_crt.c ****     size_t i;
 265:C:/Users/dtjld/workspace/AIoT/src/LiteOS_Lab/iot_link/network/dtls/mbedtls/mbedtls-2.16.2/library\x509_crt.c ****     size_t cn_idx = 0, cn_len = strlen( cn );
 507              		.loc 2 265 0
 508 000a 0023     		movs	r3, #0
 509 000c 3B61     		str	r3, [r7, #16]
 510 000e 7868     		ldr	r0, [r7, #4]
 511 0010 FFF7FEFF 		bl	strlen
 512 0014 F860     		str	r0, [r7, #12]
 266:C:/Users/dtjld/workspace/AIoT/src/LiteOS_Lab/iot_link/network/dtls/mbedtls/mbedtls-2.16.2/library\x509_crt.c **** 
 267:C:/Users/dtjld/workspace/AIoT/src/LiteOS_Lab/iot_link/network/dtls/mbedtls/mbedtls-2.16.2/library\x509_crt.c ****     /* We can't have a match if there is no wildcard to match */
 268:C:/Users/dtjld/workspace/AIoT/src/LiteOS_Lab/iot_link/network/dtls/mbedtls/mbedtls-2.16.2/library\x509_crt.c ****     if( name->len < 3 || name->p[0] != '*' || name->p[1] != '.' )
 513              		.loc 2 268 0
 514 0016 3B68     		ldr	r3, [r7]
 515 0018 5B68     		ldr	r3, [r3, #4]
 516 001a 022B     		cmp	r3, #2
 517 001c 0AD9     		bls	.L32
 518              		.loc 2 268 0 is_stmt 0 discriminator 1
 519 001e 3B68     		ldr	r3, [r7]
 520 0020 9B68     		ldr	r3, [r3, #8]
 521 0022 1B78     		ldrb	r3, [r3]	@ zero_extendqisi2
 522 0024 2A2B     		cmp	r3, #42
 523 0026 05D1     		bne	.L32
 524              		.loc 2 268 0 discriminator 2
 525 0028 3B68     		ldr	r3, [r7]
 526 002a 9B68     		ldr	r3, [r3, #8]
 527 002c 0133     		adds	r3, r3, #1
 528 002e 1B78     		ldrb	r3, [r3]	@ zero_extendqisi2
 529 0030 2E2B     		cmp	r3, #46
 530 0032 02D0     		beq	.L33
 531              	.L32:
 269:C:/Users/dtjld/workspace/AIoT/src/LiteOS_Lab/iot_link/network/dtls/mbedtls/mbedtls-2.16.2/library\x509_crt.c ****         return( -1 );
 532              		.loc 2 269 0 is_stmt 1
 533 0034 4FF0FF33 		mov	r3, #-1
 534 0038 33E0     		b	.L34
 535              	.L33:
 270:C:/Users/dtjld/workspace/AIoT/src/LiteOS_Lab/iot_link/network/dtls/mbedtls/mbedtls-2.16.2/library\x509_crt.c **** 
 271:C:/Users/dtjld/workspace/AIoT/src/LiteOS_Lab/iot_link/network/dtls/mbedtls/mbedtls-2.16.2/library\x509_crt.c ****     for( i = 0; i < cn_len; ++i )
 536              		.loc 2 271 0
ARM GAS  C:\Users\dtjld\AppData\Local\Temp\ccTXdst3.s 			page 18


 537 003a 0023     		movs	r3, #0
 538 003c 7B61     		str	r3, [r7, #20]
 539 003e 0BE0     		b	.L35
 540              	.L38:
 272:C:/Users/dtjld/workspace/AIoT/src/LiteOS_Lab/iot_link/network/dtls/mbedtls/mbedtls-2.16.2/library\x509_crt.c ****     {
 273:C:/Users/dtjld/workspace/AIoT/src/LiteOS_Lab/iot_link/network/dtls/mbedtls/mbedtls-2.16.2/library\x509_crt.c ****         if( cn[i] == '.' )
 541              		.loc 2 273 0
 542 0040 7A68     		ldr	r2, [r7, #4]
 543 0042 7B69     		ldr	r3, [r7, #20]
 544 0044 1344     		add	r3, r3, r2
 545 0046 1B78     		ldrb	r3, [r3]	@ zero_extendqisi2
 546 0048 2E2B     		cmp	r3, #46
 547 004a 02D1     		bne	.L36
 274:C:/Users/dtjld/workspace/AIoT/src/LiteOS_Lab/iot_link/network/dtls/mbedtls/mbedtls-2.16.2/library\x509_crt.c ****         {
 275:C:/Users/dtjld/workspace/AIoT/src/LiteOS_Lab/iot_link/network/dtls/mbedtls/mbedtls-2.16.2/library\x509_crt.c ****             cn_idx = i;
 548              		.loc 2 275 0
 549 004c 7B69     		ldr	r3, [r7, #20]
 550 004e 3B61     		str	r3, [r7, #16]
 276:C:/Users/dtjld/workspace/AIoT/src/LiteOS_Lab/iot_link/network/dtls/mbedtls/mbedtls-2.16.2/library\x509_crt.c ****             break;
 551              		.loc 2 276 0
 552 0050 06E0     		b	.L37
 553              	.L36:
 271:C:/Users/dtjld/workspace/AIoT/src/LiteOS_Lab/iot_link/network/dtls/mbedtls/mbedtls-2.16.2/library\x509_crt.c ****     {
 554              		.loc 2 271 0 discriminator 2
 555 0052 7B69     		ldr	r3, [r7, #20]
 556 0054 0133     		adds	r3, r3, #1
 557 0056 7B61     		str	r3, [r7, #20]
 558              	.L35:
 271:C:/Users/dtjld/workspace/AIoT/src/LiteOS_Lab/iot_link/network/dtls/mbedtls/mbedtls-2.16.2/library\x509_crt.c ****     {
 559              		.loc 2 271 0 is_stmt 0 discriminator 1
 560 0058 7A69     		ldr	r2, [r7, #20]
 561 005a FB68     		ldr	r3, [r7, #12]
 562 005c 9A42     		cmp	r2, r3
 563 005e EFD3     		bcc	.L38
 564              	.L37:
 277:C:/Users/dtjld/workspace/AIoT/src/LiteOS_Lab/iot_link/network/dtls/mbedtls/mbedtls-2.16.2/library\x509_crt.c ****         }
 278:C:/Users/dtjld/workspace/AIoT/src/LiteOS_Lab/iot_link/network/dtls/mbedtls/mbedtls-2.16.2/library\x509_crt.c ****     }
 279:C:/Users/dtjld/workspace/AIoT/src/LiteOS_Lab/iot_link/network/dtls/mbedtls/mbedtls-2.16.2/library\x509_crt.c **** 
 280:C:/Users/dtjld/workspace/AIoT/src/LiteOS_Lab/iot_link/network/dtls/mbedtls/mbedtls-2.16.2/library\x509_crt.c ****     if( cn_idx == 0 )
 565              		.loc 2 280 0 is_stmt 1
 566 0060 3B69     		ldr	r3, [r7, #16]
 567 0062 002B     		cmp	r3, #0
 568 0064 02D1     		bne	.L39
 281:C:/Users/dtjld/workspace/AIoT/src/LiteOS_Lab/iot_link/network/dtls/mbedtls/mbedtls-2.16.2/library\x509_crt.c ****         return( -1 );
 569              		.loc 2 281 0
 570 0066 4FF0FF33 		mov	r3, #-1
 571 006a 1AE0     		b	.L34
 572              	.L39:
 282:C:/Users/dtjld/workspace/AIoT/src/LiteOS_Lab/iot_link/network/dtls/mbedtls/mbedtls-2.16.2/library\x509_crt.c **** 
 283:C:/Users/dtjld/workspace/AIoT/src/LiteOS_Lab/iot_link/network/dtls/mbedtls/mbedtls-2.16.2/library\x509_crt.c ****     if( cn_len - cn_idx == name->len - 1 &&
 573              		.loc 2 283 0
 574 006c FA68     		ldr	r2, [r7, #12]
 575 006e 3B69     		ldr	r3, [r7, #16]
 576 0070 D21A     		subs	r2, r2, r3
 577 0072 3B68     		ldr	r3, [r7]
 578 0074 5B68     		ldr	r3, [r3, #4]
 579 0076 013B     		subs	r3, r3, #1
ARM GAS  C:\Users\dtjld\AppData\Local\Temp\ccTXdst3.s 			page 19


 580 0078 9A42     		cmp	r2, r3
 581 007a 10D1     		bne	.L40
 284:C:/Users/dtjld/workspace/AIoT/src/LiteOS_Lab/iot_link/network/dtls/mbedtls/mbedtls-2.16.2/library\x509_crt.c ****         x509_memcasecmp( name->p + 1, cn + cn_idx, name->len - 1 ) == 0 )
 582              		.loc 2 284 0 discriminator 1
 583 007c 3B68     		ldr	r3, [r7]
 584 007e 9B68     		ldr	r3, [r3, #8]
 585 0080 581C     		adds	r0, r3, #1
 586 0082 7A68     		ldr	r2, [r7, #4]
 587 0084 3B69     		ldr	r3, [r7, #16]
 588 0086 D118     		adds	r1, r2, r3
 589 0088 3B68     		ldr	r3, [r7]
 590 008a 5B68     		ldr	r3, [r3, #4]
 591 008c 013B     		subs	r3, r3, #1
 592 008e 1A46     		mov	r2, r3
 593 0090 FFF7FEFF 		bl	x509_memcasecmp
 594 0094 0346     		mov	r3, r0
 283:C:/Users/dtjld/workspace/AIoT/src/LiteOS_Lab/iot_link/network/dtls/mbedtls/mbedtls-2.16.2/library\x509_crt.c ****         x509_memcasecmp( name->p + 1, cn + cn_idx, name->len - 1 ) == 0 )
 595              		.loc 2 283 0 discriminator 1
 596 0096 002B     		cmp	r3, #0
 597 0098 01D1     		bne	.L40
 285:C:/Users/dtjld/workspace/AIoT/src/LiteOS_Lab/iot_link/network/dtls/mbedtls/mbedtls-2.16.2/library\x509_crt.c ****     {
 286:C:/Users/dtjld/workspace/AIoT/src/LiteOS_Lab/iot_link/network/dtls/mbedtls/mbedtls-2.16.2/library\x509_crt.c ****         return( 0 );
 598              		.loc 2 286 0
 599 009a 0023     		movs	r3, #0
 600 009c 01E0     		b	.L34
 601              	.L40:
 287:C:/Users/dtjld/workspace/AIoT/src/LiteOS_Lab/iot_link/network/dtls/mbedtls/mbedtls-2.16.2/library\x509_crt.c ****     }
 288:C:/Users/dtjld/workspace/AIoT/src/LiteOS_Lab/iot_link/network/dtls/mbedtls/mbedtls-2.16.2/library\x509_crt.c **** 
 289:C:/Users/dtjld/workspace/AIoT/src/LiteOS_Lab/iot_link/network/dtls/mbedtls/mbedtls-2.16.2/library\x509_crt.c ****     return( -1 );
 602              		.loc 2 289 0
 603 009e 4FF0FF33 		mov	r3, #-1
 604              	.L34:
 290:C:/Users/dtjld/workspace/AIoT/src/LiteOS_Lab/iot_link/network/dtls/mbedtls/mbedtls-2.16.2/library\x509_crt.c **** }
 605              		.loc 2 290 0
 606 00a2 1846     		mov	r0, r3
 607 00a4 1837     		adds	r7, r7, #24
 608              	.LCFI32:
 609              		.cfi_def_cfa_offset 8
 610 00a6 BD46     		mov	sp, r7
 611              	.LCFI33:
 612              		.cfi_def_cfa_register 13
 613              		@ sp needed
 614 00a8 80BD     		pop	{r7, pc}
 615              		.cfi_endproc
 616              	.LFE17:
 618              		.section	.text.x509_string_cmp,"ax",%progbits
 619              		.align	1
 620              		.syntax unified
 621              		.thumb
 622              		.thumb_func
 623              		.fpu fpv4-sp-d16
 625              	x509_string_cmp:
 626              	.LFB18:
 291:C:/Users/dtjld/workspace/AIoT/src/LiteOS_Lab/iot_link/network/dtls/mbedtls/mbedtls-2.16.2/library\x509_crt.c **** 
 292:C:/Users/dtjld/workspace/AIoT/src/LiteOS_Lab/iot_link/network/dtls/mbedtls/mbedtls-2.16.2/library\x509_crt.c **** /*
 293:C:/Users/dtjld/workspace/AIoT/src/LiteOS_Lab/iot_link/network/dtls/mbedtls/mbedtls-2.16.2/library\x509_crt.c ****  * Compare two X.509 strings, case-insensitive, and allowing for some encoding
 294:C:/Users/dtjld/workspace/AIoT/src/LiteOS_Lab/iot_link/network/dtls/mbedtls/mbedtls-2.16.2/library\x509_crt.c ****  * variations (but not all).
ARM GAS  C:\Users\dtjld\AppData\Local\Temp\ccTXdst3.s 			page 20


 295:C:/Users/dtjld/workspace/AIoT/src/LiteOS_Lab/iot_link/network/dtls/mbedtls/mbedtls-2.16.2/library\x509_crt.c ****  *
 296:C:/Users/dtjld/workspace/AIoT/src/LiteOS_Lab/iot_link/network/dtls/mbedtls/mbedtls-2.16.2/library\x509_crt.c ****  * Return 0 if equal, -1 otherwise.
 297:C:/Users/dtjld/workspace/AIoT/src/LiteOS_Lab/iot_link/network/dtls/mbedtls/mbedtls-2.16.2/library\x509_crt.c ****  */
 298:C:/Users/dtjld/workspace/AIoT/src/LiteOS_Lab/iot_link/network/dtls/mbedtls/mbedtls-2.16.2/library\x509_crt.c **** static int x509_string_cmp( const mbedtls_x509_buf *a, const mbedtls_x509_buf *b )
 299:C:/Users/dtjld/workspace/AIoT/src/LiteOS_Lab/iot_link/network/dtls/mbedtls/mbedtls-2.16.2/library\x509_crt.c **** {
 627              		.loc 2 299 0
 628              		.cfi_startproc
 629              		@ args = 0, pretend = 0, frame = 8
 630              		@ frame_needed = 1, uses_anonymous_args = 0
 631 0000 80B5     		push	{r7, lr}
 632              	.LCFI34:
 633              		.cfi_def_cfa_offset 8
 634              		.cfi_offset 7, -8
 635              		.cfi_offset 14, -4
 636 0002 82B0     		sub	sp, sp, #8
 637              	.LCFI35:
 638              		.cfi_def_cfa_offset 16
 639 0004 00AF     		add	r7, sp, #0
 640              	.LCFI36:
 641              		.cfi_def_cfa_register 7
 642 0006 7860     		str	r0, [r7, #4]
 643 0008 3960     		str	r1, [r7]
 300:C:/Users/dtjld/workspace/AIoT/src/LiteOS_Lab/iot_link/network/dtls/mbedtls/mbedtls-2.16.2/library\x509_crt.c ****     if( a->tag == b->tag &&
 644              		.loc 2 300 0
 645 000a 7B68     		ldr	r3, [r7, #4]
 646 000c 1A68     		ldr	r2, [r3]
 647 000e 3B68     		ldr	r3, [r7]
 648 0010 1B68     		ldr	r3, [r3]
 649 0012 9A42     		cmp	r2, r3
 650 0014 13D1     		bne	.L42
 301:C:/Users/dtjld/workspace/AIoT/src/LiteOS_Lab/iot_link/network/dtls/mbedtls/mbedtls-2.16.2/library\x509_crt.c ****         a->len == b->len &&
 651              		.loc 2 301 0 discriminator 1
 652 0016 7B68     		ldr	r3, [r7, #4]
 653 0018 5A68     		ldr	r2, [r3, #4]
 654 001a 3B68     		ldr	r3, [r7]
 655 001c 5B68     		ldr	r3, [r3, #4]
 300:C:/Users/dtjld/workspace/AIoT/src/LiteOS_Lab/iot_link/network/dtls/mbedtls/mbedtls-2.16.2/library\x509_crt.c ****     if( a->tag == b->tag &&
 656              		.loc 2 300 0 discriminator 1
 657 001e 9A42     		cmp	r2, r3
 658 0020 0DD1     		bne	.L42
 302:C:/Users/dtjld/workspace/AIoT/src/LiteOS_Lab/iot_link/network/dtls/mbedtls/mbedtls-2.16.2/library\x509_crt.c ****         memcmp( a->p, b->p, b->len ) == 0 )
 659              		.loc 2 302 0
 660 0022 7B68     		ldr	r3, [r7, #4]
 661 0024 9868     		ldr	r0, [r3, #8]
 662 0026 3B68     		ldr	r3, [r7]
 663 0028 9968     		ldr	r1, [r3, #8]
 664 002a 3B68     		ldr	r3, [r7]
 665 002c 5B68     		ldr	r3, [r3, #4]
 666 002e 1A46     		mov	r2, r3
 667 0030 FFF7FEFF 		bl	memcmp
 668 0034 0346     		mov	r3, r0
 301:C:/Users/dtjld/workspace/AIoT/src/LiteOS_Lab/iot_link/network/dtls/mbedtls/mbedtls-2.16.2/library\x509_crt.c ****         a->len == b->len &&
 669              		.loc 2 301 0
 670 0036 002B     		cmp	r3, #0
 671 0038 01D1     		bne	.L42
 303:C:/Users/dtjld/workspace/AIoT/src/LiteOS_Lab/iot_link/network/dtls/mbedtls/mbedtls-2.16.2/library\x509_crt.c ****     {
 304:C:/Users/dtjld/workspace/AIoT/src/LiteOS_Lab/iot_link/network/dtls/mbedtls/mbedtls-2.16.2/library\x509_crt.c ****         return( 0 );
ARM GAS  C:\Users\dtjld\AppData\Local\Temp\ccTXdst3.s 			page 21


 672              		.loc 2 304 0
 673 003a 0023     		movs	r3, #0
 674 003c 25E0     		b	.L43
 675              	.L42:
 305:C:/Users/dtjld/workspace/AIoT/src/LiteOS_Lab/iot_link/network/dtls/mbedtls/mbedtls-2.16.2/library\x509_crt.c ****     }
 306:C:/Users/dtjld/workspace/AIoT/src/LiteOS_Lab/iot_link/network/dtls/mbedtls/mbedtls-2.16.2/library\x509_crt.c **** 
 307:C:/Users/dtjld/workspace/AIoT/src/LiteOS_Lab/iot_link/network/dtls/mbedtls/mbedtls-2.16.2/library\x509_crt.c ****     if( ( a->tag == MBEDTLS_ASN1_UTF8_STRING || a->tag == MBEDTLS_ASN1_PRINTABLE_STRING ) &&
 676              		.loc 2 307 0
 677 003e 7B68     		ldr	r3, [r7, #4]
 678 0040 1B68     		ldr	r3, [r3]
 679 0042 0C2B     		cmp	r3, #12
 680 0044 03D0     		beq	.L44
 681              		.loc 2 307 0 is_stmt 0 discriminator 2
 682 0046 7B68     		ldr	r3, [r7, #4]
 683 0048 1B68     		ldr	r3, [r3]
 684 004a 132B     		cmp	r3, #19
 685 004c 1BD1     		bne	.L45
 686              	.L44:
 308:C:/Users/dtjld/workspace/AIoT/src/LiteOS_Lab/iot_link/network/dtls/mbedtls/mbedtls-2.16.2/library\x509_crt.c ****         ( b->tag == MBEDTLS_ASN1_UTF8_STRING || b->tag == MBEDTLS_ASN1_PRINTABLE_STRING ) &&
 687              		.loc 2 308 0 is_stmt 1 discriminator 3
 688 004e 3B68     		ldr	r3, [r7]
 689 0050 1B68     		ldr	r3, [r3]
 307:C:/Users/dtjld/workspace/AIoT/src/LiteOS_Lab/iot_link/network/dtls/mbedtls/mbedtls-2.16.2/library\x509_crt.c ****         ( b->tag == MBEDTLS_ASN1_UTF8_STRING || b->tag == MBEDTLS_ASN1_PRINTABLE_STRING ) &&
 690              		.loc 2 307 0 discriminator 3
 691 0052 0C2B     		cmp	r3, #12
 692 0054 03D0     		beq	.L46
 693              		.loc 2 308 0
 694 0056 3B68     		ldr	r3, [r7]
 695 0058 1B68     		ldr	r3, [r3]
 696 005a 132B     		cmp	r3, #19
 697 005c 13D1     		bne	.L45
 698              	.L46:
 309:C:/Users/dtjld/workspace/AIoT/src/LiteOS_Lab/iot_link/network/dtls/mbedtls/mbedtls-2.16.2/library\x509_crt.c ****         a->len == b->len &&
 699              		.loc 2 309 0 discriminator 1
 700 005e 7B68     		ldr	r3, [r7, #4]
 701 0060 5A68     		ldr	r2, [r3, #4]
 702 0062 3B68     		ldr	r3, [r7]
 703 0064 5B68     		ldr	r3, [r3, #4]
 308:C:/Users/dtjld/workspace/AIoT/src/LiteOS_Lab/iot_link/network/dtls/mbedtls/mbedtls-2.16.2/library\x509_crt.c ****         ( b->tag == MBEDTLS_ASN1_UTF8_STRING || b->tag == MBEDTLS_ASN1_PRINTABLE_STRING ) &&
 704              		.loc 2 308 0 discriminator 1
 705 0066 9A42     		cmp	r2, r3
 706 0068 0DD1     		bne	.L45
 310:C:/Users/dtjld/workspace/AIoT/src/LiteOS_Lab/iot_link/network/dtls/mbedtls/mbedtls-2.16.2/library\x509_crt.c ****         x509_memcasecmp( a->p, b->p, b->len ) == 0 )
 707              		.loc 2 310 0
 708 006a 7B68     		ldr	r3, [r7, #4]
 709 006c 9868     		ldr	r0, [r3, #8]
 710 006e 3B68     		ldr	r3, [r7]
 711 0070 9968     		ldr	r1, [r3, #8]
 712 0072 3B68     		ldr	r3, [r7]
 713 0074 5B68     		ldr	r3, [r3, #4]
 714 0076 1A46     		mov	r2, r3
 715 0078 FFF7FEFF 		bl	x509_memcasecmp
 716 007c 0346     		mov	r3, r0
 309:C:/Users/dtjld/workspace/AIoT/src/LiteOS_Lab/iot_link/network/dtls/mbedtls/mbedtls-2.16.2/library\x509_crt.c ****         a->len == b->len &&
 717              		.loc 2 309 0
 718 007e 002B     		cmp	r3, #0
 719 0080 01D1     		bne	.L45
ARM GAS  C:\Users\dtjld\AppData\Local\Temp\ccTXdst3.s 			page 22


 311:C:/Users/dtjld/workspace/AIoT/src/LiteOS_Lab/iot_link/network/dtls/mbedtls/mbedtls-2.16.2/library\x509_crt.c ****     {
 312:C:/Users/dtjld/workspace/AIoT/src/LiteOS_Lab/iot_link/network/dtls/mbedtls/mbedtls-2.16.2/library\x509_crt.c ****         return( 0 );
 720              		.loc 2 312 0
 721 0082 0023     		movs	r3, #0
 722 0084 01E0     		b	.L43
 723              	.L45:
 313:C:/Users/dtjld/workspace/AIoT/src/LiteOS_Lab/iot_link/network/dtls/mbedtls/mbedtls-2.16.2/library\x509_crt.c ****     }
 314:C:/Users/dtjld/workspace/AIoT/src/LiteOS_Lab/iot_link/network/dtls/mbedtls/mbedtls-2.16.2/library\x509_crt.c **** 
 315:C:/Users/dtjld/workspace/AIoT/src/LiteOS_Lab/iot_link/network/dtls/mbedtls/mbedtls-2.16.2/library\x509_crt.c ****     return( -1 );
 724              		.loc 2 315 0
 725 0086 4FF0FF33 		mov	r3, #-1
 726              	.L43:
 316:C:/Users/dtjld/workspace/AIoT/src/LiteOS_Lab/iot_link/network/dtls/mbedtls/mbedtls-2.16.2/library\x509_crt.c **** }
 727              		.loc 2 316 0
 728 008a 1846     		mov	r0, r3
 729 008c 0837     		adds	r7, r7, #8
 730              	.LCFI37:
 731              		.cfi_def_cfa_offset 8
 732 008e BD46     		mov	sp, r7
 733              	.LCFI38:
 734              		.cfi_def_cfa_register 13
 735              		@ sp needed
 736 0090 80BD     		pop	{r7, pc}
 737              		.cfi_endproc
 738              	.LFE18:
 740              		.section	.text.x509_name_cmp,"ax",%progbits
 741              		.align	1
 742              		.syntax unified
 743              		.thumb
 744              		.thumb_func
 745              		.fpu fpv4-sp-d16
 747              	x509_name_cmp:
 748              	.LFB19:
 317:C:/Users/dtjld/workspace/AIoT/src/LiteOS_Lab/iot_link/network/dtls/mbedtls/mbedtls-2.16.2/library\x509_crt.c **** 
 318:C:/Users/dtjld/workspace/AIoT/src/LiteOS_Lab/iot_link/network/dtls/mbedtls/mbedtls-2.16.2/library\x509_crt.c **** /*
 319:C:/Users/dtjld/workspace/AIoT/src/LiteOS_Lab/iot_link/network/dtls/mbedtls/mbedtls-2.16.2/library\x509_crt.c ****  * Compare two X.509 Names (aka rdnSequence).
 320:C:/Users/dtjld/workspace/AIoT/src/LiteOS_Lab/iot_link/network/dtls/mbedtls/mbedtls-2.16.2/library\x509_crt.c ****  *
 321:C:/Users/dtjld/workspace/AIoT/src/LiteOS_Lab/iot_link/network/dtls/mbedtls/mbedtls-2.16.2/library\x509_crt.c ****  * See RFC 5280 section 7.1, though we don't implement the whole algorithm:
 322:C:/Users/dtjld/workspace/AIoT/src/LiteOS_Lab/iot_link/network/dtls/mbedtls/mbedtls-2.16.2/library\x509_crt.c ****  * we sometimes return unequal when the full algorithm would return equal,
 323:C:/Users/dtjld/workspace/AIoT/src/LiteOS_Lab/iot_link/network/dtls/mbedtls/mbedtls-2.16.2/library\x509_crt.c ****  * but never the other way. (In particular, we don't do Unicode normalisation
 324:C:/Users/dtjld/workspace/AIoT/src/LiteOS_Lab/iot_link/network/dtls/mbedtls/mbedtls-2.16.2/library\x509_crt.c ****  * or space folding.)
 325:C:/Users/dtjld/workspace/AIoT/src/LiteOS_Lab/iot_link/network/dtls/mbedtls/mbedtls-2.16.2/library\x509_crt.c ****  *
 326:C:/Users/dtjld/workspace/AIoT/src/LiteOS_Lab/iot_link/network/dtls/mbedtls/mbedtls-2.16.2/library\x509_crt.c ****  * Return 0 if equal, -1 otherwise.
 327:C:/Users/dtjld/workspace/AIoT/src/LiteOS_Lab/iot_link/network/dtls/mbedtls/mbedtls-2.16.2/library\x509_crt.c ****  */
 328:C:/Users/dtjld/workspace/AIoT/src/LiteOS_Lab/iot_link/network/dtls/mbedtls/mbedtls-2.16.2/library\x509_crt.c **** static int x509_name_cmp( const mbedtls_x509_name *a, const mbedtls_x509_name *b )
 329:C:/Users/dtjld/workspace/AIoT/src/LiteOS_Lab/iot_link/network/dtls/mbedtls/mbedtls-2.16.2/library\x509_crt.c **** {
 749              		.loc 2 329 0
 750              		.cfi_startproc
 751              		@ args = 0, pretend = 0, frame = 8
 752              		@ frame_needed = 1, uses_anonymous_args = 0
 753 0000 80B5     		push	{r7, lr}
 754              	.LCFI39:
 755              		.cfi_def_cfa_offset 8
 756              		.cfi_offset 7, -8
 757              		.cfi_offset 14, -4
 758 0002 82B0     		sub	sp, sp, #8
 759              	.LCFI40:
ARM GAS  C:\Users\dtjld\AppData\Local\Temp\ccTXdst3.s 			page 23


 760              		.cfi_def_cfa_offset 16
 761 0004 00AF     		add	r7, sp, #0
 762              	.LCFI41:
 763              		.cfi_def_cfa_register 7
 764 0006 7860     		str	r0, [r7, #4]
 765 0008 3960     		str	r1, [r7]
 330:C:/Users/dtjld/workspace/AIoT/src/LiteOS_Lab/iot_link/network/dtls/mbedtls/mbedtls-2.16.2/library\x509_crt.c ****     /* Avoid recursion, it might not be optimised by the compiler */
 331:C:/Users/dtjld/workspace/AIoT/src/LiteOS_Lab/iot_link/network/dtls/mbedtls/mbedtls-2.16.2/library\x509_crt.c ****     while( a != NULL || b != NULL )
 766              		.loc 2 331 0
 767 000a 41E0     		b	.L48
 768              	.L56:
 332:C:/Users/dtjld/workspace/AIoT/src/LiteOS_Lab/iot_link/network/dtls/mbedtls/mbedtls-2.16.2/library\x509_crt.c ****     {
 333:C:/Users/dtjld/workspace/AIoT/src/LiteOS_Lab/iot_link/network/dtls/mbedtls/mbedtls-2.16.2/library\x509_crt.c ****         if( a == NULL || b == NULL )
 769              		.loc 2 333 0
 770 000c 7B68     		ldr	r3, [r7, #4]
 771 000e 002B     		cmp	r3, #0
 772 0010 02D0     		beq	.L49
 773              		.loc 2 333 0 is_stmt 0 discriminator 1
 774 0012 3B68     		ldr	r3, [r7]
 775 0014 002B     		cmp	r3, #0
 776 0016 02D1     		bne	.L50
 777              	.L49:
 334:C:/Users/dtjld/workspace/AIoT/src/LiteOS_Lab/iot_link/network/dtls/mbedtls/mbedtls-2.16.2/library\x509_crt.c ****             return( -1 );
 778              		.loc 2 334 0 is_stmt 1
 779 0018 4FF0FF33 		mov	r3, #-1
 780 001c 3FE0     		b	.L51
 781              	.L50:
 335:C:/Users/dtjld/workspace/AIoT/src/LiteOS_Lab/iot_link/network/dtls/mbedtls/mbedtls-2.16.2/library\x509_crt.c **** 
 336:C:/Users/dtjld/workspace/AIoT/src/LiteOS_Lab/iot_link/network/dtls/mbedtls/mbedtls-2.16.2/library\x509_crt.c ****         /* type */
 337:C:/Users/dtjld/workspace/AIoT/src/LiteOS_Lab/iot_link/network/dtls/mbedtls/mbedtls-2.16.2/library\x509_crt.c ****         if( a->oid.tag != b->oid.tag ||
 782              		.loc 2 337 0
 783 001e 7B68     		ldr	r3, [r7, #4]
 784 0020 1A68     		ldr	r2, [r3]
 785 0022 3B68     		ldr	r3, [r7]
 786 0024 1B68     		ldr	r3, [r3]
 787 0026 9A42     		cmp	r2, r3
 788 0028 11D1     		bne	.L52
 338:C:/Users/dtjld/workspace/AIoT/src/LiteOS_Lab/iot_link/network/dtls/mbedtls/mbedtls-2.16.2/library\x509_crt.c ****             a->oid.len != b->oid.len ||
 789              		.loc 2 338 0 discriminator 1
 790 002a 7B68     		ldr	r3, [r7, #4]
 791 002c 5A68     		ldr	r2, [r3, #4]
 792 002e 3B68     		ldr	r3, [r7]
 793 0030 5B68     		ldr	r3, [r3, #4]
 337:C:/Users/dtjld/workspace/AIoT/src/LiteOS_Lab/iot_link/network/dtls/mbedtls/mbedtls-2.16.2/library\x509_crt.c ****             a->oid.len != b->oid.len ||
 794              		.loc 2 337 0 discriminator 1
 795 0032 9A42     		cmp	r2, r3
 796 0034 0BD1     		bne	.L52
 339:C:/Users/dtjld/workspace/AIoT/src/LiteOS_Lab/iot_link/network/dtls/mbedtls/mbedtls-2.16.2/library\x509_crt.c ****             memcmp( a->oid.p, b->oid.p, b->oid.len ) != 0 )
 797              		.loc 2 339 0
 798 0036 7B68     		ldr	r3, [r7, #4]
 799 0038 9868     		ldr	r0, [r3, #8]
 800 003a 3B68     		ldr	r3, [r7]
 801 003c 9968     		ldr	r1, [r3, #8]
 802 003e 3B68     		ldr	r3, [r7]
 803 0040 5B68     		ldr	r3, [r3, #4]
 804 0042 1A46     		mov	r2, r3
 805 0044 FFF7FEFF 		bl	memcmp
ARM GAS  C:\Users\dtjld\AppData\Local\Temp\ccTXdst3.s 			page 24


 806 0048 0346     		mov	r3, r0
 338:C:/Users/dtjld/workspace/AIoT/src/LiteOS_Lab/iot_link/network/dtls/mbedtls/mbedtls-2.16.2/library\x509_crt.c ****             a->oid.len != b->oid.len ||
 807              		.loc 2 338 0
 808 004a 002B     		cmp	r3, #0
 809 004c 02D0     		beq	.L53
 810              	.L52:
 340:C:/Users/dtjld/workspace/AIoT/src/LiteOS_Lab/iot_link/network/dtls/mbedtls/mbedtls-2.16.2/library\x509_crt.c ****         {
 341:C:/Users/dtjld/workspace/AIoT/src/LiteOS_Lab/iot_link/network/dtls/mbedtls/mbedtls-2.16.2/library\x509_crt.c ****             return( -1 );
 811              		.loc 2 341 0
 812 004e 4FF0FF33 		mov	r3, #-1
 813 0052 24E0     		b	.L51
 814              	.L53:
 342:C:/Users/dtjld/workspace/AIoT/src/LiteOS_Lab/iot_link/network/dtls/mbedtls/mbedtls-2.16.2/library\x509_crt.c ****         }
 343:C:/Users/dtjld/workspace/AIoT/src/LiteOS_Lab/iot_link/network/dtls/mbedtls/mbedtls-2.16.2/library\x509_crt.c **** 
 344:C:/Users/dtjld/workspace/AIoT/src/LiteOS_Lab/iot_link/network/dtls/mbedtls/mbedtls-2.16.2/library\x509_crt.c ****         /* value */
 345:C:/Users/dtjld/workspace/AIoT/src/LiteOS_Lab/iot_link/network/dtls/mbedtls/mbedtls-2.16.2/library\x509_crt.c ****         if( x509_string_cmp( &a->val, &b->val ) != 0 )
 815              		.loc 2 345 0
 816 0054 7B68     		ldr	r3, [r7, #4]
 817 0056 03F10C02 		add	r2, r3, #12
 818 005a 3B68     		ldr	r3, [r7]
 819 005c 0C33     		adds	r3, r3, #12
 820 005e 1946     		mov	r1, r3
 821 0060 1046     		mov	r0, r2
 822 0062 FFF7FEFF 		bl	x509_string_cmp
 823 0066 0346     		mov	r3, r0
 824 0068 002B     		cmp	r3, #0
 825 006a 02D0     		beq	.L54
 346:C:/Users/dtjld/workspace/AIoT/src/LiteOS_Lab/iot_link/network/dtls/mbedtls/mbedtls-2.16.2/library\x509_crt.c ****             return( -1 );
 826              		.loc 2 346 0
 827 006c 4FF0FF33 		mov	r3, #-1
 828 0070 15E0     		b	.L51
 829              	.L54:
 347:C:/Users/dtjld/workspace/AIoT/src/LiteOS_Lab/iot_link/network/dtls/mbedtls/mbedtls-2.16.2/library\x509_crt.c **** 
 348:C:/Users/dtjld/workspace/AIoT/src/LiteOS_Lab/iot_link/network/dtls/mbedtls/mbedtls-2.16.2/library\x509_crt.c ****         /* structure of the list of sets */
 349:C:/Users/dtjld/workspace/AIoT/src/LiteOS_Lab/iot_link/network/dtls/mbedtls/mbedtls-2.16.2/library\x509_crt.c ****         if( a->next_merged != b->next_merged )
 830              		.loc 2 349 0
 831 0072 7B68     		ldr	r3, [r7, #4]
 832 0074 1A7F     		ldrb	r2, [r3, #28]	@ zero_extendqisi2
 833 0076 3B68     		ldr	r3, [r7]
 834 0078 1B7F     		ldrb	r3, [r3, #28]	@ zero_extendqisi2
 835 007a 9A42     		cmp	r2, r3
 836 007c 02D0     		beq	.L55
 350:C:/Users/dtjld/workspace/AIoT/src/LiteOS_Lab/iot_link/network/dtls/mbedtls/mbedtls-2.16.2/library\x509_crt.c ****             return( -1 );
 837              		.loc 2 350 0
 838 007e 4FF0FF33 		mov	r3, #-1
 839 0082 0CE0     		b	.L51
 840              	.L55:
 351:C:/Users/dtjld/workspace/AIoT/src/LiteOS_Lab/iot_link/network/dtls/mbedtls/mbedtls-2.16.2/library\x509_crt.c **** 
 352:C:/Users/dtjld/workspace/AIoT/src/LiteOS_Lab/iot_link/network/dtls/mbedtls/mbedtls-2.16.2/library\x509_crt.c ****         a = a->next;
 841              		.loc 2 352 0
 842 0084 7B68     		ldr	r3, [r7, #4]
 843 0086 9B69     		ldr	r3, [r3, #24]
 844 0088 7B60     		str	r3, [r7, #4]
 353:C:/Users/dtjld/workspace/AIoT/src/LiteOS_Lab/iot_link/network/dtls/mbedtls/mbedtls-2.16.2/library\x509_crt.c ****         b = b->next;
 845              		.loc 2 353 0
 846 008a 3B68     		ldr	r3, [r7]
 847 008c 9B69     		ldr	r3, [r3, #24]
ARM GAS  C:\Users\dtjld\AppData\Local\Temp\ccTXdst3.s 			page 25


 848 008e 3B60     		str	r3, [r7]
 849              	.L48:
 331:C:/Users/dtjld/workspace/AIoT/src/LiteOS_Lab/iot_link/network/dtls/mbedtls/mbedtls-2.16.2/library\x509_crt.c ****     {
 850              		.loc 2 331 0
 851 0090 7B68     		ldr	r3, [r7, #4]
 852 0092 002B     		cmp	r3, #0
 853 0094 BAD1     		bne	.L56
 331:C:/Users/dtjld/workspace/AIoT/src/LiteOS_Lab/iot_link/network/dtls/mbedtls/mbedtls-2.16.2/library\x509_crt.c ****     {
 854              		.loc 2 331 0 is_stmt 0 discriminator 1
 855 0096 3B68     		ldr	r3, [r7]
 856 0098 002B     		cmp	r3, #0
 857 009a B7D1     		bne	.L56
 354:C:/Users/dtjld/workspace/AIoT/src/LiteOS_Lab/iot_link/network/dtls/mbedtls/mbedtls-2.16.2/library\x509_crt.c ****     }
 355:C:/Users/dtjld/workspace/AIoT/src/LiteOS_Lab/iot_link/network/dtls/mbedtls/mbedtls-2.16.2/library\x509_crt.c **** 
 356:C:/Users/dtjld/workspace/AIoT/src/LiteOS_Lab/iot_link/network/dtls/mbedtls/mbedtls-2.16.2/library\x509_crt.c ****     /* a == NULL == b */
 357:C:/Users/dtjld/workspace/AIoT/src/LiteOS_Lab/iot_link/network/dtls/mbedtls/mbedtls-2.16.2/library\x509_crt.c ****     return( 0 );
 858              		.loc 2 357 0 is_stmt 1
 859 009c 0023     		movs	r3, #0
 860              	.L51:
 358:C:/Users/dtjld/workspace/AIoT/src/LiteOS_Lab/iot_link/network/dtls/mbedtls/mbedtls-2.16.2/library\x509_crt.c **** }
 861              		.loc 2 358 0
 862 009e 1846     		mov	r0, r3
 863 00a0 0837     		adds	r7, r7, #8
 864              	.LCFI42:
 865              		.cfi_def_cfa_offset 8
 866 00a2 BD46     		mov	sp, r7
 867              	.LCFI43:
 868              		.cfi_def_cfa_register 13
 869              		@ sp needed
 870 00a4 80BD     		pop	{r7, pc}
 871              		.cfi_endproc
 872              	.LFE19:
 874              		.section	.text.x509_crt_verify_chain_reset,"ax",%progbits
 875              		.align	1
 876              		.syntax unified
 877              		.thumb
 878              		.thumb_func
 879              		.fpu fpv4-sp-d16
 881              	x509_crt_verify_chain_reset:
 882              	.LFB20:
 359:C:/Users/dtjld/workspace/AIoT/src/LiteOS_Lab/iot_link/network/dtls/mbedtls/mbedtls-2.16.2/library\x509_crt.c **** 
 360:C:/Users/dtjld/workspace/AIoT/src/LiteOS_Lab/iot_link/network/dtls/mbedtls/mbedtls-2.16.2/library\x509_crt.c **** /*
 361:C:/Users/dtjld/workspace/AIoT/src/LiteOS_Lab/iot_link/network/dtls/mbedtls/mbedtls-2.16.2/library\x509_crt.c ****  * Reset (init or clear) a verify_chain
 362:C:/Users/dtjld/workspace/AIoT/src/LiteOS_Lab/iot_link/network/dtls/mbedtls/mbedtls-2.16.2/library\x509_crt.c ****  */
 363:C:/Users/dtjld/workspace/AIoT/src/LiteOS_Lab/iot_link/network/dtls/mbedtls/mbedtls-2.16.2/library\x509_crt.c **** static void x509_crt_verify_chain_reset(
 364:C:/Users/dtjld/workspace/AIoT/src/LiteOS_Lab/iot_link/network/dtls/mbedtls/mbedtls-2.16.2/library\x509_crt.c ****     mbedtls_x509_crt_verify_chain *ver_chain )
 365:C:/Users/dtjld/workspace/AIoT/src/LiteOS_Lab/iot_link/network/dtls/mbedtls/mbedtls-2.16.2/library\x509_crt.c **** {
 883              		.loc 2 365 0
 884              		.cfi_startproc
 885              		@ args = 0, pretend = 0, frame = 16
 886              		@ frame_needed = 1, uses_anonymous_args = 0
 887              		@ link register save eliminated.
 888 0000 80B4     		push	{r7}
 889              	.LCFI44:
 890              		.cfi_def_cfa_offset 4
 891              		.cfi_offset 7, -4
 892 0002 85B0     		sub	sp, sp, #20
ARM GAS  C:\Users\dtjld\AppData\Local\Temp\ccTXdst3.s 			page 26


 893              	.LCFI45:
 894              		.cfi_def_cfa_offset 24
 895 0004 00AF     		add	r7, sp, #0
 896              	.LCFI46:
 897              		.cfi_def_cfa_register 7
 898 0006 7860     		str	r0, [r7, #4]
 366:C:/Users/dtjld/workspace/AIoT/src/LiteOS_Lab/iot_link/network/dtls/mbedtls/mbedtls-2.16.2/library\x509_crt.c ****     size_t i;
 367:C:/Users/dtjld/workspace/AIoT/src/LiteOS_Lab/iot_link/network/dtls/mbedtls/mbedtls-2.16.2/library\x509_crt.c **** 
 368:C:/Users/dtjld/workspace/AIoT/src/LiteOS_Lab/iot_link/network/dtls/mbedtls/mbedtls-2.16.2/library\x509_crt.c ****     for( i = 0; i < MBEDTLS_X509_MAX_VERIFY_CHAIN_SIZE; i++ )
 899              		.loc 2 368 0
 900 0008 0023     		movs	r3, #0
 901 000a FB60     		str	r3, [r7, #12]
 902 000c 0EE0     		b	.L58
 903              	.L59:
 369:C:/Users/dtjld/workspace/AIoT/src/LiteOS_Lab/iot_link/network/dtls/mbedtls/mbedtls-2.16.2/library\x509_crt.c ****     {
 370:C:/Users/dtjld/workspace/AIoT/src/LiteOS_Lab/iot_link/network/dtls/mbedtls/mbedtls-2.16.2/library\x509_crt.c ****         ver_chain->items[i].crt = NULL;
 904              		.loc 2 370 0 discriminator 3
 905 000e 7B68     		ldr	r3, [r7, #4]
 906 0010 FA68     		ldr	r2, [r7, #12]
 907 0012 0021     		movs	r1, #0
 908 0014 43F83210 		str	r1, [r3, r2, lsl #3]
 371:C:/Users/dtjld/workspace/AIoT/src/LiteOS_Lab/iot_link/network/dtls/mbedtls/mbedtls-2.16.2/library\x509_crt.c ****         ver_chain->items[i].flags = (uint32_t) -1;
 909              		.loc 2 371 0 discriminator 3
 910 0018 7A68     		ldr	r2, [r7, #4]
 911 001a FB68     		ldr	r3, [r7, #12]
 912 001c DB00     		lsls	r3, r3, #3
 913 001e 1344     		add	r3, r3, r2
 914 0020 4FF0FF32 		mov	r2, #-1
 915 0024 5A60     		str	r2, [r3, #4]
 368:C:/Users/dtjld/workspace/AIoT/src/LiteOS_Lab/iot_link/network/dtls/mbedtls/mbedtls-2.16.2/library\x509_crt.c ****     {
 916              		.loc 2 368 0 discriminator 3
 917 0026 FB68     		ldr	r3, [r7, #12]
 918 0028 0133     		adds	r3, r3, #1
 919 002a FB60     		str	r3, [r7, #12]
 920              	.L58:
 368:C:/Users/dtjld/workspace/AIoT/src/LiteOS_Lab/iot_link/network/dtls/mbedtls/mbedtls-2.16.2/library\x509_crt.c ****     {
 921              		.loc 2 368 0 is_stmt 0 discriminator 1
 922 002c FB68     		ldr	r3, [r7, #12]
 923 002e 092B     		cmp	r3, #9
 924 0030 EDD9     		bls	.L59
 372:C:/Users/dtjld/workspace/AIoT/src/LiteOS_Lab/iot_link/network/dtls/mbedtls/mbedtls-2.16.2/library\x509_crt.c ****     }
 373:C:/Users/dtjld/workspace/AIoT/src/LiteOS_Lab/iot_link/network/dtls/mbedtls/mbedtls-2.16.2/library\x509_crt.c **** 
 374:C:/Users/dtjld/workspace/AIoT/src/LiteOS_Lab/iot_link/network/dtls/mbedtls/mbedtls-2.16.2/library\x509_crt.c ****     ver_chain->len = 0;
 925              		.loc 2 374 0 is_stmt 1
 926 0032 7B68     		ldr	r3, [r7, #4]
 927 0034 0022     		movs	r2, #0
 928 0036 1A65     		str	r2, [r3, #80]
 375:C:/Users/dtjld/workspace/AIoT/src/LiteOS_Lab/iot_link/network/dtls/mbedtls/mbedtls-2.16.2/library\x509_crt.c **** }
 929              		.loc 2 375 0
 930 0038 00BF     		nop
 931 003a 1437     		adds	r7, r7, #20
 932              	.LCFI47:
 933              		.cfi_def_cfa_offset 4
 934 003c BD46     		mov	sp, r7
 935              	.LCFI48:
 936              		.cfi_def_cfa_register 13
 937              		@ sp needed
ARM GAS  C:\Users\dtjld\AppData\Local\Temp\ccTXdst3.s 			page 27


 938 003e 5DF8047B 		ldr	r7, [sp], #4
 939              	.LCFI49:
 940              		.cfi_restore 7
 941              		.cfi_def_cfa_offset 0
 942 0042 7047     		bx	lr
 943              		.cfi_endproc
 944              	.LFE20:
 946              		.section	.text.x509_get_version,"ax",%progbits
 947              		.align	1
 948              		.syntax unified
 949              		.thumb
 950              		.thumb_func
 951              		.fpu fpv4-sp-d16
 953              	x509_get_version:
 954              	.LFB21:
 376:C:/Users/dtjld/workspace/AIoT/src/LiteOS_Lab/iot_link/network/dtls/mbedtls/mbedtls-2.16.2/library\x509_crt.c **** 
 377:C:/Users/dtjld/workspace/AIoT/src/LiteOS_Lab/iot_link/network/dtls/mbedtls/mbedtls-2.16.2/library\x509_crt.c **** /*
 378:C:/Users/dtjld/workspace/AIoT/src/LiteOS_Lab/iot_link/network/dtls/mbedtls/mbedtls-2.16.2/library\x509_crt.c ****  *  Version  ::=  INTEGER  {  v1(0), v2(1), v3(2)  }
 379:C:/Users/dtjld/workspace/AIoT/src/LiteOS_Lab/iot_link/network/dtls/mbedtls/mbedtls-2.16.2/library\x509_crt.c ****  */
 380:C:/Users/dtjld/workspace/AIoT/src/LiteOS_Lab/iot_link/network/dtls/mbedtls/mbedtls-2.16.2/library\x509_crt.c **** static int x509_get_version( unsigned char **p,
 381:C:/Users/dtjld/workspace/AIoT/src/LiteOS_Lab/iot_link/network/dtls/mbedtls/mbedtls-2.16.2/library\x509_crt.c ****                              const unsigned char *end,
 382:C:/Users/dtjld/workspace/AIoT/src/LiteOS_Lab/iot_link/network/dtls/mbedtls/mbedtls-2.16.2/library\x509_crt.c ****                              int *ver )
 383:C:/Users/dtjld/workspace/AIoT/src/LiteOS_Lab/iot_link/network/dtls/mbedtls/mbedtls-2.16.2/library\x509_crt.c **** {
 955              		.loc 2 383 0
 956              		.cfi_startproc
 957              		@ args = 0, pretend = 0, frame = 24
 958              		@ frame_needed = 1, uses_anonymous_args = 0
 959 0000 80B5     		push	{r7, lr}
 960              	.LCFI50:
 961              		.cfi_def_cfa_offset 8
 962              		.cfi_offset 7, -8
 963              		.cfi_offset 14, -4
 964 0002 86B0     		sub	sp, sp, #24
 965              	.LCFI51:
 966              		.cfi_def_cfa_offset 32
 967 0004 00AF     		add	r7, sp, #0
 968              	.LCFI52:
 969              		.cfi_def_cfa_register 7
 970 0006 F860     		str	r0, [r7, #12]
 971 0008 B960     		str	r1, [r7, #8]
 972 000a 7A60     		str	r2, [r7, #4]
 384:C:/Users/dtjld/workspace/AIoT/src/LiteOS_Lab/iot_link/network/dtls/mbedtls/mbedtls-2.16.2/library\x509_crt.c ****     int ret;
 385:C:/Users/dtjld/workspace/AIoT/src/LiteOS_Lab/iot_link/network/dtls/mbedtls/mbedtls-2.16.2/library\x509_crt.c ****     size_t len;
 386:C:/Users/dtjld/workspace/AIoT/src/LiteOS_Lab/iot_link/network/dtls/mbedtls/mbedtls-2.16.2/library\x509_crt.c **** 
 387:C:/Users/dtjld/workspace/AIoT/src/LiteOS_Lab/iot_link/network/dtls/mbedtls/mbedtls-2.16.2/library\x509_crt.c ****     if( ( ret = mbedtls_asn1_get_tag( p, end, &len,
 973              		.loc 2 387 0
 974 000c 07F11002 		add	r2, r7, #16
 975 0010 A023     		movs	r3, #160
 976 0012 B968     		ldr	r1, [r7, #8]
 977 0014 F868     		ldr	r0, [r7, #12]
 978 0016 FFF7FEFF 		bl	mbedtls_asn1_get_tag
 979 001a 7861     		str	r0, [r7, #20]
 980 001c 7B69     		ldr	r3, [r7, #20]
 981 001e 002B     		cmp	r3, #0
 982 0020 0CD0     		beq	.L61
 388:C:/Users/dtjld/workspace/AIoT/src/LiteOS_Lab/iot_link/network/dtls/mbedtls/mbedtls-2.16.2/library\x509_crt.c ****             MBEDTLS_ASN1_CONTEXT_SPECIFIC | MBEDTLS_ASN1_CONSTRUCTED | 0 ) ) != 0 )
 389:C:/Users/dtjld/workspace/AIoT/src/LiteOS_Lab/iot_link/network/dtls/mbedtls/mbedtls-2.16.2/library\x509_crt.c ****     {
ARM GAS  C:\Users\dtjld\AppData\Local\Temp\ccTXdst3.s 			page 28


 390:C:/Users/dtjld/workspace/AIoT/src/LiteOS_Lab/iot_link/network/dtls/mbedtls/mbedtls-2.16.2/library\x509_crt.c ****         if( ret == MBEDTLS_ERR_ASN1_UNEXPECTED_TAG )
 983              		.loc 2 390 0
 984 0022 7B69     		ldr	r3, [r7, #20]
 985 0024 13F1620F 		cmn	r3, #98
 986 0028 04D1     		bne	.L62
 391:C:/Users/dtjld/workspace/AIoT/src/LiteOS_Lab/iot_link/network/dtls/mbedtls/mbedtls-2.16.2/library\x509_crt.c ****         {
 392:C:/Users/dtjld/workspace/AIoT/src/LiteOS_Lab/iot_link/network/dtls/mbedtls/mbedtls-2.16.2/library\x509_crt.c ****             *ver = 0;
 987              		.loc 2 392 0
 988 002a 7B68     		ldr	r3, [r7, #4]
 989 002c 0022     		movs	r2, #0
 990 002e 1A60     		str	r2, [r3]
 393:C:/Users/dtjld/workspace/AIoT/src/LiteOS_Lab/iot_link/network/dtls/mbedtls/mbedtls-2.16.2/library\x509_crt.c ****             return( 0 );
 991              		.loc 2 393 0
 992 0030 0023     		movs	r3, #0
 993 0032 1DE0     		b	.L66
 994              	.L62:
 394:C:/Users/dtjld/workspace/AIoT/src/LiteOS_Lab/iot_link/network/dtls/mbedtls/mbedtls-2.16.2/library\x509_crt.c ****         }
 395:C:/Users/dtjld/workspace/AIoT/src/LiteOS_Lab/iot_link/network/dtls/mbedtls/mbedtls-2.16.2/library\x509_crt.c **** 
 396:C:/Users/dtjld/workspace/AIoT/src/LiteOS_Lab/iot_link/network/dtls/mbedtls/mbedtls-2.16.2/library\x509_crt.c ****         return( MBEDTLS_ERR_X509_INVALID_FORMAT + ret );
 995              		.loc 2 396 0
 996 0034 7B69     		ldr	r3, [r7, #20]
 997 0036 A3F50653 		sub	r3, r3, #8576
 998 003a 19E0     		b	.L66
 999              	.L61:
 397:C:/Users/dtjld/workspace/AIoT/src/LiteOS_Lab/iot_link/network/dtls/mbedtls/mbedtls-2.16.2/library\x509_crt.c ****     }
 398:C:/Users/dtjld/workspace/AIoT/src/LiteOS_Lab/iot_link/network/dtls/mbedtls/mbedtls-2.16.2/library\x509_crt.c **** 
 399:C:/Users/dtjld/workspace/AIoT/src/LiteOS_Lab/iot_link/network/dtls/mbedtls/mbedtls-2.16.2/library\x509_crt.c ****     end = *p + len;
 1000              		.loc 2 399 0
 1001 003c FB68     		ldr	r3, [r7, #12]
 1002 003e 1A68     		ldr	r2, [r3]
 1003 0040 3B69     		ldr	r3, [r7, #16]
 1004 0042 1344     		add	r3, r3, r2
 1005 0044 BB60     		str	r3, [r7, #8]
 400:C:/Users/dtjld/workspace/AIoT/src/LiteOS_Lab/iot_link/network/dtls/mbedtls/mbedtls-2.16.2/library\x509_crt.c **** 
 401:C:/Users/dtjld/workspace/AIoT/src/LiteOS_Lab/iot_link/network/dtls/mbedtls/mbedtls-2.16.2/library\x509_crt.c ****     if( ( ret = mbedtls_asn1_get_int( p, end, ver ) ) != 0 )
 1006              		.loc 2 401 0
 1007 0046 7A68     		ldr	r2, [r7, #4]
 1008 0048 B968     		ldr	r1, [r7, #8]
 1009 004a F868     		ldr	r0, [r7, #12]
 1010 004c FFF7FEFF 		bl	mbedtls_asn1_get_int
 1011 0050 7861     		str	r0, [r7, #20]
 1012 0052 7B69     		ldr	r3, [r7, #20]
 1013 0054 002B     		cmp	r3, #0
 1014 0056 03D0     		beq	.L64
 402:C:/Users/dtjld/workspace/AIoT/src/LiteOS_Lab/iot_link/network/dtls/mbedtls/mbedtls-2.16.2/library\x509_crt.c ****         return( MBEDTLS_ERR_X509_INVALID_VERSION + ret );
 1015              		.loc 2 402 0
 1016 0058 7B69     		ldr	r3, [r7, #20]
 1017 005a A3F50853 		sub	r3, r3, #8704
 1018 005e 07E0     		b	.L66
 1019              	.L64:
 403:C:/Users/dtjld/workspace/AIoT/src/LiteOS_Lab/iot_link/network/dtls/mbedtls/mbedtls-2.16.2/library\x509_crt.c **** 
 404:C:/Users/dtjld/workspace/AIoT/src/LiteOS_Lab/iot_link/network/dtls/mbedtls/mbedtls-2.16.2/library\x509_crt.c ****     if( *p != end )
 1020              		.loc 2 404 0
 1021 0060 FB68     		ldr	r3, [r7, #12]
 1022 0062 1B68     		ldr	r3, [r3]
 1023 0064 BA68     		ldr	r2, [r7, #8]
 1024 0066 9A42     		cmp	r2, r3
ARM GAS  C:\Users\dtjld\AppData\Local\Temp\ccTXdst3.s 			page 29


 1025 0068 01D0     		beq	.L65
 405:C:/Users/dtjld/workspace/AIoT/src/LiteOS_Lab/iot_link/network/dtls/mbedtls/mbedtls-2.16.2/library\x509_crt.c ****         return( MBEDTLS_ERR_X509_INVALID_VERSION +
 1026              		.loc 2 405 0
 1027 006a 034B     		ldr	r3, .L67
 1028 006c 00E0     		b	.L66
 1029              	.L65:
 406:C:/Users/dtjld/workspace/AIoT/src/LiteOS_Lab/iot_link/network/dtls/mbedtls/mbedtls-2.16.2/library\x509_crt.c ****                 MBEDTLS_ERR_ASN1_LENGTH_MISMATCH );
 407:C:/Users/dtjld/workspace/AIoT/src/LiteOS_Lab/iot_link/network/dtls/mbedtls/mbedtls-2.16.2/library\x509_crt.c **** 
 408:C:/Users/dtjld/workspace/AIoT/src/LiteOS_Lab/iot_link/network/dtls/mbedtls/mbedtls-2.16.2/library\x509_crt.c ****     return( 0 );
 1030              		.loc 2 408 0
 1031 006e 0023     		movs	r3, #0
 1032              	.L66:
 409:C:/Users/dtjld/workspace/AIoT/src/LiteOS_Lab/iot_link/network/dtls/mbedtls/mbedtls-2.16.2/library\x509_crt.c **** }
 1033              		.loc 2 409 0 discriminator 1
 1034 0070 1846     		mov	r0, r3
 1035 0072 1837     		adds	r7, r7, #24
 1036              	.LCFI53:
 1037              		.cfi_def_cfa_offset 8
 1038 0074 BD46     		mov	sp, r7
 1039              	.LCFI54:
 1040              		.cfi_def_cfa_register 13
 1041              		@ sp needed
 1042 0076 80BD     		pop	{r7, pc}
 1043              	.L68:
 1044              		.align	2
 1045              	.L67:
 1046 0078 9ADDFFFF 		.word	-8806
 1047              		.cfi_endproc
 1048              	.LFE21:
 1050              		.section	.text.x509_get_dates,"ax",%progbits
 1051              		.align	1
 1052              		.syntax unified
 1053              		.thumb
 1054              		.thumb_func
 1055              		.fpu fpv4-sp-d16
 1057              	x509_get_dates:
 1058              	.LFB22:
 410:C:/Users/dtjld/workspace/AIoT/src/LiteOS_Lab/iot_link/network/dtls/mbedtls/mbedtls-2.16.2/library\x509_crt.c **** 
 411:C:/Users/dtjld/workspace/AIoT/src/LiteOS_Lab/iot_link/network/dtls/mbedtls/mbedtls-2.16.2/library\x509_crt.c **** /*
 412:C:/Users/dtjld/workspace/AIoT/src/LiteOS_Lab/iot_link/network/dtls/mbedtls/mbedtls-2.16.2/library\x509_crt.c ****  *  Validity ::= SEQUENCE {
 413:C:/Users/dtjld/workspace/AIoT/src/LiteOS_Lab/iot_link/network/dtls/mbedtls/mbedtls-2.16.2/library\x509_crt.c ****  *       notBefore      Time,
 414:C:/Users/dtjld/workspace/AIoT/src/LiteOS_Lab/iot_link/network/dtls/mbedtls/mbedtls-2.16.2/library\x509_crt.c ****  *       notAfter       Time }
 415:C:/Users/dtjld/workspace/AIoT/src/LiteOS_Lab/iot_link/network/dtls/mbedtls/mbedtls-2.16.2/library\x509_crt.c ****  */
 416:C:/Users/dtjld/workspace/AIoT/src/LiteOS_Lab/iot_link/network/dtls/mbedtls/mbedtls-2.16.2/library\x509_crt.c **** static int x509_get_dates( unsigned char **p,
 417:C:/Users/dtjld/workspace/AIoT/src/LiteOS_Lab/iot_link/network/dtls/mbedtls/mbedtls-2.16.2/library\x509_crt.c ****                            const unsigned char *end,
 418:C:/Users/dtjld/workspace/AIoT/src/LiteOS_Lab/iot_link/network/dtls/mbedtls/mbedtls-2.16.2/library\x509_crt.c ****                            mbedtls_x509_time *from,
 419:C:/Users/dtjld/workspace/AIoT/src/LiteOS_Lab/iot_link/network/dtls/mbedtls/mbedtls-2.16.2/library\x509_crt.c ****                            mbedtls_x509_time *to )
 420:C:/Users/dtjld/workspace/AIoT/src/LiteOS_Lab/iot_link/network/dtls/mbedtls/mbedtls-2.16.2/library\x509_crt.c **** {
 1059              		.loc 2 420 0
 1060              		.cfi_startproc
 1061              		@ args = 0, pretend = 0, frame = 24
 1062              		@ frame_needed = 1, uses_anonymous_args = 0
 1063 0000 80B5     		push	{r7, lr}
 1064              	.LCFI55:
 1065              		.cfi_def_cfa_offset 8
 1066              		.cfi_offset 7, -8
 1067              		.cfi_offset 14, -4
ARM GAS  C:\Users\dtjld\AppData\Local\Temp\ccTXdst3.s 			page 30


 1068 0002 86B0     		sub	sp, sp, #24
 1069              	.LCFI56:
 1070              		.cfi_def_cfa_offset 32
 1071 0004 00AF     		add	r7, sp, #0
 1072              	.LCFI57:
 1073              		.cfi_def_cfa_register 7
 1074 0006 F860     		str	r0, [r7, #12]
 1075 0008 B960     		str	r1, [r7, #8]
 1076 000a 7A60     		str	r2, [r7, #4]
 1077 000c 3B60     		str	r3, [r7]
 421:C:/Users/dtjld/workspace/AIoT/src/LiteOS_Lab/iot_link/network/dtls/mbedtls/mbedtls-2.16.2/library\x509_crt.c ****     int ret;
 422:C:/Users/dtjld/workspace/AIoT/src/LiteOS_Lab/iot_link/network/dtls/mbedtls/mbedtls-2.16.2/library\x509_crt.c ****     size_t len;
 423:C:/Users/dtjld/workspace/AIoT/src/LiteOS_Lab/iot_link/network/dtls/mbedtls/mbedtls-2.16.2/library\x509_crt.c **** 
 424:C:/Users/dtjld/workspace/AIoT/src/LiteOS_Lab/iot_link/network/dtls/mbedtls/mbedtls-2.16.2/library\x509_crt.c ****     if( ( ret = mbedtls_asn1_get_tag( p, end, &len,
 1078              		.loc 2 424 0
 1079 000e 07F11002 		add	r2, r7, #16
 1080 0012 3023     		movs	r3, #48
 1081 0014 B968     		ldr	r1, [r7, #8]
 1082 0016 F868     		ldr	r0, [r7, #12]
 1083 0018 FFF7FEFF 		bl	mbedtls_asn1_get_tag
 1084 001c 7861     		str	r0, [r7, #20]
 1085 001e 7B69     		ldr	r3, [r7, #20]
 1086 0020 002B     		cmp	r3, #0
 1087 0022 03D0     		beq	.L70
 425:C:/Users/dtjld/workspace/AIoT/src/LiteOS_Lab/iot_link/network/dtls/mbedtls/mbedtls-2.16.2/library\x509_crt.c ****             MBEDTLS_ASN1_CONSTRUCTED | MBEDTLS_ASN1_SEQUENCE ) ) != 0 )
 426:C:/Users/dtjld/workspace/AIoT/src/LiteOS_Lab/iot_link/network/dtls/mbedtls/mbedtls-2.16.2/library\x509_crt.c ****         return( MBEDTLS_ERR_X509_INVALID_DATE + ret );
 1088              		.loc 2 426 0
 1089 0024 7B69     		ldr	r3, [r7, #20]
 1090 0026 A3F51053 		sub	r3, r3, #9216
 1091 002a 22E0     		b	.L75
 1092              	.L70:
 427:C:/Users/dtjld/workspace/AIoT/src/LiteOS_Lab/iot_link/network/dtls/mbedtls/mbedtls-2.16.2/library\x509_crt.c **** 
 428:C:/Users/dtjld/workspace/AIoT/src/LiteOS_Lab/iot_link/network/dtls/mbedtls/mbedtls-2.16.2/library\x509_crt.c ****     end = *p + len;
 1093              		.loc 2 428 0
 1094 002c FB68     		ldr	r3, [r7, #12]
 1095 002e 1A68     		ldr	r2, [r3]
 1096 0030 3B69     		ldr	r3, [r7, #16]
 1097 0032 1344     		add	r3, r3, r2
 1098 0034 BB60     		str	r3, [r7, #8]
 429:C:/Users/dtjld/workspace/AIoT/src/LiteOS_Lab/iot_link/network/dtls/mbedtls/mbedtls-2.16.2/library\x509_crt.c **** 
 430:C:/Users/dtjld/workspace/AIoT/src/LiteOS_Lab/iot_link/network/dtls/mbedtls/mbedtls-2.16.2/library\x509_crt.c ****     if( ( ret = mbedtls_x509_get_time( p, end, from ) ) != 0 )
 1099              		.loc 2 430 0
 1100 0036 7A68     		ldr	r2, [r7, #4]
 1101 0038 B968     		ldr	r1, [r7, #8]
 1102 003a F868     		ldr	r0, [r7, #12]
 1103 003c FFF7FEFF 		bl	mbedtls_x509_get_time
 1104 0040 7861     		str	r0, [r7, #20]
 1105 0042 7B69     		ldr	r3, [r7, #20]
 1106 0044 002B     		cmp	r3, #0
 1107 0046 01D0     		beq	.L72
 431:C:/Users/dtjld/workspace/AIoT/src/LiteOS_Lab/iot_link/network/dtls/mbedtls/mbedtls-2.16.2/library\x509_crt.c ****         return( ret );
 1108              		.loc 2 431 0
 1109 0048 7B69     		ldr	r3, [r7, #20]
 1110 004a 12E0     		b	.L75
 1111              	.L72:
 432:C:/Users/dtjld/workspace/AIoT/src/LiteOS_Lab/iot_link/network/dtls/mbedtls/mbedtls-2.16.2/library\x509_crt.c **** 
 433:C:/Users/dtjld/workspace/AIoT/src/LiteOS_Lab/iot_link/network/dtls/mbedtls/mbedtls-2.16.2/library\x509_crt.c ****     if( ( ret = mbedtls_x509_get_time( p, end, to ) ) != 0 )
ARM GAS  C:\Users\dtjld\AppData\Local\Temp\ccTXdst3.s 			page 31


 1112              		.loc 2 433 0
 1113 004c 3A68     		ldr	r2, [r7]
 1114 004e B968     		ldr	r1, [r7, #8]
 1115 0050 F868     		ldr	r0, [r7, #12]
 1116 0052 FFF7FEFF 		bl	mbedtls_x509_get_time
 1117 0056 7861     		str	r0, [r7, #20]
 1118 0058 7B69     		ldr	r3, [r7, #20]
 1119 005a 002B     		cmp	r3, #0
 1120 005c 01D0     		beq	.L73
 434:C:/Users/dtjld/workspace/AIoT/src/LiteOS_Lab/iot_link/network/dtls/mbedtls/mbedtls-2.16.2/library\x509_crt.c ****         return( ret );
 1121              		.loc 2 434 0
 1122 005e 7B69     		ldr	r3, [r7, #20]
 1123 0060 07E0     		b	.L75
 1124              	.L73:
 435:C:/Users/dtjld/workspace/AIoT/src/LiteOS_Lab/iot_link/network/dtls/mbedtls/mbedtls-2.16.2/library\x509_crt.c **** 
 436:C:/Users/dtjld/workspace/AIoT/src/LiteOS_Lab/iot_link/network/dtls/mbedtls/mbedtls-2.16.2/library\x509_crt.c ****     if( *p != end )
 1125              		.loc 2 436 0
 1126 0062 FB68     		ldr	r3, [r7, #12]
 1127 0064 1B68     		ldr	r3, [r3]
 1128 0066 BA68     		ldr	r2, [r7, #8]
 1129 0068 9A42     		cmp	r2, r3
 1130 006a 01D0     		beq	.L74
 437:C:/Users/dtjld/workspace/AIoT/src/LiteOS_Lab/iot_link/network/dtls/mbedtls/mbedtls-2.16.2/library\x509_crt.c ****         return( MBEDTLS_ERR_X509_INVALID_DATE +
 1131              		.loc 2 437 0
 1132 006c 034B     		ldr	r3, .L76
 1133 006e 00E0     		b	.L75
 1134              	.L74:
 438:C:/Users/dtjld/workspace/AIoT/src/LiteOS_Lab/iot_link/network/dtls/mbedtls/mbedtls-2.16.2/library\x509_crt.c ****                 MBEDTLS_ERR_ASN1_LENGTH_MISMATCH );
 439:C:/Users/dtjld/workspace/AIoT/src/LiteOS_Lab/iot_link/network/dtls/mbedtls/mbedtls-2.16.2/library\x509_crt.c **** 
 440:C:/Users/dtjld/workspace/AIoT/src/LiteOS_Lab/iot_link/network/dtls/mbedtls/mbedtls-2.16.2/library\x509_crt.c ****     return( 0 );
 1135              		.loc 2 440 0
 1136 0070 0023     		movs	r3, #0
 1137              	.L75:
 441:C:/Users/dtjld/workspace/AIoT/src/LiteOS_Lab/iot_link/network/dtls/mbedtls/mbedtls-2.16.2/library\x509_crt.c **** }
 1138              		.loc 2 441 0 discriminator 1
 1139 0072 1846     		mov	r0, r3
 1140 0074 1837     		adds	r7, r7, #24
 1141              	.LCFI58:
 1142              		.cfi_def_cfa_offset 8
 1143 0076 BD46     		mov	sp, r7
 1144              	.LCFI59:
 1145              		.cfi_def_cfa_register 13
 1146              		@ sp needed
 1147 0078 80BD     		pop	{r7, pc}
 1148              	.L77:
 1149 007a 00BF     		.align	2
 1150              	.L76:
 1151 007c 9ADBFFFF 		.word	-9318
 1152              		.cfi_endproc
 1153              	.LFE22:
 1155              		.section	.text.x509_get_uid,"ax",%progbits
 1156              		.align	1
 1157              		.syntax unified
 1158              		.thumb
 1159              		.thumb_func
 1160              		.fpu fpv4-sp-d16
 1162              	x509_get_uid:
ARM GAS  C:\Users\dtjld\AppData\Local\Temp\ccTXdst3.s 			page 32


 1163              	.LFB23:
 442:C:/Users/dtjld/workspace/AIoT/src/LiteOS_Lab/iot_link/network/dtls/mbedtls/mbedtls-2.16.2/library\x509_crt.c **** 
 443:C:/Users/dtjld/workspace/AIoT/src/LiteOS_Lab/iot_link/network/dtls/mbedtls/mbedtls-2.16.2/library\x509_crt.c **** /*
 444:C:/Users/dtjld/workspace/AIoT/src/LiteOS_Lab/iot_link/network/dtls/mbedtls/mbedtls-2.16.2/library\x509_crt.c ****  * X.509 v2/v3 unique identifier (not parsed)
 445:C:/Users/dtjld/workspace/AIoT/src/LiteOS_Lab/iot_link/network/dtls/mbedtls/mbedtls-2.16.2/library\x509_crt.c ****  */
 446:C:/Users/dtjld/workspace/AIoT/src/LiteOS_Lab/iot_link/network/dtls/mbedtls/mbedtls-2.16.2/library\x509_crt.c **** static int x509_get_uid( unsigned char **p,
 447:C:/Users/dtjld/workspace/AIoT/src/LiteOS_Lab/iot_link/network/dtls/mbedtls/mbedtls-2.16.2/library\x509_crt.c ****                          const unsigned char *end,
 448:C:/Users/dtjld/workspace/AIoT/src/LiteOS_Lab/iot_link/network/dtls/mbedtls/mbedtls-2.16.2/library\x509_crt.c ****                          mbedtls_x509_buf *uid, int n )
 449:C:/Users/dtjld/workspace/AIoT/src/LiteOS_Lab/iot_link/network/dtls/mbedtls/mbedtls-2.16.2/library\x509_crt.c **** {
 1164              		.loc 2 449 0
 1165              		.cfi_startproc
 1166              		@ args = 0, pretend = 0, frame = 24
 1167              		@ frame_needed = 1, uses_anonymous_args = 0
 1168 0000 80B5     		push	{r7, lr}
 1169              	.LCFI60:
 1170              		.cfi_def_cfa_offset 8
 1171              		.cfi_offset 7, -8
 1172              		.cfi_offset 14, -4
 1173 0002 86B0     		sub	sp, sp, #24
 1174              	.LCFI61:
 1175              		.cfi_def_cfa_offset 32
 1176 0004 00AF     		add	r7, sp, #0
 1177              	.LCFI62:
 1178              		.cfi_def_cfa_register 7
 1179 0006 F860     		str	r0, [r7, #12]
 1180 0008 B960     		str	r1, [r7, #8]
 1181 000a 7A60     		str	r2, [r7, #4]
 1182 000c 3B60     		str	r3, [r7]
 450:C:/Users/dtjld/workspace/AIoT/src/LiteOS_Lab/iot_link/network/dtls/mbedtls/mbedtls-2.16.2/library\x509_crt.c ****     int ret;
 451:C:/Users/dtjld/workspace/AIoT/src/LiteOS_Lab/iot_link/network/dtls/mbedtls/mbedtls-2.16.2/library\x509_crt.c **** 
 452:C:/Users/dtjld/workspace/AIoT/src/LiteOS_Lab/iot_link/network/dtls/mbedtls/mbedtls-2.16.2/library\x509_crt.c ****     if( *p == end )
 1183              		.loc 2 452 0
 1184 000e FB68     		ldr	r3, [r7, #12]
 1185 0010 1B68     		ldr	r3, [r3]
 1186 0012 BA68     		ldr	r2, [r7, #8]
 1187 0014 9A42     		cmp	r2, r3
 1188 0016 01D1     		bne	.L79
 453:C:/Users/dtjld/workspace/AIoT/src/LiteOS_Lab/iot_link/network/dtls/mbedtls/mbedtls-2.16.2/library\x509_crt.c ****         return( 0 );
 1189              		.loc 2 453 0
 1190 0018 0023     		movs	r3, #0
 1191 001a 28E0     		b	.L80
 1192              	.L79:
 454:C:/Users/dtjld/workspace/AIoT/src/LiteOS_Lab/iot_link/network/dtls/mbedtls/mbedtls-2.16.2/library\x509_crt.c **** 
 455:C:/Users/dtjld/workspace/AIoT/src/LiteOS_Lab/iot_link/network/dtls/mbedtls/mbedtls-2.16.2/library\x509_crt.c ****     uid->tag = **p;
 1193              		.loc 2 455 0
 1194 001c FB68     		ldr	r3, [r7, #12]
 1195 001e 1B68     		ldr	r3, [r3]
 1196 0020 1B78     		ldrb	r3, [r3]	@ zero_extendqisi2
 1197 0022 1A46     		mov	r2, r3
 1198 0024 7B68     		ldr	r3, [r7, #4]
 1199 0026 1A60     		str	r2, [r3]
 456:C:/Users/dtjld/workspace/AIoT/src/LiteOS_Lab/iot_link/network/dtls/mbedtls/mbedtls-2.16.2/library\x509_crt.c **** 
 457:C:/Users/dtjld/workspace/AIoT/src/LiteOS_Lab/iot_link/network/dtls/mbedtls/mbedtls-2.16.2/library\x509_crt.c ****     if( ( ret = mbedtls_asn1_get_tag( p, end, &uid->len,
 1200              		.loc 2 457 0
 1201 0028 7B68     		ldr	r3, [r7, #4]
 1202 002a 1A1D     		adds	r2, r3, #4
 1203 002c 3B68     		ldr	r3, [r7]
ARM GAS  C:\Users\dtjld\AppData\Local\Temp\ccTXdst3.s 			page 33


 1204 002e 43F0A003 		orr	r3, r3, #160
 1205 0032 B968     		ldr	r1, [r7, #8]
 1206 0034 F868     		ldr	r0, [r7, #12]
 1207 0036 FFF7FEFF 		bl	mbedtls_asn1_get_tag
 1208 003a 7861     		str	r0, [r7, #20]
 1209 003c 7B69     		ldr	r3, [r7, #20]
 1210 003e 002B     		cmp	r3, #0
 1211 0040 09D0     		beq	.L81
 458:C:/Users/dtjld/workspace/AIoT/src/LiteOS_Lab/iot_link/network/dtls/mbedtls/mbedtls-2.16.2/library\x509_crt.c ****             MBEDTLS_ASN1_CONTEXT_SPECIFIC | MBEDTLS_ASN1_CONSTRUCTED | n ) ) != 0 )
 459:C:/Users/dtjld/workspace/AIoT/src/LiteOS_Lab/iot_link/network/dtls/mbedtls/mbedtls-2.16.2/library\x509_crt.c ****     {
 460:C:/Users/dtjld/workspace/AIoT/src/LiteOS_Lab/iot_link/network/dtls/mbedtls/mbedtls-2.16.2/library\x509_crt.c ****         if( ret == MBEDTLS_ERR_ASN1_UNEXPECTED_TAG )
 1212              		.loc 2 460 0
 1213 0042 7B69     		ldr	r3, [r7, #20]
 1214 0044 13F1620F 		cmn	r3, #98
 1215 0048 01D1     		bne	.L82
 461:C:/Users/dtjld/workspace/AIoT/src/LiteOS_Lab/iot_link/network/dtls/mbedtls/mbedtls-2.16.2/library\x509_crt.c ****             return( 0 );
 1216              		.loc 2 461 0
 1217 004a 0023     		movs	r3, #0
 1218 004c 0FE0     		b	.L80
 1219              	.L82:
 462:C:/Users/dtjld/workspace/AIoT/src/LiteOS_Lab/iot_link/network/dtls/mbedtls/mbedtls-2.16.2/library\x509_crt.c **** 
 463:C:/Users/dtjld/workspace/AIoT/src/LiteOS_Lab/iot_link/network/dtls/mbedtls/mbedtls-2.16.2/library\x509_crt.c ****         return( MBEDTLS_ERR_X509_INVALID_FORMAT + ret );
 1220              		.loc 2 463 0
 1221 004e 7B69     		ldr	r3, [r7, #20]
 1222 0050 A3F50653 		sub	r3, r3, #8576
 1223 0054 0BE0     		b	.L80
 1224              	.L81:
 464:C:/Users/dtjld/workspace/AIoT/src/LiteOS_Lab/iot_link/network/dtls/mbedtls/mbedtls-2.16.2/library\x509_crt.c ****     }
 465:C:/Users/dtjld/workspace/AIoT/src/LiteOS_Lab/iot_link/network/dtls/mbedtls/mbedtls-2.16.2/library\x509_crt.c **** 
 466:C:/Users/dtjld/workspace/AIoT/src/LiteOS_Lab/iot_link/network/dtls/mbedtls/mbedtls-2.16.2/library\x509_crt.c ****     uid->p = *p;
 1225              		.loc 2 466 0
 1226 0056 FB68     		ldr	r3, [r7, #12]
 1227 0058 1A68     		ldr	r2, [r3]
 1228 005a 7B68     		ldr	r3, [r7, #4]
 1229 005c 9A60     		str	r2, [r3, #8]
 467:C:/Users/dtjld/workspace/AIoT/src/LiteOS_Lab/iot_link/network/dtls/mbedtls/mbedtls-2.16.2/library\x509_crt.c ****     *p += uid->len;
 1230              		.loc 2 467 0
 1231 005e FB68     		ldr	r3, [r7, #12]
 1232 0060 1A68     		ldr	r2, [r3]
 1233 0062 7B68     		ldr	r3, [r7, #4]
 1234 0064 5B68     		ldr	r3, [r3, #4]
 1235 0066 1A44     		add	r2, r2, r3
 1236 0068 FB68     		ldr	r3, [r7, #12]
 1237 006a 1A60     		str	r2, [r3]
 468:C:/Users/dtjld/workspace/AIoT/src/LiteOS_Lab/iot_link/network/dtls/mbedtls/mbedtls-2.16.2/library\x509_crt.c **** 
 469:C:/Users/dtjld/workspace/AIoT/src/LiteOS_Lab/iot_link/network/dtls/mbedtls/mbedtls-2.16.2/library\x509_crt.c ****     return( 0 );
 1238              		.loc 2 469 0
 1239 006c 0023     		movs	r3, #0
 1240              	.L80:
 470:C:/Users/dtjld/workspace/AIoT/src/LiteOS_Lab/iot_link/network/dtls/mbedtls/mbedtls-2.16.2/library\x509_crt.c **** }
 1241              		.loc 2 470 0
 1242 006e 1846     		mov	r0, r3
 1243 0070 1837     		adds	r7, r7, #24
 1244              	.LCFI63:
 1245              		.cfi_def_cfa_offset 8
 1246 0072 BD46     		mov	sp, r7
 1247              	.LCFI64:
ARM GAS  C:\Users\dtjld\AppData\Local\Temp\ccTXdst3.s 			page 34


 1248              		.cfi_def_cfa_register 13
 1249              		@ sp needed
 1250 0074 80BD     		pop	{r7, pc}
 1251              		.cfi_endproc
 1252              	.LFE23:
 1254              		.section	.text.x509_get_basic_constraints,"ax",%progbits
 1255              		.align	1
 1256              		.syntax unified
 1257              		.thumb
 1258              		.thumb_func
 1259              		.fpu fpv4-sp-d16
 1261              	x509_get_basic_constraints:
 1262              	.LFB24:
 471:C:/Users/dtjld/workspace/AIoT/src/LiteOS_Lab/iot_link/network/dtls/mbedtls/mbedtls-2.16.2/library\x509_crt.c **** 
 472:C:/Users/dtjld/workspace/AIoT/src/LiteOS_Lab/iot_link/network/dtls/mbedtls/mbedtls-2.16.2/library\x509_crt.c **** static int x509_get_basic_constraints( unsigned char **p,
 473:C:/Users/dtjld/workspace/AIoT/src/LiteOS_Lab/iot_link/network/dtls/mbedtls/mbedtls-2.16.2/library\x509_crt.c ****                                        const unsigned char *end,
 474:C:/Users/dtjld/workspace/AIoT/src/LiteOS_Lab/iot_link/network/dtls/mbedtls/mbedtls-2.16.2/library\x509_crt.c ****                                        int *ca_istrue,
 475:C:/Users/dtjld/workspace/AIoT/src/LiteOS_Lab/iot_link/network/dtls/mbedtls/mbedtls-2.16.2/library\x509_crt.c ****                                        int *max_pathlen )
 476:C:/Users/dtjld/workspace/AIoT/src/LiteOS_Lab/iot_link/network/dtls/mbedtls/mbedtls-2.16.2/library\x509_crt.c **** {
 1263              		.loc 2 476 0
 1264              		.cfi_startproc
 1265              		@ args = 0, pretend = 0, frame = 24
 1266              		@ frame_needed = 1, uses_anonymous_args = 0
 1267 0000 80B5     		push	{r7, lr}
 1268              	.LCFI65:
 1269              		.cfi_def_cfa_offset 8
 1270              		.cfi_offset 7, -8
 1271              		.cfi_offset 14, -4
 1272 0002 86B0     		sub	sp, sp, #24
 1273              	.LCFI66:
 1274              		.cfi_def_cfa_offset 32
 1275 0004 00AF     		add	r7, sp, #0
 1276              	.LCFI67:
 1277              		.cfi_def_cfa_register 7
 1278 0006 F860     		str	r0, [r7, #12]
 1279 0008 B960     		str	r1, [r7, #8]
 1280 000a 7A60     		str	r2, [r7, #4]
 1281 000c 3B60     		str	r3, [r7]
 477:C:/Users/dtjld/workspace/AIoT/src/LiteOS_Lab/iot_link/network/dtls/mbedtls/mbedtls-2.16.2/library\x509_crt.c ****     int ret;
 478:C:/Users/dtjld/workspace/AIoT/src/LiteOS_Lab/iot_link/network/dtls/mbedtls/mbedtls-2.16.2/library\x509_crt.c ****     size_t len;
 479:C:/Users/dtjld/workspace/AIoT/src/LiteOS_Lab/iot_link/network/dtls/mbedtls/mbedtls-2.16.2/library\x509_crt.c **** 
 480:C:/Users/dtjld/workspace/AIoT/src/LiteOS_Lab/iot_link/network/dtls/mbedtls/mbedtls-2.16.2/library\x509_crt.c ****     /*
 481:C:/Users/dtjld/workspace/AIoT/src/LiteOS_Lab/iot_link/network/dtls/mbedtls/mbedtls-2.16.2/library\x509_crt.c ****      * BasicConstraints ::= SEQUENCE {
 482:C:/Users/dtjld/workspace/AIoT/src/LiteOS_Lab/iot_link/network/dtls/mbedtls/mbedtls-2.16.2/library\x509_crt.c ****      *      cA                      BOOLEAN DEFAULT FALSE,
 483:C:/Users/dtjld/workspace/AIoT/src/LiteOS_Lab/iot_link/network/dtls/mbedtls/mbedtls-2.16.2/library\x509_crt.c ****      *      pathLenConstraint       INTEGER (0..MAX) OPTIONAL }
 484:C:/Users/dtjld/workspace/AIoT/src/LiteOS_Lab/iot_link/network/dtls/mbedtls/mbedtls-2.16.2/library\x509_crt.c ****      */
 485:C:/Users/dtjld/workspace/AIoT/src/LiteOS_Lab/iot_link/network/dtls/mbedtls/mbedtls-2.16.2/library\x509_crt.c ****     *ca_istrue = 0; /* DEFAULT FALSE */
 1282              		.loc 2 485 0
 1283 000e 7B68     		ldr	r3, [r7, #4]
 1284 0010 0022     		movs	r2, #0
 1285 0012 1A60     		str	r2, [r3]
 486:C:/Users/dtjld/workspace/AIoT/src/LiteOS_Lab/iot_link/network/dtls/mbedtls/mbedtls-2.16.2/library\x509_crt.c ****     *max_pathlen = 0; /* endless */
 1286              		.loc 2 486 0
 1287 0014 3B68     		ldr	r3, [r7]
 1288 0016 0022     		movs	r2, #0
 1289 0018 1A60     		str	r2, [r3]
 487:C:/Users/dtjld/workspace/AIoT/src/LiteOS_Lab/iot_link/network/dtls/mbedtls/mbedtls-2.16.2/library\x509_crt.c **** 
ARM GAS  C:\Users\dtjld\AppData\Local\Temp\ccTXdst3.s 			page 35


 488:C:/Users/dtjld/workspace/AIoT/src/LiteOS_Lab/iot_link/network/dtls/mbedtls/mbedtls-2.16.2/library\x509_crt.c ****     if( ( ret = mbedtls_asn1_get_tag( p, end, &len,
 1290              		.loc 2 488 0
 1291 001a 07F11002 		add	r2, r7, #16
 1292 001e 3023     		movs	r3, #48
 1293 0020 B968     		ldr	r1, [r7, #8]
 1294 0022 F868     		ldr	r0, [r7, #12]
 1295 0024 FFF7FEFF 		bl	mbedtls_asn1_get_tag
 1296 0028 7861     		str	r0, [r7, #20]
 1297 002a 7B69     		ldr	r3, [r7, #20]
 1298 002c 002B     		cmp	r3, #0
 1299 002e 03D0     		beq	.L84
 489:C:/Users/dtjld/workspace/AIoT/src/LiteOS_Lab/iot_link/network/dtls/mbedtls/mbedtls-2.16.2/library\x509_crt.c ****             MBEDTLS_ASN1_CONSTRUCTED | MBEDTLS_ASN1_SEQUENCE ) ) != 0 )
 490:C:/Users/dtjld/workspace/AIoT/src/LiteOS_Lab/iot_link/network/dtls/mbedtls/mbedtls-2.16.2/library\x509_crt.c ****         return( MBEDTLS_ERR_X509_INVALID_EXTENSIONS + ret );
 1300              		.loc 2 490 0
 1301 0030 7B69     		ldr	r3, [r7, #20]
 1302 0032 A3F51453 		sub	r3, r3, #9472
 1303 0036 48E0     		b	.L93
 1304              	.L84:
 491:C:/Users/dtjld/workspace/AIoT/src/LiteOS_Lab/iot_link/network/dtls/mbedtls/mbedtls-2.16.2/library\x509_crt.c **** 
 492:C:/Users/dtjld/workspace/AIoT/src/LiteOS_Lab/iot_link/network/dtls/mbedtls/mbedtls-2.16.2/library\x509_crt.c ****     if( *p == end )
 1305              		.loc 2 492 0
 1306 0038 FB68     		ldr	r3, [r7, #12]
 1307 003a 1B68     		ldr	r3, [r3]
 1308 003c BA68     		ldr	r2, [r7, #8]
 1309 003e 9A42     		cmp	r2, r3
 1310 0040 01D1     		bne	.L86
 493:C:/Users/dtjld/workspace/AIoT/src/LiteOS_Lab/iot_link/network/dtls/mbedtls/mbedtls-2.16.2/library\x509_crt.c ****         return( 0 );
 1311              		.loc 2 493 0
 1312 0042 0023     		movs	r3, #0
 1313 0044 41E0     		b	.L93
 1314              	.L86:
 494:C:/Users/dtjld/workspace/AIoT/src/LiteOS_Lab/iot_link/network/dtls/mbedtls/mbedtls-2.16.2/library\x509_crt.c **** 
 495:C:/Users/dtjld/workspace/AIoT/src/LiteOS_Lab/iot_link/network/dtls/mbedtls/mbedtls-2.16.2/library\x509_crt.c ****     if( ( ret = mbedtls_asn1_get_bool( p, end, ca_istrue ) ) != 0 )
 1315              		.loc 2 495 0
 1316 0046 7A68     		ldr	r2, [r7, #4]
 1317 0048 B968     		ldr	r1, [r7, #8]
 1318 004a F868     		ldr	r0, [r7, #12]
 1319 004c FFF7FEFF 		bl	mbedtls_asn1_get_bool
 1320 0050 7861     		str	r0, [r7, #20]
 1321 0052 7B69     		ldr	r3, [r7, #20]
 1322 0054 002B     		cmp	r3, #0
 1323 0056 17D0     		beq	.L87
 496:C:/Users/dtjld/workspace/AIoT/src/LiteOS_Lab/iot_link/network/dtls/mbedtls/mbedtls-2.16.2/library\x509_crt.c ****     {
 497:C:/Users/dtjld/workspace/AIoT/src/LiteOS_Lab/iot_link/network/dtls/mbedtls/mbedtls-2.16.2/library\x509_crt.c ****         if( ret == MBEDTLS_ERR_ASN1_UNEXPECTED_TAG )
 1324              		.loc 2 497 0
 1325 0058 7B69     		ldr	r3, [r7, #20]
 1326 005a 13F1620F 		cmn	r3, #98
 1327 005e 05D1     		bne	.L88
 498:C:/Users/dtjld/workspace/AIoT/src/LiteOS_Lab/iot_link/network/dtls/mbedtls/mbedtls-2.16.2/library\x509_crt.c ****             ret = mbedtls_asn1_get_int( p, end, ca_istrue );
 1328              		.loc 2 498 0
 1329 0060 7A68     		ldr	r2, [r7, #4]
 1330 0062 B968     		ldr	r1, [r7, #8]
 1331 0064 F868     		ldr	r0, [r7, #12]
 1332 0066 FFF7FEFF 		bl	mbedtls_asn1_get_int
 1333 006a 7861     		str	r0, [r7, #20]
 1334              	.L88:
 499:C:/Users/dtjld/workspace/AIoT/src/LiteOS_Lab/iot_link/network/dtls/mbedtls/mbedtls-2.16.2/library\x509_crt.c **** 
ARM GAS  C:\Users\dtjld\AppData\Local\Temp\ccTXdst3.s 			page 36


 500:C:/Users/dtjld/workspace/AIoT/src/LiteOS_Lab/iot_link/network/dtls/mbedtls/mbedtls-2.16.2/library\x509_crt.c ****         if( ret != 0 )
 1335              		.loc 2 500 0
 1336 006c 7B69     		ldr	r3, [r7, #20]
 1337 006e 002B     		cmp	r3, #0
 1338 0070 03D0     		beq	.L89
 501:C:/Users/dtjld/workspace/AIoT/src/LiteOS_Lab/iot_link/network/dtls/mbedtls/mbedtls-2.16.2/library\x509_crt.c ****             return( MBEDTLS_ERR_X509_INVALID_EXTENSIONS + ret );
 1339              		.loc 2 501 0
 1340 0072 7B69     		ldr	r3, [r7, #20]
 1341 0074 A3F51453 		sub	r3, r3, #9472
 1342 0078 27E0     		b	.L93
 1343              	.L89:
 502:C:/Users/dtjld/workspace/AIoT/src/LiteOS_Lab/iot_link/network/dtls/mbedtls/mbedtls-2.16.2/library\x509_crt.c **** 
 503:C:/Users/dtjld/workspace/AIoT/src/LiteOS_Lab/iot_link/network/dtls/mbedtls/mbedtls-2.16.2/library\x509_crt.c ****         if( *ca_istrue != 0 )
 1344              		.loc 2 503 0
 1345 007a 7B68     		ldr	r3, [r7, #4]
 1346 007c 1B68     		ldr	r3, [r3]
 1347 007e 002B     		cmp	r3, #0
 1348 0080 02D0     		beq	.L87
 504:C:/Users/dtjld/workspace/AIoT/src/LiteOS_Lab/iot_link/network/dtls/mbedtls/mbedtls-2.16.2/library\x509_crt.c ****             *ca_istrue = 1;
 1349              		.loc 2 504 0
 1350 0082 7B68     		ldr	r3, [r7, #4]
 1351 0084 0122     		movs	r2, #1
 1352 0086 1A60     		str	r2, [r3]
 1353              	.L87:
 505:C:/Users/dtjld/workspace/AIoT/src/LiteOS_Lab/iot_link/network/dtls/mbedtls/mbedtls-2.16.2/library\x509_crt.c ****     }
 506:C:/Users/dtjld/workspace/AIoT/src/LiteOS_Lab/iot_link/network/dtls/mbedtls/mbedtls-2.16.2/library\x509_crt.c **** 
 507:C:/Users/dtjld/workspace/AIoT/src/LiteOS_Lab/iot_link/network/dtls/mbedtls/mbedtls-2.16.2/library\x509_crt.c ****     if( *p == end )
 1354              		.loc 2 507 0
 1355 0088 FB68     		ldr	r3, [r7, #12]
 1356 008a 1B68     		ldr	r3, [r3]
 1357 008c BA68     		ldr	r2, [r7, #8]
 1358 008e 9A42     		cmp	r2, r3
 1359 0090 01D1     		bne	.L90
 508:C:/Users/dtjld/workspace/AIoT/src/LiteOS_Lab/iot_link/network/dtls/mbedtls/mbedtls-2.16.2/library\x509_crt.c ****         return( 0 );
 1360              		.loc 2 508 0
 1361 0092 0023     		movs	r3, #0
 1362 0094 19E0     		b	.L93
 1363              	.L90:
 509:C:/Users/dtjld/workspace/AIoT/src/LiteOS_Lab/iot_link/network/dtls/mbedtls/mbedtls-2.16.2/library\x509_crt.c **** 
 510:C:/Users/dtjld/workspace/AIoT/src/LiteOS_Lab/iot_link/network/dtls/mbedtls/mbedtls-2.16.2/library\x509_crt.c ****     if( ( ret = mbedtls_asn1_get_int( p, end, max_pathlen ) ) != 0 )
 1364              		.loc 2 510 0
 1365 0096 3A68     		ldr	r2, [r7]
 1366 0098 B968     		ldr	r1, [r7, #8]
 1367 009a F868     		ldr	r0, [r7, #12]
 1368 009c FFF7FEFF 		bl	mbedtls_asn1_get_int
 1369 00a0 7861     		str	r0, [r7, #20]
 1370 00a2 7B69     		ldr	r3, [r7, #20]
 1371 00a4 002B     		cmp	r3, #0
 1372 00a6 03D0     		beq	.L91
 511:C:/Users/dtjld/workspace/AIoT/src/LiteOS_Lab/iot_link/network/dtls/mbedtls/mbedtls-2.16.2/library\x509_crt.c ****         return( MBEDTLS_ERR_X509_INVALID_EXTENSIONS + ret );
 1373              		.loc 2 511 0
 1374 00a8 7B69     		ldr	r3, [r7, #20]
 1375 00aa A3F51453 		sub	r3, r3, #9472
 1376 00ae 0CE0     		b	.L93
 1377              	.L91:
 512:C:/Users/dtjld/workspace/AIoT/src/LiteOS_Lab/iot_link/network/dtls/mbedtls/mbedtls-2.16.2/library\x509_crt.c **** 
 513:C:/Users/dtjld/workspace/AIoT/src/LiteOS_Lab/iot_link/network/dtls/mbedtls/mbedtls-2.16.2/library\x509_crt.c ****     if( *p != end )
ARM GAS  C:\Users\dtjld\AppData\Local\Temp\ccTXdst3.s 			page 37


 1378              		.loc 2 513 0
 1379 00b0 FB68     		ldr	r3, [r7, #12]
 1380 00b2 1B68     		ldr	r3, [r3]
 1381 00b4 BA68     		ldr	r2, [r7, #8]
 1382 00b6 9A42     		cmp	r2, r3
 1383 00b8 01D0     		beq	.L92
 514:C:/Users/dtjld/workspace/AIoT/src/LiteOS_Lab/iot_link/network/dtls/mbedtls/mbedtls-2.16.2/library\x509_crt.c ****         return( MBEDTLS_ERR_X509_INVALID_EXTENSIONS +
 1384              		.loc 2 514 0
 1385 00ba 064B     		ldr	r3, .L94
 1386 00bc 05E0     		b	.L93
 1387              	.L92:
 515:C:/Users/dtjld/workspace/AIoT/src/LiteOS_Lab/iot_link/network/dtls/mbedtls/mbedtls-2.16.2/library\x509_crt.c ****                 MBEDTLS_ERR_ASN1_LENGTH_MISMATCH );
 516:C:/Users/dtjld/workspace/AIoT/src/LiteOS_Lab/iot_link/network/dtls/mbedtls/mbedtls-2.16.2/library\x509_crt.c **** 
 517:C:/Users/dtjld/workspace/AIoT/src/LiteOS_Lab/iot_link/network/dtls/mbedtls/mbedtls-2.16.2/library\x509_crt.c ****     (*max_pathlen)++;
 1388              		.loc 2 517 0
 1389 00be 3B68     		ldr	r3, [r7]
 1390 00c0 1B68     		ldr	r3, [r3]
 1391 00c2 5A1C     		adds	r2, r3, #1
 1392 00c4 3B68     		ldr	r3, [r7]
 1393 00c6 1A60     		str	r2, [r3]
 518:C:/Users/dtjld/workspace/AIoT/src/LiteOS_Lab/iot_link/network/dtls/mbedtls/mbedtls-2.16.2/library\x509_crt.c **** 
 519:C:/Users/dtjld/workspace/AIoT/src/LiteOS_Lab/iot_link/network/dtls/mbedtls/mbedtls-2.16.2/library\x509_crt.c ****     return( 0 );
 1394              		.loc 2 519 0
 1395 00c8 0023     		movs	r3, #0
 1396              	.L93:
 520:C:/Users/dtjld/workspace/AIoT/src/LiteOS_Lab/iot_link/network/dtls/mbedtls/mbedtls-2.16.2/library\x509_crt.c **** }
 1397              		.loc 2 520 0 discriminator 1
 1398 00ca 1846     		mov	r0, r3
 1399 00cc 1837     		adds	r7, r7, #24
 1400              	.LCFI68:
 1401              		.cfi_def_cfa_offset 8
 1402 00ce BD46     		mov	sp, r7
 1403              	.LCFI69:
 1404              		.cfi_def_cfa_register 13
 1405              		@ sp needed
 1406 00d0 80BD     		pop	{r7, pc}
 1407              	.L95:
 1408 00d2 00BF     		.align	2
 1409              	.L94:
 1410 00d4 9ADAFFFF 		.word	-9574
 1411              		.cfi_endproc
 1412              	.LFE24:
 1414              		.section	.text.x509_get_ns_cert_type,"ax",%progbits
 1415              		.align	1
 1416              		.syntax unified
 1417              		.thumb
 1418              		.thumb_func
 1419              		.fpu fpv4-sp-d16
 1421              	x509_get_ns_cert_type:
 1422              	.LFB25:
 521:C:/Users/dtjld/workspace/AIoT/src/LiteOS_Lab/iot_link/network/dtls/mbedtls/mbedtls-2.16.2/library\x509_crt.c **** 
 522:C:/Users/dtjld/workspace/AIoT/src/LiteOS_Lab/iot_link/network/dtls/mbedtls/mbedtls-2.16.2/library\x509_crt.c **** static int x509_get_ns_cert_type( unsigned char **p,
 523:C:/Users/dtjld/workspace/AIoT/src/LiteOS_Lab/iot_link/network/dtls/mbedtls/mbedtls-2.16.2/library\x509_crt.c ****                                        const unsigned char *end,
 524:C:/Users/dtjld/workspace/AIoT/src/LiteOS_Lab/iot_link/network/dtls/mbedtls/mbedtls-2.16.2/library\x509_crt.c ****                                        unsigned char *ns_cert_type)
 525:C:/Users/dtjld/workspace/AIoT/src/LiteOS_Lab/iot_link/network/dtls/mbedtls/mbedtls-2.16.2/library\x509_crt.c **** {
 1423              		.loc 2 525 0
 1424              		.cfi_startproc
ARM GAS  C:\Users\dtjld\AppData\Local\Temp\ccTXdst3.s 			page 38


 1425              		@ args = 0, pretend = 0, frame = 32
 1426              		@ frame_needed = 1, uses_anonymous_args = 0
 1427 0000 80B5     		push	{r7, lr}
 1428              	.LCFI70:
 1429              		.cfi_def_cfa_offset 8
 1430              		.cfi_offset 7, -8
 1431              		.cfi_offset 14, -4
 1432 0002 88B0     		sub	sp, sp, #32
 1433              	.LCFI71:
 1434              		.cfi_def_cfa_offset 40
 1435 0004 00AF     		add	r7, sp, #0
 1436              	.LCFI72:
 1437              		.cfi_def_cfa_register 7
 1438 0006 F860     		str	r0, [r7, #12]
 1439 0008 B960     		str	r1, [r7, #8]
 1440 000a 7A60     		str	r2, [r7, #4]
 526:C:/Users/dtjld/workspace/AIoT/src/LiteOS_Lab/iot_link/network/dtls/mbedtls/mbedtls-2.16.2/library\x509_crt.c ****     int ret;
 527:C:/Users/dtjld/workspace/AIoT/src/LiteOS_Lab/iot_link/network/dtls/mbedtls/mbedtls-2.16.2/library\x509_crt.c ****     mbedtls_x509_bitstring bs = { 0, 0, NULL };
 1441              		.loc 2 527 0
 1442 000c 0023     		movs	r3, #0
 1443 000e 3B61     		str	r3, [r7, #16]
 1444 0010 0023     		movs	r3, #0
 1445 0012 3B75     		strb	r3, [r7, #20]
 1446 0014 0023     		movs	r3, #0
 1447 0016 BB61     		str	r3, [r7, #24]
 528:C:/Users/dtjld/workspace/AIoT/src/LiteOS_Lab/iot_link/network/dtls/mbedtls/mbedtls-2.16.2/library\x509_crt.c **** 
 529:C:/Users/dtjld/workspace/AIoT/src/LiteOS_Lab/iot_link/network/dtls/mbedtls/mbedtls-2.16.2/library\x509_crt.c ****     if( ( ret = mbedtls_asn1_get_bitstring( p, end, &bs ) ) != 0 )
 1448              		.loc 2 529 0
 1449 0018 07F11003 		add	r3, r7, #16
 1450 001c 1A46     		mov	r2, r3
 1451 001e B968     		ldr	r1, [r7, #8]
 1452 0020 F868     		ldr	r0, [r7, #12]
 1453 0022 FFF7FEFF 		bl	mbedtls_asn1_get_bitstring
 1454 0026 F861     		str	r0, [r7, #28]
 1455 0028 FB69     		ldr	r3, [r7, #28]
 1456 002a 002B     		cmp	r3, #0
 1457 002c 03D0     		beq	.L97
 530:C:/Users/dtjld/workspace/AIoT/src/LiteOS_Lab/iot_link/network/dtls/mbedtls/mbedtls-2.16.2/library\x509_crt.c ****         return( MBEDTLS_ERR_X509_INVALID_EXTENSIONS + ret );
 1458              		.loc 2 530 0
 1459 002e FB69     		ldr	r3, [r7, #28]
 1460 0030 A3F51453 		sub	r3, r3, #9472
 1461 0034 09E0     		b	.L100
 1462              	.L97:
 531:C:/Users/dtjld/workspace/AIoT/src/LiteOS_Lab/iot_link/network/dtls/mbedtls/mbedtls-2.16.2/library\x509_crt.c **** 
 532:C:/Users/dtjld/workspace/AIoT/src/LiteOS_Lab/iot_link/network/dtls/mbedtls/mbedtls-2.16.2/library\x509_crt.c ****     if( bs.len != 1 )
 1463              		.loc 2 532 0
 1464 0036 3B69     		ldr	r3, [r7, #16]
 1465 0038 012B     		cmp	r3, #1
 1466 003a 01D0     		beq	.L99
 533:C:/Users/dtjld/workspace/AIoT/src/LiteOS_Lab/iot_link/network/dtls/mbedtls/mbedtls-2.16.2/library\x509_crt.c ****         return( MBEDTLS_ERR_X509_INVALID_EXTENSIONS +
 1467              		.loc 2 533 0
 1468 003c 054B     		ldr	r3, .L101
 1469 003e 04E0     		b	.L100
 1470              	.L99:
 534:C:/Users/dtjld/workspace/AIoT/src/LiteOS_Lab/iot_link/network/dtls/mbedtls/mbedtls-2.16.2/library\x509_crt.c ****                 MBEDTLS_ERR_ASN1_INVALID_LENGTH );
 535:C:/Users/dtjld/workspace/AIoT/src/LiteOS_Lab/iot_link/network/dtls/mbedtls/mbedtls-2.16.2/library\x509_crt.c **** 
 536:C:/Users/dtjld/workspace/AIoT/src/LiteOS_Lab/iot_link/network/dtls/mbedtls/mbedtls-2.16.2/library\x509_crt.c ****     /* Get actual bitstring */
ARM GAS  C:\Users\dtjld\AppData\Local\Temp\ccTXdst3.s 			page 39


 537:C:/Users/dtjld/workspace/AIoT/src/LiteOS_Lab/iot_link/network/dtls/mbedtls/mbedtls-2.16.2/library\x509_crt.c ****     *ns_cert_type = *bs.p;
 1471              		.loc 2 537 0
 1472 0040 BB69     		ldr	r3, [r7, #24]
 1473 0042 1A78     		ldrb	r2, [r3]	@ zero_extendqisi2
 1474 0044 7B68     		ldr	r3, [r7, #4]
 1475 0046 1A70     		strb	r2, [r3]
 538:C:/Users/dtjld/workspace/AIoT/src/LiteOS_Lab/iot_link/network/dtls/mbedtls/mbedtls-2.16.2/library\x509_crt.c ****     return( 0 );
 1476              		.loc 2 538 0
 1477 0048 0023     		movs	r3, #0
 1478              	.L100:
 539:C:/Users/dtjld/workspace/AIoT/src/LiteOS_Lab/iot_link/network/dtls/mbedtls/mbedtls-2.16.2/library\x509_crt.c **** }
 1479              		.loc 2 539 0 discriminator 1
 1480 004a 1846     		mov	r0, r3
 1481 004c 2037     		adds	r7, r7, #32
 1482              	.LCFI73:
 1483              		.cfi_def_cfa_offset 8
 1484 004e BD46     		mov	sp, r7
 1485              	.LCFI74:
 1486              		.cfi_def_cfa_register 13
 1487              		@ sp needed
 1488 0050 80BD     		pop	{r7, pc}
 1489              	.L102:
 1490 0052 00BF     		.align	2
 1491              	.L101:
 1492 0054 9CDAFFFF 		.word	-9572
 1493              		.cfi_endproc
 1494              	.LFE25:
 1496              		.section	.text.x509_get_key_usage,"ax",%progbits
 1497              		.align	1
 1498              		.syntax unified
 1499              		.thumb
 1500              		.thumb_func
 1501              		.fpu fpv4-sp-d16
 1503              	x509_get_key_usage:
 1504              	.LFB26:
 540:C:/Users/dtjld/workspace/AIoT/src/LiteOS_Lab/iot_link/network/dtls/mbedtls/mbedtls-2.16.2/library\x509_crt.c **** 
 541:C:/Users/dtjld/workspace/AIoT/src/LiteOS_Lab/iot_link/network/dtls/mbedtls/mbedtls-2.16.2/library\x509_crt.c **** static int x509_get_key_usage( unsigned char **p,
 542:C:/Users/dtjld/workspace/AIoT/src/LiteOS_Lab/iot_link/network/dtls/mbedtls/mbedtls-2.16.2/library\x509_crt.c ****                                const unsigned char *end,
 543:C:/Users/dtjld/workspace/AIoT/src/LiteOS_Lab/iot_link/network/dtls/mbedtls/mbedtls-2.16.2/library\x509_crt.c ****                                unsigned int *key_usage)
 544:C:/Users/dtjld/workspace/AIoT/src/LiteOS_Lab/iot_link/network/dtls/mbedtls/mbedtls-2.16.2/library\x509_crt.c **** {
 1505              		.loc 2 544 0
 1506              		.cfi_startproc
 1507              		@ args = 0, pretend = 0, frame = 40
 1508              		@ frame_needed = 1, uses_anonymous_args = 0
 1509 0000 80B5     		push	{r7, lr}
 1510              	.LCFI75:
 1511              		.cfi_def_cfa_offset 8
 1512              		.cfi_offset 7, -8
 1513              		.cfi_offset 14, -4
 1514 0002 8AB0     		sub	sp, sp, #40
 1515              	.LCFI76:
 1516              		.cfi_def_cfa_offset 48
 1517 0004 00AF     		add	r7, sp, #0
 1518              	.LCFI77:
 1519              		.cfi_def_cfa_register 7
 1520 0006 F860     		str	r0, [r7, #12]
 1521 0008 B960     		str	r1, [r7, #8]
ARM GAS  C:\Users\dtjld\AppData\Local\Temp\ccTXdst3.s 			page 40


 1522 000a 7A60     		str	r2, [r7, #4]
 545:C:/Users/dtjld/workspace/AIoT/src/LiteOS_Lab/iot_link/network/dtls/mbedtls/mbedtls-2.16.2/library\x509_crt.c ****     int ret;
 546:C:/Users/dtjld/workspace/AIoT/src/LiteOS_Lab/iot_link/network/dtls/mbedtls/mbedtls-2.16.2/library\x509_crt.c ****     size_t i;
 547:C:/Users/dtjld/workspace/AIoT/src/LiteOS_Lab/iot_link/network/dtls/mbedtls/mbedtls-2.16.2/library\x509_crt.c ****     mbedtls_x509_bitstring bs = { 0, 0, NULL };
 1523              		.loc 2 547 0
 1524 000c 0023     		movs	r3, #0
 1525 000e 7B61     		str	r3, [r7, #20]
 1526 0010 0023     		movs	r3, #0
 1527 0012 3B76     		strb	r3, [r7, #24]
 1528 0014 0023     		movs	r3, #0
 1529 0016 FB61     		str	r3, [r7, #28]
 548:C:/Users/dtjld/workspace/AIoT/src/LiteOS_Lab/iot_link/network/dtls/mbedtls/mbedtls-2.16.2/library\x509_crt.c **** 
 549:C:/Users/dtjld/workspace/AIoT/src/LiteOS_Lab/iot_link/network/dtls/mbedtls/mbedtls-2.16.2/library\x509_crt.c ****     if( ( ret = mbedtls_asn1_get_bitstring( p, end, &bs ) ) != 0 )
 1530              		.loc 2 549 0
 1531 0018 07F11403 		add	r3, r7, #20
 1532 001c 1A46     		mov	r2, r3
 1533 001e B968     		ldr	r1, [r7, #8]
 1534 0020 F868     		ldr	r0, [r7, #12]
 1535 0022 FFF7FEFF 		bl	mbedtls_asn1_get_bitstring
 1536 0026 3862     		str	r0, [r7, #32]
 1537 0028 3B6A     		ldr	r3, [r7, #32]
 1538 002a 002B     		cmp	r3, #0
 1539 002c 03D0     		beq	.L104
 550:C:/Users/dtjld/workspace/AIoT/src/LiteOS_Lab/iot_link/network/dtls/mbedtls/mbedtls-2.16.2/library\x509_crt.c ****         return( MBEDTLS_ERR_X509_INVALID_EXTENSIONS + ret );
 1540              		.loc 2 550 0
 1541 002e 3B6A     		ldr	r3, [r7, #32]
 1542 0030 A3F51453 		sub	r3, r3, #9472
 1543 0034 23E0     		b	.L110
 1544              	.L104:
 551:C:/Users/dtjld/workspace/AIoT/src/LiteOS_Lab/iot_link/network/dtls/mbedtls/mbedtls-2.16.2/library\x509_crt.c **** 
 552:C:/Users/dtjld/workspace/AIoT/src/LiteOS_Lab/iot_link/network/dtls/mbedtls/mbedtls-2.16.2/library\x509_crt.c ****     if( bs.len < 1 )
 1545              		.loc 2 552 0
 1546 0036 7B69     		ldr	r3, [r7, #20]
 1547 0038 002B     		cmp	r3, #0
 1548 003a 01D1     		bne	.L106
 553:C:/Users/dtjld/workspace/AIoT/src/LiteOS_Lab/iot_link/network/dtls/mbedtls/mbedtls-2.16.2/library\x509_crt.c ****         return( MBEDTLS_ERR_X509_INVALID_EXTENSIONS +
 1549              		.loc 2 553 0
 1550 003c 124B     		ldr	r3, .L111
 1551 003e 1EE0     		b	.L110
 1552              	.L106:
 554:C:/Users/dtjld/workspace/AIoT/src/LiteOS_Lab/iot_link/network/dtls/mbedtls/mbedtls-2.16.2/library\x509_crt.c ****                 MBEDTLS_ERR_ASN1_INVALID_LENGTH );
 555:C:/Users/dtjld/workspace/AIoT/src/LiteOS_Lab/iot_link/network/dtls/mbedtls/mbedtls-2.16.2/library\x509_crt.c **** 
 556:C:/Users/dtjld/workspace/AIoT/src/LiteOS_Lab/iot_link/network/dtls/mbedtls/mbedtls-2.16.2/library\x509_crt.c ****     /* Get actual bitstring */
 557:C:/Users/dtjld/workspace/AIoT/src/LiteOS_Lab/iot_link/network/dtls/mbedtls/mbedtls-2.16.2/library\x509_crt.c ****     *key_usage = 0;
 1553              		.loc 2 557 0
 1554 0040 7B68     		ldr	r3, [r7, #4]
 1555 0042 0022     		movs	r2, #0
 1556 0044 1A60     		str	r2, [r3]
 558:C:/Users/dtjld/workspace/AIoT/src/LiteOS_Lab/iot_link/network/dtls/mbedtls/mbedtls-2.16.2/library\x509_crt.c ****     for( i = 0; i < bs.len && i < sizeof( unsigned int ); i++ )
 1557              		.loc 2 558 0
 1558 0046 0023     		movs	r3, #0
 1559 0048 7B62     		str	r3, [r7, #36]
 1560 004a 10E0     		b	.L107
 1561              	.L109:
 559:C:/Users/dtjld/workspace/AIoT/src/LiteOS_Lab/iot_link/network/dtls/mbedtls/mbedtls-2.16.2/library\x509_crt.c ****     {
 560:C:/Users/dtjld/workspace/AIoT/src/LiteOS_Lab/iot_link/network/dtls/mbedtls/mbedtls-2.16.2/library\x509_crt.c ****         *key_usage |= (unsigned int) bs.p[i] << (8*i);
 1562              		.loc 2 560 0 discriminator 4
ARM GAS  C:\Users\dtjld\AppData\Local\Temp\ccTXdst3.s 			page 41


 1563 004c 7B68     		ldr	r3, [r7, #4]
 1564 004e 1A68     		ldr	r2, [r3]
 1565 0050 F969     		ldr	r1, [r7, #28]
 1566 0052 7B6A     		ldr	r3, [r7, #36]
 1567 0054 0B44     		add	r3, r3, r1
 1568 0056 1B78     		ldrb	r3, [r3]	@ zero_extendqisi2
 1569 0058 1946     		mov	r1, r3
 1570 005a 7B6A     		ldr	r3, [r7, #36]
 1571 005c DB00     		lsls	r3, r3, #3
 1572 005e 01FA03F3 		lsl	r3, r1, r3
 1573 0062 1A43     		orrs	r2, r2, r3
 1574 0064 7B68     		ldr	r3, [r7, #4]
 1575 0066 1A60     		str	r2, [r3]
 558:C:/Users/dtjld/workspace/AIoT/src/LiteOS_Lab/iot_link/network/dtls/mbedtls/mbedtls-2.16.2/library\x509_crt.c ****     for( i = 0; i < bs.len && i < sizeof( unsigned int ); i++ )
 1576              		.loc 2 558 0 discriminator 4
 1577 0068 7B6A     		ldr	r3, [r7, #36]
 1578 006a 0133     		adds	r3, r3, #1
 1579 006c 7B62     		str	r3, [r7, #36]
 1580              	.L107:
 558:C:/Users/dtjld/workspace/AIoT/src/LiteOS_Lab/iot_link/network/dtls/mbedtls/mbedtls-2.16.2/library\x509_crt.c ****     for( i = 0; i < bs.len && i < sizeof( unsigned int ); i++ )
 1581              		.loc 2 558 0 is_stmt 0 discriminator 1
 1582 006e 7B69     		ldr	r3, [r7, #20]
 1583 0070 7A6A     		ldr	r2, [r7, #36]
 1584 0072 9A42     		cmp	r2, r3
 1585 0074 02D2     		bcs	.L108
 558:C:/Users/dtjld/workspace/AIoT/src/LiteOS_Lab/iot_link/network/dtls/mbedtls/mbedtls-2.16.2/library\x509_crt.c ****     for( i = 0; i < bs.len && i < sizeof( unsigned int ); i++ )
 1586              		.loc 2 558 0 discriminator 3
 1587 0076 7B6A     		ldr	r3, [r7, #36]
 1588 0078 032B     		cmp	r3, #3
 1589 007a E7D9     		bls	.L109
 1590              	.L108:
 561:C:/Users/dtjld/workspace/AIoT/src/LiteOS_Lab/iot_link/network/dtls/mbedtls/mbedtls-2.16.2/library\x509_crt.c ****     }
 562:C:/Users/dtjld/workspace/AIoT/src/LiteOS_Lab/iot_link/network/dtls/mbedtls/mbedtls-2.16.2/library\x509_crt.c **** 
 563:C:/Users/dtjld/workspace/AIoT/src/LiteOS_Lab/iot_link/network/dtls/mbedtls/mbedtls-2.16.2/library\x509_crt.c ****     return( 0 );
 1591              		.loc 2 563 0 is_stmt 1
 1592 007c 0023     		movs	r3, #0
 1593              	.L110:
 564:C:/Users/dtjld/workspace/AIoT/src/LiteOS_Lab/iot_link/network/dtls/mbedtls/mbedtls-2.16.2/library\x509_crt.c **** }
 1594              		.loc 2 564 0 discriminator 1
 1595 007e 1846     		mov	r0, r3
 1596 0080 2837     		adds	r7, r7, #40
 1597              	.LCFI78:
 1598              		.cfi_def_cfa_offset 8
 1599 0082 BD46     		mov	sp, r7
 1600              	.LCFI79:
 1601              		.cfi_def_cfa_register 13
 1602              		@ sp needed
 1603 0084 80BD     		pop	{r7, pc}
 1604              	.L112:
 1605 0086 00BF     		.align	2
 1606              	.L111:
 1607 0088 9CDAFFFF 		.word	-9572
 1608              		.cfi_endproc
 1609              	.LFE26:
 1611              		.section	.text.x509_get_ext_key_usage,"ax",%progbits
 1612              		.align	1
 1613              		.syntax unified
ARM GAS  C:\Users\dtjld\AppData\Local\Temp\ccTXdst3.s 			page 42


 1614              		.thumb
 1615              		.thumb_func
 1616              		.fpu fpv4-sp-d16
 1618              	x509_get_ext_key_usage:
 1619              	.LFB27:
 565:C:/Users/dtjld/workspace/AIoT/src/LiteOS_Lab/iot_link/network/dtls/mbedtls/mbedtls-2.16.2/library\x509_crt.c **** 
 566:C:/Users/dtjld/workspace/AIoT/src/LiteOS_Lab/iot_link/network/dtls/mbedtls/mbedtls-2.16.2/library\x509_crt.c **** /*
 567:C:/Users/dtjld/workspace/AIoT/src/LiteOS_Lab/iot_link/network/dtls/mbedtls/mbedtls-2.16.2/library\x509_crt.c ****  * ExtKeyUsageSyntax ::= SEQUENCE SIZE (1..MAX) OF KeyPurposeId
 568:C:/Users/dtjld/workspace/AIoT/src/LiteOS_Lab/iot_link/network/dtls/mbedtls/mbedtls-2.16.2/library\x509_crt.c ****  *
 569:C:/Users/dtjld/workspace/AIoT/src/LiteOS_Lab/iot_link/network/dtls/mbedtls/mbedtls-2.16.2/library\x509_crt.c ****  * KeyPurposeId ::= OBJECT IDENTIFIER
 570:C:/Users/dtjld/workspace/AIoT/src/LiteOS_Lab/iot_link/network/dtls/mbedtls/mbedtls-2.16.2/library\x509_crt.c ****  */
 571:C:/Users/dtjld/workspace/AIoT/src/LiteOS_Lab/iot_link/network/dtls/mbedtls/mbedtls-2.16.2/library\x509_crt.c **** static int x509_get_ext_key_usage( unsigned char **p,
 572:C:/Users/dtjld/workspace/AIoT/src/LiteOS_Lab/iot_link/network/dtls/mbedtls/mbedtls-2.16.2/library\x509_crt.c ****                                const unsigned char *end,
 573:C:/Users/dtjld/workspace/AIoT/src/LiteOS_Lab/iot_link/network/dtls/mbedtls/mbedtls-2.16.2/library\x509_crt.c ****                                mbedtls_x509_sequence *ext_key_usage)
 574:C:/Users/dtjld/workspace/AIoT/src/LiteOS_Lab/iot_link/network/dtls/mbedtls/mbedtls-2.16.2/library\x509_crt.c **** {
 1620              		.loc 2 574 0
 1621              		.cfi_startproc
 1622              		@ args = 0, pretend = 0, frame = 24
 1623              		@ frame_needed = 1, uses_anonymous_args = 0
 1624 0000 80B5     		push	{r7, lr}
 1625              	.LCFI80:
 1626              		.cfi_def_cfa_offset 8
 1627              		.cfi_offset 7, -8
 1628              		.cfi_offset 14, -4
 1629 0002 86B0     		sub	sp, sp, #24
 1630              	.LCFI81:
 1631              		.cfi_def_cfa_offset 32
 1632 0004 00AF     		add	r7, sp, #0
 1633              	.LCFI82:
 1634              		.cfi_def_cfa_register 7
 1635 0006 F860     		str	r0, [r7, #12]
 1636 0008 B960     		str	r1, [r7, #8]
 1637 000a 7A60     		str	r2, [r7, #4]
 575:C:/Users/dtjld/workspace/AIoT/src/LiteOS_Lab/iot_link/network/dtls/mbedtls/mbedtls-2.16.2/library\x509_crt.c ****     int ret;
 576:C:/Users/dtjld/workspace/AIoT/src/LiteOS_Lab/iot_link/network/dtls/mbedtls/mbedtls-2.16.2/library\x509_crt.c **** 
 577:C:/Users/dtjld/workspace/AIoT/src/LiteOS_Lab/iot_link/network/dtls/mbedtls/mbedtls-2.16.2/library\x509_crt.c ****     if( ( ret = mbedtls_asn1_get_sequence_of( p, end, ext_key_usage, MBEDTLS_ASN1_OID ) ) != 0 )
 1638              		.loc 2 577 0
 1639 000c 0623     		movs	r3, #6
 1640 000e 7A68     		ldr	r2, [r7, #4]
 1641 0010 B968     		ldr	r1, [r7, #8]
 1642 0012 F868     		ldr	r0, [r7, #12]
 1643 0014 FFF7FEFF 		bl	mbedtls_asn1_get_sequence_of
 1644 0018 7861     		str	r0, [r7, #20]
 1645 001a 7B69     		ldr	r3, [r7, #20]
 1646 001c 002B     		cmp	r3, #0
 1647 001e 03D0     		beq	.L114
 578:C:/Users/dtjld/workspace/AIoT/src/LiteOS_Lab/iot_link/network/dtls/mbedtls/mbedtls-2.16.2/library\x509_crt.c ****         return( MBEDTLS_ERR_X509_INVALID_EXTENSIONS + ret );
 1648              		.loc 2 578 0
 1649 0020 7B69     		ldr	r3, [r7, #20]
 1650 0022 A3F51453 		sub	r3, r3, #9472
 1651 0026 06E0     		b	.L115
 1652              	.L114:
 579:C:/Users/dtjld/workspace/AIoT/src/LiteOS_Lab/iot_link/network/dtls/mbedtls/mbedtls-2.16.2/library\x509_crt.c **** 
 580:C:/Users/dtjld/workspace/AIoT/src/LiteOS_Lab/iot_link/network/dtls/mbedtls/mbedtls-2.16.2/library\x509_crt.c ****     /* Sequence length must be >= 1 */
 581:C:/Users/dtjld/workspace/AIoT/src/LiteOS_Lab/iot_link/network/dtls/mbedtls/mbedtls-2.16.2/library\x509_crt.c ****     if( ext_key_usage->buf.p == NULL )
 1653              		.loc 2 581 0
 1654 0028 7B68     		ldr	r3, [r7, #4]
ARM GAS  C:\Users\dtjld\AppData\Local\Temp\ccTXdst3.s 			page 43


 1655 002a 9B68     		ldr	r3, [r3, #8]
 1656 002c 002B     		cmp	r3, #0
 1657 002e 01D1     		bne	.L116
 582:C:/Users/dtjld/workspace/AIoT/src/LiteOS_Lab/iot_link/network/dtls/mbedtls/mbedtls-2.16.2/library\x509_crt.c ****         return( MBEDTLS_ERR_X509_INVALID_EXTENSIONS +
 1658              		.loc 2 582 0
 1659 0030 034B     		ldr	r3, .L117
 1660 0032 00E0     		b	.L115
 1661              	.L116:
 583:C:/Users/dtjld/workspace/AIoT/src/LiteOS_Lab/iot_link/network/dtls/mbedtls/mbedtls-2.16.2/library\x509_crt.c ****                 MBEDTLS_ERR_ASN1_INVALID_LENGTH );
 584:C:/Users/dtjld/workspace/AIoT/src/LiteOS_Lab/iot_link/network/dtls/mbedtls/mbedtls-2.16.2/library\x509_crt.c **** 
 585:C:/Users/dtjld/workspace/AIoT/src/LiteOS_Lab/iot_link/network/dtls/mbedtls/mbedtls-2.16.2/library\x509_crt.c ****     return( 0 );
 1662              		.loc 2 585 0
 1663 0034 0023     		movs	r3, #0
 1664              	.L115:
 586:C:/Users/dtjld/workspace/AIoT/src/LiteOS_Lab/iot_link/network/dtls/mbedtls/mbedtls-2.16.2/library\x509_crt.c **** }
 1665              		.loc 2 586 0
 1666 0036 1846     		mov	r0, r3
 1667 0038 1837     		adds	r7, r7, #24
 1668              	.LCFI83:
 1669              		.cfi_def_cfa_offset 8
 1670 003a BD46     		mov	sp, r7
 1671              	.LCFI84:
 1672              		.cfi_def_cfa_register 13
 1673              		@ sp needed
 1674 003c 80BD     		pop	{r7, pc}
 1675              	.L118:
 1676 003e 00BF     		.align	2
 1677              	.L117:
 1678 0040 9CDAFFFF 		.word	-9572
 1679              		.cfi_endproc
 1680              	.LFE27:
 1682              		.section	.text.x509_get_subject_alt_name,"ax",%progbits
 1683              		.align	1
 1684              		.syntax unified
 1685              		.thumb
 1686              		.thumb_func
 1687              		.fpu fpv4-sp-d16
 1689              	x509_get_subject_alt_name:
 1690              	.LFB28:
 587:C:/Users/dtjld/workspace/AIoT/src/LiteOS_Lab/iot_link/network/dtls/mbedtls/mbedtls-2.16.2/library\x509_crt.c **** 
 588:C:/Users/dtjld/workspace/AIoT/src/LiteOS_Lab/iot_link/network/dtls/mbedtls/mbedtls-2.16.2/library\x509_crt.c **** /*
 589:C:/Users/dtjld/workspace/AIoT/src/LiteOS_Lab/iot_link/network/dtls/mbedtls/mbedtls-2.16.2/library\x509_crt.c ****  * SubjectAltName ::= GeneralNames
 590:C:/Users/dtjld/workspace/AIoT/src/LiteOS_Lab/iot_link/network/dtls/mbedtls/mbedtls-2.16.2/library\x509_crt.c ****  *
 591:C:/Users/dtjld/workspace/AIoT/src/LiteOS_Lab/iot_link/network/dtls/mbedtls/mbedtls-2.16.2/library\x509_crt.c ****  * GeneralNames ::= SEQUENCE SIZE (1..MAX) OF GeneralName
 592:C:/Users/dtjld/workspace/AIoT/src/LiteOS_Lab/iot_link/network/dtls/mbedtls/mbedtls-2.16.2/library\x509_crt.c ****  *
 593:C:/Users/dtjld/workspace/AIoT/src/LiteOS_Lab/iot_link/network/dtls/mbedtls/mbedtls-2.16.2/library\x509_crt.c ****  * GeneralName ::= CHOICE {
 594:C:/Users/dtjld/workspace/AIoT/src/LiteOS_Lab/iot_link/network/dtls/mbedtls/mbedtls-2.16.2/library\x509_crt.c ****  *      otherName                       [0]     OtherName,
 595:C:/Users/dtjld/workspace/AIoT/src/LiteOS_Lab/iot_link/network/dtls/mbedtls/mbedtls-2.16.2/library\x509_crt.c ****  *      rfc822Name                      [1]     IA5String,
 596:C:/Users/dtjld/workspace/AIoT/src/LiteOS_Lab/iot_link/network/dtls/mbedtls/mbedtls-2.16.2/library\x509_crt.c ****  *      dNSName                         [2]     IA5String,
 597:C:/Users/dtjld/workspace/AIoT/src/LiteOS_Lab/iot_link/network/dtls/mbedtls/mbedtls-2.16.2/library\x509_crt.c ****  *      x400Address                     [3]     ORAddress,
 598:C:/Users/dtjld/workspace/AIoT/src/LiteOS_Lab/iot_link/network/dtls/mbedtls/mbedtls-2.16.2/library\x509_crt.c ****  *      directoryName                   [4]     Name,
 599:C:/Users/dtjld/workspace/AIoT/src/LiteOS_Lab/iot_link/network/dtls/mbedtls/mbedtls-2.16.2/library\x509_crt.c ****  *      ediPartyName                    [5]     EDIPartyName,
 600:C:/Users/dtjld/workspace/AIoT/src/LiteOS_Lab/iot_link/network/dtls/mbedtls/mbedtls-2.16.2/library\x509_crt.c ****  *      uniformResourceIdentifier       [6]     IA5String,
 601:C:/Users/dtjld/workspace/AIoT/src/LiteOS_Lab/iot_link/network/dtls/mbedtls/mbedtls-2.16.2/library\x509_crt.c ****  *      iPAddress                       [7]     OCTET STRING,
 602:C:/Users/dtjld/workspace/AIoT/src/LiteOS_Lab/iot_link/network/dtls/mbedtls/mbedtls-2.16.2/library\x509_crt.c ****  *      registeredID                    [8]     OBJECT IDENTIFIER }
 603:C:/Users/dtjld/workspace/AIoT/src/LiteOS_Lab/iot_link/network/dtls/mbedtls/mbedtls-2.16.2/library\x509_crt.c ****  *
 604:C:/Users/dtjld/workspace/AIoT/src/LiteOS_Lab/iot_link/network/dtls/mbedtls/mbedtls-2.16.2/library\x509_crt.c ****  * OtherName ::= SEQUENCE {
ARM GAS  C:\Users\dtjld\AppData\Local\Temp\ccTXdst3.s 			page 44


 605:C:/Users/dtjld/workspace/AIoT/src/LiteOS_Lab/iot_link/network/dtls/mbedtls/mbedtls-2.16.2/library\x509_crt.c ****  *      type-id    OBJECT IDENTIFIER,
 606:C:/Users/dtjld/workspace/AIoT/src/LiteOS_Lab/iot_link/network/dtls/mbedtls/mbedtls-2.16.2/library\x509_crt.c ****  *      value      [0] EXPLICIT ANY DEFINED BY type-id }
 607:C:/Users/dtjld/workspace/AIoT/src/LiteOS_Lab/iot_link/network/dtls/mbedtls/mbedtls-2.16.2/library\x509_crt.c ****  *
 608:C:/Users/dtjld/workspace/AIoT/src/LiteOS_Lab/iot_link/network/dtls/mbedtls/mbedtls-2.16.2/library\x509_crt.c ****  * EDIPartyName ::= SEQUENCE {
 609:C:/Users/dtjld/workspace/AIoT/src/LiteOS_Lab/iot_link/network/dtls/mbedtls/mbedtls-2.16.2/library\x509_crt.c ****  *      nameAssigner            [0]     DirectoryString OPTIONAL,
 610:C:/Users/dtjld/workspace/AIoT/src/LiteOS_Lab/iot_link/network/dtls/mbedtls/mbedtls-2.16.2/library\x509_crt.c ****  *      partyName               [1]     DirectoryString }
 611:C:/Users/dtjld/workspace/AIoT/src/LiteOS_Lab/iot_link/network/dtls/mbedtls/mbedtls-2.16.2/library\x509_crt.c ****  *
 612:C:/Users/dtjld/workspace/AIoT/src/LiteOS_Lab/iot_link/network/dtls/mbedtls/mbedtls-2.16.2/library\x509_crt.c ****  * NOTE: we only parse and use dNSName at this point.
 613:C:/Users/dtjld/workspace/AIoT/src/LiteOS_Lab/iot_link/network/dtls/mbedtls/mbedtls-2.16.2/library\x509_crt.c ****  */
 614:C:/Users/dtjld/workspace/AIoT/src/LiteOS_Lab/iot_link/network/dtls/mbedtls/mbedtls-2.16.2/library\x509_crt.c **** static int x509_get_subject_alt_name( unsigned char **p,
 615:C:/Users/dtjld/workspace/AIoT/src/LiteOS_Lab/iot_link/network/dtls/mbedtls/mbedtls-2.16.2/library\x509_crt.c ****                                       const unsigned char *end,
 616:C:/Users/dtjld/workspace/AIoT/src/LiteOS_Lab/iot_link/network/dtls/mbedtls/mbedtls-2.16.2/library\x509_crt.c ****                                       mbedtls_x509_sequence *subject_alt_name )
 617:C:/Users/dtjld/workspace/AIoT/src/LiteOS_Lab/iot_link/network/dtls/mbedtls/mbedtls-2.16.2/library\x509_crt.c **** {
 1691              		.loc 2 617 0
 1692              		.cfi_startproc
 1693              		@ args = 0, pretend = 0, frame = 40
 1694              		@ frame_needed = 1, uses_anonymous_args = 0
 1695 0000 80B5     		push	{r7, lr}
 1696              	.LCFI85:
 1697              		.cfi_def_cfa_offset 8
 1698              		.cfi_offset 7, -8
 1699              		.cfi_offset 14, -4
 1700 0002 8AB0     		sub	sp, sp, #40
 1701              	.LCFI86:
 1702              		.cfi_def_cfa_offset 48
 1703 0004 00AF     		add	r7, sp, #0
 1704              	.LCFI87:
 1705              		.cfi_def_cfa_register 7
 1706 0006 F860     		str	r0, [r7, #12]
 1707 0008 B960     		str	r1, [r7, #8]
 1708 000a 7A60     		str	r2, [r7, #4]
 618:C:/Users/dtjld/workspace/AIoT/src/LiteOS_Lab/iot_link/network/dtls/mbedtls/mbedtls-2.16.2/library\x509_crt.c ****     int ret;
 619:C:/Users/dtjld/workspace/AIoT/src/LiteOS_Lab/iot_link/network/dtls/mbedtls/mbedtls-2.16.2/library\x509_crt.c ****     size_t len, tag_len;
 620:C:/Users/dtjld/workspace/AIoT/src/LiteOS_Lab/iot_link/network/dtls/mbedtls/mbedtls-2.16.2/library\x509_crt.c ****     mbedtls_asn1_buf *buf;
 621:C:/Users/dtjld/workspace/AIoT/src/LiteOS_Lab/iot_link/network/dtls/mbedtls/mbedtls-2.16.2/library\x509_crt.c ****     unsigned char tag;
 622:C:/Users/dtjld/workspace/AIoT/src/LiteOS_Lab/iot_link/network/dtls/mbedtls/mbedtls-2.16.2/library\x509_crt.c ****     mbedtls_asn1_sequence *cur = subject_alt_name;
 1709              		.loc 2 622 0
 1710 000c 7B68     		ldr	r3, [r7, #4]
 1711 000e 7B62     		str	r3, [r7, #36]
 623:C:/Users/dtjld/workspace/AIoT/src/LiteOS_Lab/iot_link/network/dtls/mbedtls/mbedtls-2.16.2/library\x509_crt.c **** 
 624:C:/Users/dtjld/workspace/AIoT/src/LiteOS_Lab/iot_link/network/dtls/mbedtls/mbedtls-2.16.2/library\x509_crt.c ****     /* Get main sequence tag */
 625:C:/Users/dtjld/workspace/AIoT/src/LiteOS_Lab/iot_link/network/dtls/mbedtls/mbedtls-2.16.2/library\x509_crt.c ****     if( ( ret = mbedtls_asn1_get_tag( p, end, &len,
 1712              		.loc 2 625 0
 1713 0010 07F11402 		add	r2, r7, #20
 1714 0014 3023     		movs	r3, #48
 1715 0016 B968     		ldr	r1, [r7, #8]
 1716 0018 F868     		ldr	r0, [r7, #12]
 1717 001a FFF7FEFF 		bl	mbedtls_asn1_get_tag
 1718 001e 3862     		str	r0, [r7, #32]
 1719 0020 3B6A     		ldr	r3, [r7, #32]
 1720 0022 002B     		cmp	r3, #0
 1721 0024 03D0     		beq	.L120
 626:C:/Users/dtjld/workspace/AIoT/src/LiteOS_Lab/iot_link/network/dtls/mbedtls/mbedtls-2.16.2/library\x509_crt.c ****             MBEDTLS_ASN1_CONSTRUCTED | MBEDTLS_ASN1_SEQUENCE ) ) != 0 )
 627:C:/Users/dtjld/workspace/AIoT/src/LiteOS_Lab/iot_link/network/dtls/mbedtls/mbedtls-2.16.2/library\x509_crt.c ****         return( MBEDTLS_ERR_X509_INVALID_EXTENSIONS + ret );
 1722              		.loc 2 627 0
 1723 0026 3B6A     		ldr	r3, [r7, #32]
 1724 0028 A3F51453 		sub	r3, r3, #9472
ARM GAS  C:\Users\dtjld\AppData\Local\Temp\ccTXdst3.s 			page 45


 1725 002c 76E0     		b	.L133
 1726              	.L120:
 628:C:/Users/dtjld/workspace/AIoT/src/LiteOS_Lab/iot_link/network/dtls/mbedtls/mbedtls-2.16.2/library\x509_crt.c **** 
 629:C:/Users/dtjld/workspace/AIoT/src/LiteOS_Lab/iot_link/network/dtls/mbedtls/mbedtls-2.16.2/library\x509_crt.c ****     if( *p + len != end )
 1727              		.loc 2 629 0
 1728 002e FB68     		ldr	r3, [r7, #12]
 1729 0030 1A68     		ldr	r2, [r3]
 1730 0032 7B69     		ldr	r3, [r7, #20]
 1731 0034 1344     		add	r3, r3, r2
 1732 0036 BA68     		ldr	r2, [r7, #8]
 1733 0038 9A42     		cmp	r2, r3
 1734 003a 5FD0     		beq	.L123
 630:C:/Users/dtjld/workspace/AIoT/src/LiteOS_Lab/iot_link/network/dtls/mbedtls/mbedtls-2.16.2/library\x509_crt.c ****         return( MBEDTLS_ERR_X509_INVALID_EXTENSIONS +
 1735              		.loc 2 630 0
 1736 003c 394B     		ldr	r3, .L134
 1737 003e 6DE0     		b	.L133
 1738              	.L131:
 631:C:/Users/dtjld/workspace/AIoT/src/LiteOS_Lab/iot_link/network/dtls/mbedtls/mbedtls-2.16.2/library\x509_crt.c ****                 MBEDTLS_ERR_ASN1_LENGTH_MISMATCH );
 632:C:/Users/dtjld/workspace/AIoT/src/LiteOS_Lab/iot_link/network/dtls/mbedtls/mbedtls-2.16.2/library\x509_crt.c **** 
 633:C:/Users/dtjld/workspace/AIoT/src/LiteOS_Lab/iot_link/network/dtls/mbedtls/mbedtls-2.16.2/library\x509_crt.c ****     while( *p < end )
 634:C:/Users/dtjld/workspace/AIoT/src/LiteOS_Lab/iot_link/network/dtls/mbedtls/mbedtls-2.16.2/library\x509_crt.c ****     {
 635:C:/Users/dtjld/workspace/AIoT/src/LiteOS_Lab/iot_link/network/dtls/mbedtls/mbedtls-2.16.2/library\x509_crt.c ****         if( ( end - *p ) < 1 )
 1739              		.loc 2 635 0
 1740 0040 BB68     		ldr	r3, [r7, #8]
 1741 0042 FA68     		ldr	r2, [r7, #12]
 1742 0044 1268     		ldr	r2, [r2]
 1743 0046 9B1A     		subs	r3, r3, r2
 1744 0048 002B     		cmp	r3, #0
 1745 004a 01DC     		bgt	.L124
 636:C:/Users/dtjld/workspace/AIoT/src/LiteOS_Lab/iot_link/network/dtls/mbedtls/mbedtls-2.16.2/library\x509_crt.c ****             return( MBEDTLS_ERR_X509_INVALID_EXTENSIONS +
 1746              		.loc 2 636 0
 1747 004c 364B     		ldr	r3, .L134+4
 1748 004e 65E0     		b	.L133
 1749              	.L124:
 637:C:/Users/dtjld/workspace/AIoT/src/LiteOS_Lab/iot_link/network/dtls/mbedtls/mbedtls-2.16.2/library\x509_crt.c ****                     MBEDTLS_ERR_ASN1_OUT_OF_DATA );
 638:C:/Users/dtjld/workspace/AIoT/src/LiteOS_Lab/iot_link/network/dtls/mbedtls/mbedtls-2.16.2/library\x509_crt.c **** 
 639:C:/Users/dtjld/workspace/AIoT/src/LiteOS_Lab/iot_link/network/dtls/mbedtls/mbedtls-2.16.2/library\x509_crt.c ****         tag = **p;
 1750              		.loc 2 639 0
 1751 0050 FB68     		ldr	r3, [r7, #12]
 1752 0052 1B68     		ldr	r3, [r3]
 1753 0054 1B78     		ldrb	r3, [r3]
 1754 0056 FB77     		strb	r3, [r7, #31]
 640:C:/Users/dtjld/workspace/AIoT/src/LiteOS_Lab/iot_link/network/dtls/mbedtls/mbedtls-2.16.2/library\x509_crt.c ****         (*p)++;
 1755              		.loc 2 640 0
 1756 0058 FB68     		ldr	r3, [r7, #12]
 1757 005a 1B68     		ldr	r3, [r3]
 1758 005c 5A1C     		adds	r2, r3, #1
 1759 005e FB68     		ldr	r3, [r7, #12]
 1760 0060 1A60     		str	r2, [r3]
 641:C:/Users/dtjld/workspace/AIoT/src/LiteOS_Lab/iot_link/network/dtls/mbedtls/mbedtls-2.16.2/library\x509_crt.c ****         if( ( ret = mbedtls_asn1_get_len( p, end, &tag_len ) ) != 0 )
 1761              		.loc 2 641 0
 1762 0062 07F11003 		add	r3, r7, #16
 1763 0066 1A46     		mov	r2, r3
 1764 0068 B968     		ldr	r1, [r7, #8]
 1765 006a F868     		ldr	r0, [r7, #12]
 1766 006c FFF7FEFF 		bl	mbedtls_asn1_get_len
 1767 0070 3862     		str	r0, [r7, #32]
ARM GAS  C:\Users\dtjld\AppData\Local\Temp\ccTXdst3.s 			page 46


 1768 0072 3B6A     		ldr	r3, [r7, #32]
 1769 0074 002B     		cmp	r3, #0
 1770 0076 03D0     		beq	.L125
 642:C:/Users/dtjld/workspace/AIoT/src/LiteOS_Lab/iot_link/network/dtls/mbedtls/mbedtls-2.16.2/library\x509_crt.c ****             return( MBEDTLS_ERR_X509_INVALID_EXTENSIONS + ret );
 1771              		.loc 2 642 0
 1772 0078 3B6A     		ldr	r3, [r7, #32]
 1773 007a A3F51453 		sub	r3, r3, #9472
 1774 007e 4DE0     		b	.L133
 1775              	.L125:
 643:C:/Users/dtjld/workspace/AIoT/src/LiteOS_Lab/iot_link/network/dtls/mbedtls/mbedtls-2.16.2/library\x509_crt.c **** 
 644:C:/Users/dtjld/workspace/AIoT/src/LiteOS_Lab/iot_link/network/dtls/mbedtls/mbedtls-2.16.2/library\x509_crt.c ****         if( ( tag & MBEDTLS_ASN1_TAG_CLASS_MASK ) !=
 1776              		.loc 2 644 0
 1777 0080 FB7F     		ldrb	r3, [r7, #31]	@ zero_extendqisi2
 1778 0082 03F0C003 		and	r3, r3, #192
 1779 0086 802B     		cmp	r3, #128
 1780 0088 01D0     		beq	.L126
 645:C:/Users/dtjld/workspace/AIoT/src/LiteOS_Lab/iot_link/network/dtls/mbedtls/mbedtls-2.16.2/library\x509_crt.c ****                 MBEDTLS_ASN1_CONTEXT_SPECIFIC )
 646:C:/Users/dtjld/workspace/AIoT/src/LiteOS_Lab/iot_link/network/dtls/mbedtls/mbedtls-2.16.2/library\x509_crt.c ****         {
 647:C:/Users/dtjld/workspace/AIoT/src/LiteOS_Lab/iot_link/network/dtls/mbedtls/mbedtls-2.16.2/library\x509_crt.c ****             return( MBEDTLS_ERR_X509_INVALID_EXTENSIONS +
 1781              		.loc 2 647 0
 1782 008a 284B     		ldr	r3, .L134+8
 1783 008c 46E0     		b	.L133
 1784              	.L126:
 648:C:/Users/dtjld/workspace/AIoT/src/LiteOS_Lab/iot_link/network/dtls/mbedtls/mbedtls-2.16.2/library\x509_crt.c ****                     MBEDTLS_ERR_ASN1_UNEXPECTED_TAG );
 649:C:/Users/dtjld/workspace/AIoT/src/LiteOS_Lab/iot_link/network/dtls/mbedtls/mbedtls-2.16.2/library\x509_crt.c ****         }
 650:C:/Users/dtjld/workspace/AIoT/src/LiteOS_Lab/iot_link/network/dtls/mbedtls/mbedtls-2.16.2/library\x509_crt.c **** 
 651:C:/Users/dtjld/workspace/AIoT/src/LiteOS_Lab/iot_link/network/dtls/mbedtls/mbedtls-2.16.2/library\x509_crt.c ****         /* Skip everything but DNS name */
 652:C:/Users/dtjld/workspace/AIoT/src/LiteOS_Lab/iot_link/network/dtls/mbedtls/mbedtls-2.16.2/library\x509_crt.c ****         if( tag != ( MBEDTLS_ASN1_CONTEXT_SPECIFIC | 2 ) )
 1785              		.loc 2 652 0
 1786 008e FB7F     		ldrb	r3, [r7, #31]	@ zero_extendqisi2
 1787 0090 822B     		cmp	r3, #130
 1788 0092 06D0     		beq	.L127
 653:C:/Users/dtjld/workspace/AIoT/src/LiteOS_Lab/iot_link/network/dtls/mbedtls/mbedtls-2.16.2/library\x509_crt.c ****         {
 654:C:/Users/dtjld/workspace/AIoT/src/LiteOS_Lab/iot_link/network/dtls/mbedtls/mbedtls-2.16.2/library\x509_crt.c ****             *p += tag_len;
 1789              		.loc 2 654 0
 1790 0094 FB68     		ldr	r3, [r7, #12]
 1791 0096 1A68     		ldr	r2, [r3]
 1792 0098 3B69     		ldr	r3, [r7, #16]
 1793 009a 1A44     		add	r2, r2, r3
 1794 009c FB68     		ldr	r3, [r7, #12]
 1795 009e 1A60     		str	r2, [r3]
 655:C:/Users/dtjld/workspace/AIoT/src/LiteOS_Lab/iot_link/network/dtls/mbedtls/mbedtls-2.16.2/library\x509_crt.c ****             continue;
 1796              		.loc 2 655 0
 1797 00a0 2CE0     		b	.L123
 1798              	.L127:
 656:C:/Users/dtjld/workspace/AIoT/src/LiteOS_Lab/iot_link/network/dtls/mbedtls/mbedtls-2.16.2/library\x509_crt.c ****         }
 657:C:/Users/dtjld/workspace/AIoT/src/LiteOS_Lab/iot_link/network/dtls/mbedtls/mbedtls-2.16.2/library\x509_crt.c **** 
 658:C:/Users/dtjld/workspace/AIoT/src/LiteOS_Lab/iot_link/network/dtls/mbedtls/mbedtls-2.16.2/library\x509_crt.c ****         /* Allocate and assign next pointer */
 659:C:/Users/dtjld/workspace/AIoT/src/LiteOS_Lab/iot_link/network/dtls/mbedtls/mbedtls-2.16.2/library\x509_crt.c ****         if( cur->buf.p != NULL )
 1799              		.loc 2 659 0
 1800 00a2 7B6A     		ldr	r3, [r7, #36]
 1801 00a4 9B68     		ldr	r3, [r3, #8]
 1802 00a6 002B     		cmp	r3, #0
 1803 00a8 15D0     		beq	.L128
 660:C:/Users/dtjld/workspace/AIoT/src/LiteOS_Lab/iot_link/network/dtls/mbedtls/mbedtls-2.16.2/library\x509_crt.c ****         {
 661:C:/Users/dtjld/workspace/AIoT/src/LiteOS_Lab/iot_link/network/dtls/mbedtls/mbedtls-2.16.2/library\x509_crt.c ****             if( cur->next != NULL )
 1804              		.loc 2 661 0
ARM GAS  C:\Users\dtjld\AppData\Local\Temp\ccTXdst3.s 			page 47


 1805 00aa 7B6A     		ldr	r3, [r7, #36]
 1806 00ac DB68     		ldr	r3, [r3, #12]
 1807 00ae 002B     		cmp	r3, #0
 1808 00b0 01D0     		beq	.L129
 662:C:/Users/dtjld/workspace/AIoT/src/LiteOS_Lab/iot_link/network/dtls/mbedtls/mbedtls-2.16.2/library\x509_crt.c ****                 return( MBEDTLS_ERR_X509_INVALID_EXTENSIONS );
 1809              		.loc 2 662 0
 1810 00b2 1F4B     		ldr	r3, .L134+12
 1811 00b4 32E0     		b	.L133
 1812              	.L129:
 663:C:/Users/dtjld/workspace/AIoT/src/LiteOS_Lab/iot_link/network/dtls/mbedtls/mbedtls-2.16.2/library\x509_crt.c **** 
 664:C:/Users/dtjld/workspace/AIoT/src/LiteOS_Lab/iot_link/network/dtls/mbedtls/mbedtls-2.16.2/library\x509_crt.c ****             cur->next = mbedtls_calloc( 1, sizeof( mbedtls_asn1_sequence ) );
 1813              		.loc 2 664 0
 1814 00b6 1021     		movs	r1, #16
 1815 00b8 0120     		movs	r0, #1
 1816 00ba FFF7FEFF 		bl	mbedtls_calloc
 1817 00be 0246     		mov	r2, r0
 1818 00c0 7B6A     		ldr	r3, [r7, #36]
 1819 00c2 DA60     		str	r2, [r3, #12]
 665:C:/Users/dtjld/workspace/AIoT/src/LiteOS_Lab/iot_link/network/dtls/mbedtls/mbedtls-2.16.2/library\x509_crt.c **** 
 666:C:/Users/dtjld/workspace/AIoT/src/LiteOS_Lab/iot_link/network/dtls/mbedtls/mbedtls-2.16.2/library\x509_crt.c ****             if( cur->next == NULL )
 1820              		.loc 2 666 0
 1821 00c4 7B6A     		ldr	r3, [r7, #36]
 1822 00c6 DB68     		ldr	r3, [r3, #12]
 1823 00c8 002B     		cmp	r3, #0
 1824 00ca 01D1     		bne	.L130
 667:C:/Users/dtjld/workspace/AIoT/src/LiteOS_Lab/iot_link/network/dtls/mbedtls/mbedtls-2.16.2/library\x509_crt.c ****                 return( MBEDTLS_ERR_X509_INVALID_EXTENSIONS +
 1825              		.loc 2 667 0
 1826 00cc 194B     		ldr	r3, .L134+16
 1827 00ce 25E0     		b	.L133
 1828              	.L130:
 668:C:/Users/dtjld/workspace/AIoT/src/LiteOS_Lab/iot_link/network/dtls/mbedtls/mbedtls-2.16.2/library\x509_crt.c ****                         MBEDTLS_ERR_ASN1_ALLOC_FAILED );
 669:C:/Users/dtjld/workspace/AIoT/src/LiteOS_Lab/iot_link/network/dtls/mbedtls/mbedtls-2.16.2/library\x509_crt.c **** 
 670:C:/Users/dtjld/workspace/AIoT/src/LiteOS_Lab/iot_link/network/dtls/mbedtls/mbedtls-2.16.2/library\x509_crt.c ****             cur = cur->next;
 1829              		.loc 2 670 0
 1830 00d0 7B6A     		ldr	r3, [r7, #36]
 1831 00d2 DB68     		ldr	r3, [r3, #12]
 1832 00d4 7B62     		str	r3, [r7, #36]
 1833              	.L128:
 671:C:/Users/dtjld/workspace/AIoT/src/LiteOS_Lab/iot_link/network/dtls/mbedtls/mbedtls-2.16.2/library\x509_crt.c ****         }
 672:C:/Users/dtjld/workspace/AIoT/src/LiteOS_Lab/iot_link/network/dtls/mbedtls/mbedtls-2.16.2/library\x509_crt.c **** 
 673:C:/Users/dtjld/workspace/AIoT/src/LiteOS_Lab/iot_link/network/dtls/mbedtls/mbedtls-2.16.2/library\x509_crt.c ****         buf = &(cur->buf);
 1834              		.loc 2 673 0
 1835 00d6 7B6A     		ldr	r3, [r7, #36]
 1836 00d8 BB61     		str	r3, [r7, #24]
 674:C:/Users/dtjld/workspace/AIoT/src/LiteOS_Lab/iot_link/network/dtls/mbedtls/mbedtls-2.16.2/library\x509_crt.c ****         buf->tag = tag;
 1837              		.loc 2 674 0
 1838 00da FA7F     		ldrb	r2, [r7, #31]	@ zero_extendqisi2
 1839 00dc BB69     		ldr	r3, [r7, #24]
 1840 00de 1A60     		str	r2, [r3]
 675:C:/Users/dtjld/workspace/AIoT/src/LiteOS_Lab/iot_link/network/dtls/mbedtls/mbedtls-2.16.2/library\x509_crt.c ****         buf->p = *p;
 1841              		.loc 2 675 0
 1842 00e0 FB68     		ldr	r3, [r7, #12]
 1843 00e2 1A68     		ldr	r2, [r3]
 1844 00e4 BB69     		ldr	r3, [r7, #24]
 1845 00e6 9A60     		str	r2, [r3, #8]
 676:C:/Users/dtjld/workspace/AIoT/src/LiteOS_Lab/iot_link/network/dtls/mbedtls/mbedtls-2.16.2/library\x509_crt.c ****         buf->len = tag_len;
 1846              		.loc 2 676 0
ARM GAS  C:\Users\dtjld\AppData\Local\Temp\ccTXdst3.s 			page 48


 1847 00e8 3A69     		ldr	r2, [r7, #16]
 1848 00ea BB69     		ldr	r3, [r7, #24]
 1849 00ec 5A60     		str	r2, [r3, #4]
 677:C:/Users/dtjld/workspace/AIoT/src/LiteOS_Lab/iot_link/network/dtls/mbedtls/mbedtls-2.16.2/library\x509_crt.c ****         *p += buf->len;
 1850              		.loc 2 677 0
 1851 00ee FB68     		ldr	r3, [r7, #12]
 1852 00f0 1A68     		ldr	r2, [r3]
 1853 00f2 BB69     		ldr	r3, [r7, #24]
 1854 00f4 5B68     		ldr	r3, [r3, #4]
 1855 00f6 1A44     		add	r2, r2, r3
 1856 00f8 FB68     		ldr	r3, [r7, #12]
 1857 00fa 1A60     		str	r2, [r3]
 1858              	.L123:
 633:C:/Users/dtjld/workspace/AIoT/src/LiteOS_Lab/iot_link/network/dtls/mbedtls/mbedtls-2.16.2/library\x509_crt.c ****     {
 1859              		.loc 2 633 0
 1860 00fc FB68     		ldr	r3, [r7, #12]
 1861 00fe 1B68     		ldr	r3, [r3]
 1862 0100 BA68     		ldr	r2, [r7, #8]
 1863 0102 9A42     		cmp	r2, r3
 1864 0104 9CD8     		bhi	.L131
 678:C:/Users/dtjld/workspace/AIoT/src/LiteOS_Lab/iot_link/network/dtls/mbedtls/mbedtls-2.16.2/library\x509_crt.c ****     }
 679:C:/Users/dtjld/workspace/AIoT/src/LiteOS_Lab/iot_link/network/dtls/mbedtls/mbedtls-2.16.2/library\x509_crt.c **** 
 680:C:/Users/dtjld/workspace/AIoT/src/LiteOS_Lab/iot_link/network/dtls/mbedtls/mbedtls-2.16.2/library\x509_crt.c ****     /* Set final sequence entry's next pointer to NULL */
 681:C:/Users/dtjld/workspace/AIoT/src/LiteOS_Lab/iot_link/network/dtls/mbedtls/mbedtls-2.16.2/library\x509_crt.c ****     cur->next = NULL;
 1865              		.loc 2 681 0
 1866 0106 7B6A     		ldr	r3, [r7, #36]
 1867 0108 0022     		movs	r2, #0
 1868 010a DA60     		str	r2, [r3, #12]
 682:C:/Users/dtjld/workspace/AIoT/src/LiteOS_Lab/iot_link/network/dtls/mbedtls/mbedtls-2.16.2/library\x509_crt.c **** 
 683:C:/Users/dtjld/workspace/AIoT/src/LiteOS_Lab/iot_link/network/dtls/mbedtls/mbedtls-2.16.2/library\x509_crt.c ****     if( *p != end )
 1869              		.loc 2 683 0
 1870 010c FB68     		ldr	r3, [r7, #12]
 1871 010e 1B68     		ldr	r3, [r3]
 1872 0110 BA68     		ldr	r2, [r7, #8]
 1873 0112 9A42     		cmp	r2, r3
 1874 0114 01D0     		beq	.L132
 684:C:/Users/dtjld/workspace/AIoT/src/LiteOS_Lab/iot_link/network/dtls/mbedtls/mbedtls-2.16.2/library\x509_crt.c ****         return( MBEDTLS_ERR_X509_INVALID_EXTENSIONS +
 1875              		.loc 2 684 0
 1876 0116 034B     		ldr	r3, .L134
 1877 0118 00E0     		b	.L133
 1878              	.L132:
 685:C:/Users/dtjld/workspace/AIoT/src/LiteOS_Lab/iot_link/network/dtls/mbedtls/mbedtls-2.16.2/library\x509_crt.c ****                 MBEDTLS_ERR_ASN1_LENGTH_MISMATCH );
 686:C:/Users/dtjld/workspace/AIoT/src/LiteOS_Lab/iot_link/network/dtls/mbedtls/mbedtls-2.16.2/library\x509_crt.c **** 
 687:C:/Users/dtjld/workspace/AIoT/src/LiteOS_Lab/iot_link/network/dtls/mbedtls/mbedtls-2.16.2/library\x509_crt.c ****     return( 0 );
 1879              		.loc 2 687 0
 1880 011a 0023     		movs	r3, #0
 1881              	.L133:
 688:C:/Users/dtjld/workspace/AIoT/src/LiteOS_Lab/iot_link/network/dtls/mbedtls/mbedtls-2.16.2/library\x509_crt.c **** }
 1882              		.loc 2 688 0 discriminator 1
 1883 011c 1846     		mov	r0, r3
 1884 011e 2837     		adds	r7, r7, #40
 1885              	.LCFI88:
 1886              		.cfi_def_cfa_offset 8
 1887 0120 BD46     		mov	sp, r7
 1888              	.LCFI89:
 1889              		.cfi_def_cfa_register 13
 1890              		@ sp needed
ARM GAS  C:\Users\dtjld\AppData\Local\Temp\ccTXdst3.s 			page 49


 1891 0122 80BD     		pop	{r7, pc}
 1892              	.L135:
 1893              		.align	2
 1894              	.L134:
 1895 0124 9ADAFFFF 		.word	-9574
 1896 0128 A0DAFFFF 		.word	-9568
 1897 012c 9EDAFFFF 		.word	-9570
 1898 0130 00DBFFFF 		.word	-9472
 1899 0134 96DAFFFF 		.word	-9578
 1900              		.cfi_endproc
 1901              	.LFE28:
 1903              		.section	.text.x509_get_crt_ext,"ax",%progbits
 1904              		.align	1
 1905              		.syntax unified
 1906              		.thumb
 1907              		.thumb_func
 1908              		.fpu fpv4-sp-d16
 1910              	x509_get_crt_ext:
 1911              	.LFB29:
 689:C:/Users/dtjld/workspace/AIoT/src/LiteOS_Lab/iot_link/network/dtls/mbedtls/mbedtls-2.16.2/library\x509_crt.c **** 
 690:C:/Users/dtjld/workspace/AIoT/src/LiteOS_Lab/iot_link/network/dtls/mbedtls/mbedtls-2.16.2/library\x509_crt.c **** /*
 691:C:/Users/dtjld/workspace/AIoT/src/LiteOS_Lab/iot_link/network/dtls/mbedtls/mbedtls-2.16.2/library\x509_crt.c ****  * X.509 v3 extensions
 692:C:/Users/dtjld/workspace/AIoT/src/LiteOS_Lab/iot_link/network/dtls/mbedtls/mbedtls-2.16.2/library\x509_crt.c ****  *
 693:C:/Users/dtjld/workspace/AIoT/src/LiteOS_Lab/iot_link/network/dtls/mbedtls/mbedtls-2.16.2/library\x509_crt.c ****  */
 694:C:/Users/dtjld/workspace/AIoT/src/LiteOS_Lab/iot_link/network/dtls/mbedtls/mbedtls-2.16.2/library\x509_crt.c **** static int x509_get_crt_ext( unsigned char **p,
 695:C:/Users/dtjld/workspace/AIoT/src/LiteOS_Lab/iot_link/network/dtls/mbedtls/mbedtls-2.16.2/library\x509_crt.c ****                              const unsigned char *end,
 696:C:/Users/dtjld/workspace/AIoT/src/LiteOS_Lab/iot_link/network/dtls/mbedtls/mbedtls-2.16.2/library\x509_crt.c ****                              mbedtls_x509_crt *crt )
 697:C:/Users/dtjld/workspace/AIoT/src/LiteOS_Lab/iot_link/network/dtls/mbedtls/mbedtls-2.16.2/library\x509_crt.c **** {
 1912              		.loc 2 697 0
 1913              		.cfi_startproc
 1914              		@ args = 0, pretend = 0, frame = 56
 1915              		@ frame_needed = 1, uses_anonymous_args = 0
 1916 0000 80B5     		push	{r7, lr}
 1917              	.LCFI90:
 1918              		.cfi_def_cfa_offset 8
 1919              		.cfi_offset 7, -8
 1920              		.cfi_offset 14, -4
 1921 0002 8EB0     		sub	sp, sp, #56
 1922              	.LCFI91:
 1923              		.cfi_def_cfa_offset 64
 1924 0004 00AF     		add	r7, sp, #0
 1925              	.LCFI92:
 1926              		.cfi_def_cfa_register 7
 1927 0006 F860     		str	r0, [r7, #12]
 1928 0008 B960     		str	r1, [r7, #8]
 1929 000a 7A60     		str	r2, [r7, #4]
 698:C:/Users/dtjld/workspace/AIoT/src/LiteOS_Lab/iot_link/network/dtls/mbedtls/mbedtls-2.16.2/library\x509_crt.c ****     int ret;
 699:C:/Users/dtjld/workspace/AIoT/src/LiteOS_Lab/iot_link/network/dtls/mbedtls/mbedtls-2.16.2/library\x509_crt.c ****     size_t len;
 700:C:/Users/dtjld/workspace/AIoT/src/LiteOS_Lab/iot_link/network/dtls/mbedtls/mbedtls-2.16.2/library\x509_crt.c ****     unsigned char *end_ext_data, *end_ext_octet;
 701:C:/Users/dtjld/workspace/AIoT/src/LiteOS_Lab/iot_link/network/dtls/mbedtls/mbedtls-2.16.2/library\x509_crt.c **** 
 702:C:/Users/dtjld/workspace/AIoT/src/LiteOS_Lab/iot_link/network/dtls/mbedtls/mbedtls-2.16.2/library\x509_crt.c ****     if( *p == end )
 1930              		.loc 2 702 0
 1931 000c FB68     		ldr	r3, [r7, #12]
 1932 000e 1B68     		ldr	r3, [r3]
 1933 0010 BA68     		ldr	r2, [r7, #8]
 1934 0012 9A42     		cmp	r2, r3
 1935 0014 01D1     		bne	.L137
ARM GAS  C:\Users\dtjld\AppData\Local\Temp\ccTXdst3.s 			page 50


 703:C:/Users/dtjld/workspace/AIoT/src/LiteOS_Lab/iot_link/network/dtls/mbedtls/mbedtls-2.16.2/library\x509_crt.c ****         return( 0 );
 1936              		.loc 2 703 0
 1937 0016 0023     		movs	r3, #0
 1938 0018 14E1     		b	.L165
 1939              	.L137:
 704:C:/Users/dtjld/workspace/AIoT/src/LiteOS_Lab/iot_link/network/dtls/mbedtls/mbedtls-2.16.2/library\x509_crt.c **** 
 705:C:/Users/dtjld/workspace/AIoT/src/LiteOS_Lab/iot_link/network/dtls/mbedtls/mbedtls-2.16.2/library\x509_crt.c ****     if( ( ret = mbedtls_x509_get_ext( p, end, &crt->v3_ext, 3 ) ) != 0 )
 1940              		.loc 2 705 0
 1941 001a 7B68     		ldr	r3, [r7, #4]
 1942 001c 03F1DC02 		add	r2, r3, #220
 1943 0020 0323     		movs	r3, #3
 1944 0022 B968     		ldr	r1, [r7, #8]
 1945 0024 F868     		ldr	r0, [r7, #12]
 1946 0026 FFF7FEFF 		bl	mbedtls_x509_get_ext
 1947 002a 7863     		str	r0, [r7, #52]
 1948 002c 7B6B     		ldr	r3, [r7, #52]
 1949 002e 002B     		cmp	r3, #0
 1950 0030 01D0     		beq	.L139
 706:C:/Users/dtjld/workspace/AIoT/src/LiteOS_Lab/iot_link/network/dtls/mbedtls/mbedtls-2.16.2/library\x509_crt.c ****         return( ret );
 1951              		.loc 2 706 0
 1952 0032 7B6B     		ldr	r3, [r7, #52]
 1953 0034 06E1     		b	.L165
 1954              	.L139:
 707:C:/Users/dtjld/workspace/AIoT/src/LiteOS_Lab/iot_link/network/dtls/mbedtls/mbedtls-2.16.2/library\x509_crt.c **** 
 708:C:/Users/dtjld/workspace/AIoT/src/LiteOS_Lab/iot_link/network/dtls/mbedtls/mbedtls-2.16.2/library\x509_crt.c ****     end = crt->v3_ext.p + crt->v3_ext.len;
 1955              		.loc 2 708 0
 1956 0036 7B68     		ldr	r3, [r7, #4]
 1957 0038 D3F8E420 		ldr	r2, [r3, #228]
 1958 003c 7B68     		ldr	r3, [r7, #4]
 1959 003e D3F8E030 		ldr	r3, [r3, #224]
 1960 0042 1344     		add	r3, r3, r2
 1961 0044 BB60     		str	r3, [r7, #8]
 709:C:/Users/dtjld/workspace/AIoT/src/LiteOS_Lab/iot_link/network/dtls/mbedtls/mbedtls-2.16.2/library\x509_crt.c ****     while( *p < end )
 1962              		.loc 2 709 0
 1963 0046 EFE0     		b	.L140
 1964              	.L163:
 1965              	.LBB3:
 710:C:/Users/dtjld/workspace/AIoT/src/LiteOS_Lab/iot_link/network/dtls/mbedtls/mbedtls-2.16.2/library\x509_crt.c ****     {
 711:C:/Users/dtjld/workspace/AIoT/src/LiteOS_Lab/iot_link/network/dtls/mbedtls/mbedtls-2.16.2/library\x509_crt.c ****         /*
 712:C:/Users/dtjld/workspace/AIoT/src/LiteOS_Lab/iot_link/network/dtls/mbedtls/mbedtls-2.16.2/library\x509_crt.c ****          * Extension  ::=  SEQUENCE  {
 713:C:/Users/dtjld/workspace/AIoT/src/LiteOS_Lab/iot_link/network/dtls/mbedtls/mbedtls-2.16.2/library\x509_crt.c ****          *      extnID      OBJECT IDENTIFIER,
 714:C:/Users/dtjld/workspace/AIoT/src/LiteOS_Lab/iot_link/network/dtls/mbedtls/mbedtls-2.16.2/library\x509_crt.c ****          *      critical    BOOLEAN DEFAULT FALSE,
 715:C:/Users/dtjld/workspace/AIoT/src/LiteOS_Lab/iot_link/network/dtls/mbedtls/mbedtls-2.16.2/library\x509_crt.c ****          *      extnValue   OCTET STRING  }
 716:C:/Users/dtjld/workspace/AIoT/src/LiteOS_Lab/iot_link/network/dtls/mbedtls/mbedtls-2.16.2/library\x509_crt.c ****          */
 717:C:/Users/dtjld/workspace/AIoT/src/LiteOS_Lab/iot_link/network/dtls/mbedtls/mbedtls-2.16.2/library\x509_crt.c ****         mbedtls_x509_buf extn_oid = {0, 0, NULL};
 1966              		.loc 2 717 0
 1967 0048 0023     		movs	r3, #0
 1968 004a FB61     		str	r3, [r7, #28]
 1969 004c 0023     		movs	r3, #0
 1970 004e 3B62     		str	r3, [r7, #32]
 1971 0050 0023     		movs	r3, #0
 1972 0052 7B62     		str	r3, [r7, #36]
 718:C:/Users/dtjld/workspace/AIoT/src/LiteOS_Lab/iot_link/network/dtls/mbedtls/mbedtls-2.16.2/library\x509_crt.c ****         int is_critical = 0; /* DEFAULT FALSE */
 1973              		.loc 2 718 0
 1974 0054 0023     		movs	r3, #0
 1975 0056 BB61     		str	r3, [r7, #24]
 719:C:/Users/dtjld/workspace/AIoT/src/LiteOS_Lab/iot_link/network/dtls/mbedtls/mbedtls-2.16.2/library\x509_crt.c ****         int ext_type = 0;
ARM GAS  C:\Users\dtjld\AppData\Local\Temp\ccTXdst3.s 			page 51


 1976              		.loc 2 719 0
 1977 0058 0023     		movs	r3, #0
 1978 005a 7B61     		str	r3, [r7, #20]
 720:C:/Users/dtjld/workspace/AIoT/src/LiteOS_Lab/iot_link/network/dtls/mbedtls/mbedtls-2.16.2/library\x509_crt.c **** 
 721:C:/Users/dtjld/workspace/AIoT/src/LiteOS_Lab/iot_link/network/dtls/mbedtls/mbedtls-2.16.2/library\x509_crt.c ****         if( ( ret = mbedtls_asn1_get_tag( p, end, &len,
 1979              		.loc 2 721 0
 1980 005c 07F12802 		add	r2, r7, #40
 1981 0060 3023     		movs	r3, #48
 1982 0062 B968     		ldr	r1, [r7, #8]
 1983 0064 F868     		ldr	r0, [r7, #12]
 1984 0066 FFF7FEFF 		bl	mbedtls_asn1_get_tag
 1985 006a 7863     		str	r0, [r7, #52]
 1986 006c 7B6B     		ldr	r3, [r7, #52]
 1987 006e 002B     		cmp	r3, #0
 1988 0070 03D0     		beq	.L141
 722:C:/Users/dtjld/workspace/AIoT/src/LiteOS_Lab/iot_link/network/dtls/mbedtls/mbedtls-2.16.2/library\x509_crt.c ****                 MBEDTLS_ASN1_CONSTRUCTED | MBEDTLS_ASN1_SEQUENCE ) ) != 0 )
 723:C:/Users/dtjld/workspace/AIoT/src/LiteOS_Lab/iot_link/network/dtls/mbedtls/mbedtls-2.16.2/library\x509_crt.c ****             return( MBEDTLS_ERR_X509_INVALID_EXTENSIONS + ret );
 1989              		.loc 2 723 0
 1990 0072 7B6B     		ldr	r3, [r7, #52]
 1991 0074 A3F51453 		sub	r3, r3, #9472
 1992 0078 E4E0     		b	.L165
 1993              	.L141:
 724:C:/Users/dtjld/workspace/AIoT/src/LiteOS_Lab/iot_link/network/dtls/mbedtls/mbedtls-2.16.2/library\x509_crt.c **** 
 725:C:/Users/dtjld/workspace/AIoT/src/LiteOS_Lab/iot_link/network/dtls/mbedtls/mbedtls-2.16.2/library\x509_crt.c ****         end_ext_data = *p + len;
 1994              		.loc 2 725 0
 1995 007a FB68     		ldr	r3, [r7, #12]
 1996 007c 1A68     		ldr	r2, [r3]
 1997 007e BB6A     		ldr	r3, [r7, #40]
 1998 0080 1344     		add	r3, r3, r2
 1999 0082 3B63     		str	r3, [r7, #48]
 726:C:/Users/dtjld/workspace/AIoT/src/LiteOS_Lab/iot_link/network/dtls/mbedtls/mbedtls-2.16.2/library\x509_crt.c **** 
 727:C:/Users/dtjld/workspace/AIoT/src/LiteOS_Lab/iot_link/network/dtls/mbedtls/mbedtls-2.16.2/library\x509_crt.c ****         /* Get extension ID */
 728:C:/Users/dtjld/workspace/AIoT/src/LiteOS_Lab/iot_link/network/dtls/mbedtls/mbedtls-2.16.2/library\x509_crt.c ****         if( ( ret = mbedtls_asn1_get_tag( p, end_ext_data, &extn_oid.len,
 2000              		.loc 2 728 0
 2001 0084 07F11C03 		add	r3, r7, #28
 2002 0088 1A1D     		adds	r2, r3, #4
 2003 008a 0623     		movs	r3, #6
 2004 008c 396B     		ldr	r1, [r7, #48]
 2005 008e F868     		ldr	r0, [r7, #12]
 2006 0090 FFF7FEFF 		bl	mbedtls_asn1_get_tag
 2007 0094 7863     		str	r0, [r7, #52]
 2008 0096 7B6B     		ldr	r3, [r7, #52]
 2009 0098 002B     		cmp	r3, #0
 2010 009a 03D0     		beq	.L143
 729:C:/Users/dtjld/workspace/AIoT/src/LiteOS_Lab/iot_link/network/dtls/mbedtls/mbedtls-2.16.2/library\x509_crt.c ****                                           MBEDTLS_ASN1_OID ) ) != 0 )
 730:C:/Users/dtjld/workspace/AIoT/src/LiteOS_Lab/iot_link/network/dtls/mbedtls/mbedtls-2.16.2/library\x509_crt.c ****             return( MBEDTLS_ERR_X509_INVALID_EXTENSIONS + ret );
 2011              		.loc 2 730 0
 2012 009c 7B6B     		ldr	r3, [r7, #52]
 2013 009e A3F51453 		sub	r3, r3, #9472
 2014 00a2 CFE0     		b	.L165
 2015              	.L143:
 731:C:/Users/dtjld/workspace/AIoT/src/LiteOS_Lab/iot_link/network/dtls/mbedtls/mbedtls-2.16.2/library\x509_crt.c **** 
 732:C:/Users/dtjld/workspace/AIoT/src/LiteOS_Lab/iot_link/network/dtls/mbedtls/mbedtls-2.16.2/library\x509_crt.c ****         extn_oid.tag = MBEDTLS_ASN1_OID;
 2016              		.loc 2 732 0
 2017 00a4 0623     		movs	r3, #6
 2018 00a6 FB61     		str	r3, [r7, #28]
 733:C:/Users/dtjld/workspace/AIoT/src/LiteOS_Lab/iot_link/network/dtls/mbedtls/mbedtls-2.16.2/library\x509_crt.c ****         extn_oid.p = *p;
ARM GAS  C:\Users\dtjld\AppData\Local\Temp\ccTXdst3.s 			page 52


 2019              		.loc 2 733 0
 2020 00a8 FB68     		ldr	r3, [r7, #12]
 2021 00aa 1B68     		ldr	r3, [r3]
 2022 00ac 7B62     		str	r3, [r7, #36]
 734:C:/Users/dtjld/workspace/AIoT/src/LiteOS_Lab/iot_link/network/dtls/mbedtls/mbedtls-2.16.2/library\x509_crt.c ****         *p += extn_oid.len;
 2023              		.loc 2 734 0
 2024 00ae FB68     		ldr	r3, [r7, #12]
 2025 00b0 1A68     		ldr	r2, [r3]
 2026 00b2 3B6A     		ldr	r3, [r7, #32]
 2027 00b4 1A44     		add	r2, r2, r3
 2028 00b6 FB68     		ldr	r3, [r7, #12]
 2029 00b8 1A60     		str	r2, [r3]
 735:C:/Users/dtjld/workspace/AIoT/src/LiteOS_Lab/iot_link/network/dtls/mbedtls/mbedtls-2.16.2/library\x509_crt.c **** 
 736:C:/Users/dtjld/workspace/AIoT/src/LiteOS_Lab/iot_link/network/dtls/mbedtls/mbedtls-2.16.2/library\x509_crt.c ****         /* Get optional critical */
 737:C:/Users/dtjld/workspace/AIoT/src/LiteOS_Lab/iot_link/network/dtls/mbedtls/mbedtls-2.16.2/library\x509_crt.c ****         if( ( ret = mbedtls_asn1_get_bool( p, end_ext_data, &is_critical ) ) != 0 &&
 2030              		.loc 2 737 0
 2031 00ba 07F11803 		add	r3, r7, #24
 2032 00be 1A46     		mov	r2, r3
 2033 00c0 396B     		ldr	r1, [r7, #48]
 2034 00c2 F868     		ldr	r0, [r7, #12]
 2035 00c4 FFF7FEFF 		bl	mbedtls_asn1_get_bool
 2036 00c8 7863     		str	r0, [r7, #52]
 2037 00ca 7B6B     		ldr	r3, [r7, #52]
 2038 00cc 002B     		cmp	r3, #0
 2039 00ce 07D0     		beq	.L144
 2040              		.loc 2 737 0 is_stmt 0 discriminator 1
 2041 00d0 7B6B     		ldr	r3, [r7, #52]
 2042 00d2 13F1620F 		cmn	r3, #98
 2043 00d6 03D0     		beq	.L144
 738:C:/Users/dtjld/workspace/AIoT/src/LiteOS_Lab/iot_link/network/dtls/mbedtls/mbedtls-2.16.2/library\x509_crt.c ****             ( ret != MBEDTLS_ERR_ASN1_UNEXPECTED_TAG ) )
 739:C:/Users/dtjld/workspace/AIoT/src/LiteOS_Lab/iot_link/network/dtls/mbedtls/mbedtls-2.16.2/library\x509_crt.c ****             return( MBEDTLS_ERR_X509_INVALID_EXTENSIONS + ret );
 2044              		.loc 2 739 0 is_stmt 1
 2045 00d8 7B6B     		ldr	r3, [r7, #52]
 2046 00da A3F51453 		sub	r3, r3, #9472
 2047 00de B1E0     		b	.L165
 2048              	.L144:
 740:C:/Users/dtjld/workspace/AIoT/src/LiteOS_Lab/iot_link/network/dtls/mbedtls/mbedtls-2.16.2/library\x509_crt.c **** 
 741:C:/Users/dtjld/workspace/AIoT/src/LiteOS_Lab/iot_link/network/dtls/mbedtls/mbedtls-2.16.2/library\x509_crt.c ****         /* Data should be octet string type */
 742:C:/Users/dtjld/workspace/AIoT/src/LiteOS_Lab/iot_link/network/dtls/mbedtls/mbedtls-2.16.2/library\x509_crt.c ****         if( ( ret = mbedtls_asn1_get_tag( p, end_ext_data, &len,
 2049              		.loc 2 742 0
 2050 00e0 07F12802 		add	r2, r7, #40
 2051 00e4 0423     		movs	r3, #4
 2052 00e6 396B     		ldr	r1, [r7, #48]
 2053 00e8 F868     		ldr	r0, [r7, #12]
 2054 00ea FFF7FEFF 		bl	mbedtls_asn1_get_tag
 2055 00ee 7863     		str	r0, [r7, #52]
 2056 00f0 7B6B     		ldr	r3, [r7, #52]
 2057 00f2 002B     		cmp	r3, #0
 2058 00f4 03D0     		beq	.L145
 743:C:/Users/dtjld/workspace/AIoT/src/LiteOS_Lab/iot_link/network/dtls/mbedtls/mbedtls-2.16.2/library\x509_crt.c ****                 MBEDTLS_ASN1_OCTET_STRING ) ) != 0 )
 744:C:/Users/dtjld/workspace/AIoT/src/LiteOS_Lab/iot_link/network/dtls/mbedtls/mbedtls-2.16.2/library\x509_crt.c ****             return( MBEDTLS_ERR_X509_INVALID_EXTENSIONS + ret );
 2059              		.loc 2 744 0
 2060 00f6 7B6B     		ldr	r3, [r7, #52]
 2061 00f8 A3F51453 		sub	r3, r3, #9472
 2062 00fc A2E0     		b	.L165
 2063              	.L145:
 745:C:/Users/dtjld/workspace/AIoT/src/LiteOS_Lab/iot_link/network/dtls/mbedtls/mbedtls-2.16.2/library\x509_crt.c **** 
ARM GAS  C:\Users\dtjld\AppData\Local\Temp\ccTXdst3.s 			page 53


 746:C:/Users/dtjld/workspace/AIoT/src/LiteOS_Lab/iot_link/network/dtls/mbedtls/mbedtls-2.16.2/library\x509_crt.c ****         end_ext_octet = *p + len;
 2064              		.loc 2 746 0
 2065 00fe FB68     		ldr	r3, [r7, #12]
 2066 0100 1A68     		ldr	r2, [r3]
 2067 0102 BB6A     		ldr	r3, [r7, #40]
 2068 0104 1344     		add	r3, r3, r2
 2069 0106 FB62     		str	r3, [r7, #44]
 747:C:/Users/dtjld/workspace/AIoT/src/LiteOS_Lab/iot_link/network/dtls/mbedtls/mbedtls-2.16.2/library\x509_crt.c **** 
 748:C:/Users/dtjld/workspace/AIoT/src/LiteOS_Lab/iot_link/network/dtls/mbedtls/mbedtls-2.16.2/library\x509_crt.c ****         if( end_ext_octet != end_ext_data )
 2070              		.loc 2 748 0
 2071 0108 FA6A     		ldr	r2, [r7, #44]
 2072 010a 3B6B     		ldr	r3, [r7, #48]
 2073 010c 9A42     		cmp	r2, r3
 2074 010e 01D0     		beq	.L146
 749:C:/Users/dtjld/workspace/AIoT/src/LiteOS_Lab/iot_link/network/dtls/mbedtls/mbedtls-2.16.2/library\x509_crt.c ****             return( MBEDTLS_ERR_X509_INVALID_EXTENSIONS +
 2075              		.loc 2 749 0
 2076 0110 4E4B     		ldr	r3, .L171
 2077 0112 97E0     		b	.L165
 2078              	.L146:
 750:C:/Users/dtjld/workspace/AIoT/src/LiteOS_Lab/iot_link/network/dtls/mbedtls/mbedtls-2.16.2/library\x509_crt.c ****                     MBEDTLS_ERR_ASN1_LENGTH_MISMATCH );
 751:C:/Users/dtjld/workspace/AIoT/src/LiteOS_Lab/iot_link/network/dtls/mbedtls/mbedtls-2.16.2/library\x509_crt.c **** 
 752:C:/Users/dtjld/workspace/AIoT/src/LiteOS_Lab/iot_link/network/dtls/mbedtls/mbedtls-2.16.2/library\x509_crt.c ****         /*
 753:C:/Users/dtjld/workspace/AIoT/src/LiteOS_Lab/iot_link/network/dtls/mbedtls/mbedtls-2.16.2/library\x509_crt.c ****          * Detect supported extensions
 754:C:/Users/dtjld/workspace/AIoT/src/LiteOS_Lab/iot_link/network/dtls/mbedtls/mbedtls-2.16.2/library\x509_crt.c ****          */
 755:C:/Users/dtjld/workspace/AIoT/src/LiteOS_Lab/iot_link/network/dtls/mbedtls/mbedtls-2.16.2/library\x509_crt.c ****         ret = mbedtls_oid_get_x509_ext_type( &extn_oid, &ext_type );
 2079              		.loc 2 755 0
 2080 0114 07F11402 		add	r2, r7, #20
 2081 0118 07F11C03 		add	r3, r7, #28
 2082 011c 1146     		mov	r1, r2
 2083 011e 1846     		mov	r0, r3
 2084 0120 FFF7FEFF 		bl	mbedtls_oid_get_x509_ext_type
 2085 0124 7863     		str	r0, [r7, #52]
 756:C:/Users/dtjld/workspace/AIoT/src/LiteOS_Lab/iot_link/network/dtls/mbedtls/mbedtls-2.16.2/library\x509_crt.c **** 
 757:C:/Users/dtjld/workspace/AIoT/src/LiteOS_Lab/iot_link/network/dtls/mbedtls/mbedtls-2.16.2/library\x509_crt.c ****         if( ret != 0 )
 2086              		.loc 2 757 0
 2087 0126 7B6B     		ldr	r3, [r7, #52]
 2088 0128 002B     		cmp	r3, #0
 2089 012a 07D0     		beq	.L147
 758:C:/Users/dtjld/workspace/AIoT/src/LiteOS_Lab/iot_link/network/dtls/mbedtls/mbedtls-2.16.2/library\x509_crt.c ****         {
 759:C:/Users/dtjld/workspace/AIoT/src/LiteOS_Lab/iot_link/network/dtls/mbedtls/mbedtls-2.16.2/library\x509_crt.c ****             /* No parser found, skip extension */
 760:C:/Users/dtjld/workspace/AIoT/src/LiteOS_Lab/iot_link/network/dtls/mbedtls/mbedtls-2.16.2/library\x509_crt.c ****             *p = end_ext_octet;
 2090              		.loc 2 760 0
 2091 012c FB68     		ldr	r3, [r7, #12]
 2092 012e FA6A     		ldr	r2, [r7, #44]
 2093 0130 1A60     		str	r2, [r3]
 761:C:/Users/dtjld/workspace/AIoT/src/LiteOS_Lab/iot_link/network/dtls/mbedtls/mbedtls-2.16.2/library\x509_crt.c **** 
 762:C:/Users/dtjld/workspace/AIoT/src/LiteOS_Lab/iot_link/network/dtls/mbedtls/mbedtls-2.16.2/library\x509_crt.c **** #if !defined(MBEDTLS_X509_ALLOW_UNSUPPORTED_CRITICAL_EXTENSION)
 763:C:/Users/dtjld/workspace/AIoT/src/LiteOS_Lab/iot_link/network/dtls/mbedtls/mbedtls-2.16.2/library\x509_crt.c ****             if( is_critical )
 2094              		.loc 2 763 0
 2095 0132 BB69     		ldr	r3, [r7, #24]
 2096 0134 002B     		cmp	r3, #0
 2097 0136 77D0     		beq	.L140
 764:C:/Users/dtjld/workspace/AIoT/src/LiteOS_Lab/iot_link/network/dtls/mbedtls/mbedtls-2.16.2/library\x509_crt.c ****             {
 765:C:/Users/dtjld/workspace/AIoT/src/LiteOS_Lab/iot_link/network/dtls/mbedtls/mbedtls-2.16.2/library\x509_crt.c ****                 /* Data is marked as critical: fail */
 766:C:/Users/dtjld/workspace/AIoT/src/LiteOS_Lab/iot_link/network/dtls/mbedtls/mbedtls-2.16.2/library\x509_crt.c ****                 return( MBEDTLS_ERR_X509_INVALID_EXTENSIONS +
 2098              		.loc 2 766 0
 2099 0138 454B     		ldr	r3, .L171+4
ARM GAS  C:\Users\dtjld\AppData\Local\Temp\ccTXdst3.s 			page 54


 2100 013a 83E0     		b	.L165
 2101              	.L147:
 767:C:/Users/dtjld/workspace/AIoT/src/LiteOS_Lab/iot_link/network/dtls/mbedtls/mbedtls-2.16.2/library\x509_crt.c ****                         MBEDTLS_ERR_ASN1_UNEXPECTED_TAG );
 768:C:/Users/dtjld/workspace/AIoT/src/LiteOS_Lab/iot_link/network/dtls/mbedtls/mbedtls-2.16.2/library\x509_crt.c ****             }
 769:C:/Users/dtjld/workspace/AIoT/src/LiteOS_Lab/iot_link/network/dtls/mbedtls/mbedtls-2.16.2/library\x509_crt.c **** #endif
 770:C:/Users/dtjld/workspace/AIoT/src/LiteOS_Lab/iot_link/network/dtls/mbedtls/mbedtls-2.16.2/library\x509_crt.c ****             continue;
 771:C:/Users/dtjld/workspace/AIoT/src/LiteOS_Lab/iot_link/network/dtls/mbedtls/mbedtls-2.16.2/library\x509_crt.c ****         }
 772:C:/Users/dtjld/workspace/AIoT/src/LiteOS_Lab/iot_link/network/dtls/mbedtls/mbedtls-2.16.2/library\x509_crt.c **** 
 773:C:/Users/dtjld/workspace/AIoT/src/LiteOS_Lab/iot_link/network/dtls/mbedtls/mbedtls-2.16.2/library\x509_crt.c ****         /* Forbid repeated extensions */
 774:C:/Users/dtjld/workspace/AIoT/src/LiteOS_Lab/iot_link/network/dtls/mbedtls/mbedtls-2.16.2/library\x509_crt.c ****         if( ( crt->ext_types & ext_type ) != 0 )
 2102              		.loc 2 774 0
 2103 013c 7B68     		ldr	r3, [r7, #4]
 2104 013e D3F8F820 		ldr	r2, [r3, #248]
 2105 0142 7B69     		ldr	r3, [r7, #20]
 2106 0144 1340     		ands	r3, r3, r2
 2107 0146 002B     		cmp	r3, #0
 2108 0148 01D0     		beq	.L149
 775:C:/Users/dtjld/workspace/AIoT/src/LiteOS_Lab/iot_link/network/dtls/mbedtls/mbedtls-2.16.2/library\x509_crt.c ****             return( MBEDTLS_ERR_X509_INVALID_EXTENSIONS );
 2109              		.loc 2 775 0
 2110 014a 424B     		ldr	r3, .L171+8
 2111 014c 7AE0     		b	.L165
 2112              	.L149:
 776:C:/Users/dtjld/workspace/AIoT/src/LiteOS_Lab/iot_link/network/dtls/mbedtls/mbedtls-2.16.2/library\x509_crt.c **** 
 777:C:/Users/dtjld/workspace/AIoT/src/LiteOS_Lab/iot_link/network/dtls/mbedtls/mbedtls-2.16.2/library\x509_crt.c ****         crt->ext_types |= ext_type;
 2113              		.loc 2 777 0
 2114 014e 7B68     		ldr	r3, [r7, #4]
 2115 0150 D3F8F820 		ldr	r2, [r3, #248]
 2116 0154 7B69     		ldr	r3, [r7, #20]
 2117 0156 1A43     		orrs	r2, r2, r3
 2118 0158 7B68     		ldr	r3, [r7, #4]
 2119 015a C3F8F820 		str	r2, [r3, #248]
 778:C:/Users/dtjld/workspace/AIoT/src/LiteOS_Lab/iot_link/network/dtls/mbedtls/mbedtls-2.16.2/library\x509_crt.c **** 
 779:C:/Users/dtjld/workspace/AIoT/src/LiteOS_Lab/iot_link/network/dtls/mbedtls/mbedtls-2.16.2/library\x509_crt.c ****         switch( ext_type )
 2120              		.loc 2 779 0
 2121 015e 7B69     		ldr	r3, [r7, #20]
 2122 0160 B3F5807F 		cmp	r3, #256
 2123 0164 0ED0     		beq	.L151
 2124 0166 B3F5807F 		cmp	r3, #256
 2125 016a 04DC     		bgt	.L152
 2126 016c 042B     		cmp	r3, #4
 2127 016e 19D0     		beq	.L153
 2128 0170 202B     		cmp	r3, #32
 2129 0172 33D0     		beq	.L154
 2130 0174 4DE0     		b	.L150
 2131              	.L152:
 2132 0176 B3F5006F 		cmp	r3, #2048
 2133 017a 21D0     		beq	.L155
 2134 017c B3F5803F 		cmp	r3, #65536
 2135 0180 39D0     		beq	.L156
 2136 0182 46E0     		b	.L150
 2137              	.L151:
 780:C:/Users/dtjld/workspace/AIoT/src/LiteOS_Lab/iot_link/network/dtls/mbedtls/mbedtls-2.16.2/library\x509_crt.c ****         {
 781:C:/Users/dtjld/workspace/AIoT/src/LiteOS_Lab/iot_link/network/dtls/mbedtls/mbedtls-2.16.2/library\x509_crt.c ****         case MBEDTLS_X509_EXT_BASIC_CONSTRAINTS:
 782:C:/Users/dtjld/workspace/AIoT/src/LiteOS_Lab/iot_link/network/dtls/mbedtls/mbedtls-2.16.2/library\x509_crt.c ****             /* Parse basic constraints */
 783:C:/Users/dtjld/workspace/AIoT/src/LiteOS_Lab/iot_link/network/dtls/mbedtls/mbedtls-2.16.2/library\x509_crt.c ****             if( ( ret = x509_get_basic_constraints( p, end_ext_octet,
 2138              		.loc 2 783 0
 2139 0184 7B68     		ldr	r3, [r7, #4]
ARM GAS  C:\Users\dtjld\AppData\Local\Temp\ccTXdst3.s 			page 55


 2140 0186 03F1FC02 		add	r2, r3, #252
 2141 018a 7B68     		ldr	r3, [r7, #4]
 2142 018c 03F58073 		add	r3, r3, #256
 2143 0190 F96A     		ldr	r1, [r7, #44]
 2144 0192 F868     		ldr	r0, [r7, #12]
 2145 0194 FFF7FEFF 		bl	x509_get_basic_constraints
 2146 0198 7863     		str	r0, [r7, #52]
 2147 019a 7B6B     		ldr	r3, [r7, #52]
 2148 019c 002B     		cmp	r3, #0
 2149 019e 3AD0     		beq	.L166
 784:C:/Users/dtjld/workspace/AIoT/src/LiteOS_Lab/iot_link/network/dtls/mbedtls/mbedtls-2.16.2/library\x509_crt.c ****                     &crt->ca_istrue, &crt->max_pathlen ) ) != 0 )
 785:C:/Users/dtjld/workspace/AIoT/src/LiteOS_Lab/iot_link/network/dtls/mbedtls/mbedtls-2.16.2/library\x509_crt.c ****                 return( ret );
 2150              		.loc 2 785 0
 2151 01a0 7B6B     		ldr	r3, [r7, #52]
 2152 01a2 4FE0     		b	.L165
 2153              	.L153:
 786:C:/Users/dtjld/workspace/AIoT/src/LiteOS_Lab/iot_link/network/dtls/mbedtls/mbedtls-2.16.2/library\x509_crt.c ****             break;
 787:C:/Users/dtjld/workspace/AIoT/src/LiteOS_Lab/iot_link/network/dtls/mbedtls/mbedtls-2.16.2/library\x509_crt.c **** 
 788:C:/Users/dtjld/workspace/AIoT/src/LiteOS_Lab/iot_link/network/dtls/mbedtls/mbedtls-2.16.2/library\x509_crt.c ****         case MBEDTLS_X509_EXT_KEY_USAGE:
 789:C:/Users/dtjld/workspace/AIoT/src/LiteOS_Lab/iot_link/network/dtls/mbedtls/mbedtls-2.16.2/library\x509_crt.c ****             /* Parse key usage */
 790:C:/Users/dtjld/workspace/AIoT/src/LiteOS_Lab/iot_link/network/dtls/mbedtls/mbedtls-2.16.2/library\x509_crt.c ****             if( ( ret = x509_get_key_usage( p, end_ext_octet,
 2154              		.loc 2 790 0
 2155 01a4 7B68     		ldr	r3, [r7, #4]
 2156 01a6 03F58273 		add	r3, r3, #260
 2157 01aa 1A46     		mov	r2, r3
 2158 01ac F96A     		ldr	r1, [r7, #44]
 2159 01ae F868     		ldr	r0, [r7, #12]
 2160 01b0 FFF7FEFF 		bl	x509_get_key_usage
 2161 01b4 7863     		str	r0, [r7, #52]
 2162 01b6 7B6B     		ldr	r3, [r7, #52]
 2163 01b8 002B     		cmp	r3, #0
 2164 01ba 2ED0     		beq	.L167
 791:C:/Users/dtjld/workspace/AIoT/src/LiteOS_Lab/iot_link/network/dtls/mbedtls/mbedtls-2.16.2/library\x509_crt.c ****                     &crt->key_usage ) ) != 0 )
 792:C:/Users/dtjld/workspace/AIoT/src/LiteOS_Lab/iot_link/network/dtls/mbedtls/mbedtls-2.16.2/library\x509_crt.c ****                 return( ret );
 2165              		.loc 2 792 0
 2166 01bc 7B6B     		ldr	r3, [r7, #52]
 2167 01be 41E0     		b	.L165
 2168              	.L155:
 793:C:/Users/dtjld/workspace/AIoT/src/LiteOS_Lab/iot_link/network/dtls/mbedtls/mbedtls-2.16.2/library\x509_crt.c ****             break;
 794:C:/Users/dtjld/workspace/AIoT/src/LiteOS_Lab/iot_link/network/dtls/mbedtls/mbedtls-2.16.2/library\x509_crt.c **** 
 795:C:/Users/dtjld/workspace/AIoT/src/LiteOS_Lab/iot_link/network/dtls/mbedtls/mbedtls-2.16.2/library\x509_crt.c ****         case MBEDTLS_X509_EXT_EXTENDED_KEY_USAGE:
 796:C:/Users/dtjld/workspace/AIoT/src/LiteOS_Lab/iot_link/network/dtls/mbedtls/mbedtls-2.16.2/library\x509_crt.c ****             /* Parse extended key usage */
 797:C:/Users/dtjld/workspace/AIoT/src/LiteOS_Lab/iot_link/network/dtls/mbedtls/mbedtls-2.16.2/library\x509_crt.c ****             if( ( ret = x509_get_ext_key_usage( p, end_ext_octet,
 2169              		.loc 2 797 0
 2170 01c0 7B68     		ldr	r3, [r7, #4]
 2171 01c2 03F58473 		add	r3, r3, #264
 2172 01c6 1A46     		mov	r2, r3
 2173 01c8 F96A     		ldr	r1, [r7, #44]
 2174 01ca F868     		ldr	r0, [r7, #12]
 2175 01cc FFF7FEFF 		bl	x509_get_ext_key_usage
 2176 01d0 7863     		str	r0, [r7, #52]
 2177 01d2 7B6B     		ldr	r3, [r7, #52]
 2178 01d4 002B     		cmp	r3, #0
 2179 01d6 22D0     		beq	.L168
 798:C:/Users/dtjld/workspace/AIoT/src/LiteOS_Lab/iot_link/network/dtls/mbedtls/mbedtls-2.16.2/library\x509_crt.c ****                     &crt->ext_key_usage ) ) != 0 )
 799:C:/Users/dtjld/workspace/AIoT/src/LiteOS_Lab/iot_link/network/dtls/mbedtls/mbedtls-2.16.2/library\x509_crt.c ****                 return( ret );
 2180              		.loc 2 799 0
ARM GAS  C:\Users\dtjld\AppData\Local\Temp\ccTXdst3.s 			page 56


 2181 01d8 7B6B     		ldr	r3, [r7, #52]
 2182 01da 33E0     		b	.L165
 2183              	.L154:
 800:C:/Users/dtjld/workspace/AIoT/src/LiteOS_Lab/iot_link/network/dtls/mbedtls/mbedtls-2.16.2/library\x509_crt.c ****             break;
 801:C:/Users/dtjld/workspace/AIoT/src/LiteOS_Lab/iot_link/network/dtls/mbedtls/mbedtls-2.16.2/library\x509_crt.c **** 
 802:C:/Users/dtjld/workspace/AIoT/src/LiteOS_Lab/iot_link/network/dtls/mbedtls/mbedtls-2.16.2/library\x509_crt.c ****         case MBEDTLS_X509_EXT_SUBJECT_ALT_NAME:
 803:C:/Users/dtjld/workspace/AIoT/src/LiteOS_Lab/iot_link/network/dtls/mbedtls/mbedtls-2.16.2/library\x509_crt.c ****             /* Parse subject alt name */
 804:C:/Users/dtjld/workspace/AIoT/src/LiteOS_Lab/iot_link/network/dtls/mbedtls/mbedtls-2.16.2/library\x509_crt.c ****             if( ( ret = x509_get_subject_alt_name( p, end_ext_octet,
 2184              		.loc 2 804 0
 2185 01dc 7B68     		ldr	r3, [r7, #4]
 2186 01de E833     		adds	r3, r3, #232
 2187 01e0 1A46     		mov	r2, r3
 2188 01e2 F96A     		ldr	r1, [r7, #44]
 2189 01e4 F868     		ldr	r0, [r7, #12]
 2190 01e6 FFF7FEFF 		bl	x509_get_subject_alt_name
 2191 01ea 7863     		str	r0, [r7, #52]
 2192 01ec 7B6B     		ldr	r3, [r7, #52]
 2193 01ee 002B     		cmp	r3, #0
 2194 01f0 17D0     		beq	.L169
 805:C:/Users/dtjld/workspace/AIoT/src/LiteOS_Lab/iot_link/network/dtls/mbedtls/mbedtls-2.16.2/library\x509_crt.c ****                     &crt->subject_alt_names ) ) != 0 )
 806:C:/Users/dtjld/workspace/AIoT/src/LiteOS_Lab/iot_link/network/dtls/mbedtls/mbedtls-2.16.2/library\x509_crt.c ****                 return( ret );
 2195              		.loc 2 806 0
 2196 01f2 7B6B     		ldr	r3, [r7, #52]
 2197 01f4 26E0     		b	.L165
 2198              	.L156:
 807:C:/Users/dtjld/workspace/AIoT/src/LiteOS_Lab/iot_link/network/dtls/mbedtls/mbedtls-2.16.2/library\x509_crt.c ****             break;
 808:C:/Users/dtjld/workspace/AIoT/src/LiteOS_Lab/iot_link/network/dtls/mbedtls/mbedtls-2.16.2/library\x509_crt.c **** 
 809:C:/Users/dtjld/workspace/AIoT/src/LiteOS_Lab/iot_link/network/dtls/mbedtls/mbedtls-2.16.2/library\x509_crt.c ****         case MBEDTLS_X509_EXT_NS_CERT_TYPE:
 810:C:/Users/dtjld/workspace/AIoT/src/LiteOS_Lab/iot_link/network/dtls/mbedtls/mbedtls-2.16.2/library\x509_crt.c ****             /* Parse netscape certificate type */
 811:C:/Users/dtjld/workspace/AIoT/src/LiteOS_Lab/iot_link/network/dtls/mbedtls/mbedtls-2.16.2/library\x509_crt.c ****             if( ( ret = x509_get_ns_cert_type( p, end_ext_octet,
 2199              		.loc 2 811 0
 2200 01f6 7B68     		ldr	r3, [r7, #4]
 2201 01f8 03F58C73 		add	r3, r3, #280
 2202 01fc 1A46     		mov	r2, r3
 2203 01fe F96A     		ldr	r1, [r7, #44]
 2204 0200 F868     		ldr	r0, [r7, #12]
 2205 0202 FFF7FEFF 		bl	x509_get_ns_cert_type
 2206 0206 7863     		str	r0, [r7, #52]
 2207 0208 7B6B     		ldr	r3, [r7, #52]
 2208 020a 002B     		cmp	r3, #0
 2209 020c 0BD0     		beq	.L170
 812:C:/Users/dtjld/workspace/AIoT/src/LiteOS_Lab/iot_link/network/dtls/mbedtls/mbedtls-2.16.2/library\x509_crt.c ****                     &crt->ns_cert_type ) ) != 0 )
 813:C:/Users/dtjld/workspace/AIoT/src/LiteOS_Lab/iot_link/network/dtls/mbedtls/mbedtls-2.16.2/library\x509_crt.c ****                 return( ret );
 2210              		.loc 2 813 0
 2211 020e 7B6B     		ldr	r3, [r7, #52]
 2212 0210 18E0     		b	.L165
 2213              	.L150:
 814:C:/Users/dtjld/workspace/AIoT/src/LiteOS_Lab/iot_link/network/dtls/mbedtls/mbedtls-2.16.2/library\x509_crt.c ****             break;
 815:C:/Users/dtjld/workspace/AIoT/src/LiteOS_Lab/iot_link/network/dtls/mbedtls/mbedtls-2.16.2/library\x509_crt.c **** 
 816:C:/Users/dtjld/workspace/AIoT/src/LiteOS_Lab/iot_link/network/dtls/mbedtls/mbedtls-2.16.2/library\x509_crt.c ****         default:
 817:C:/Users/dtjld/workspace/AIoT/src/LiteOS_Lab/iot_link/network/dtls/mbedtls/mbedtls-2.16.2/library\x509_crt.c ****             return( MBEDTLS_ERR_X509_FEATURE_UNAVAILABLE );
 2214              		.loc 2 817 0
 2215 0212 114B     		ldr	r3, .L171+12
 2216 0214 16E0     		b	.L165
 2217              	.L166:
 786:C:/Users/dtjld/workspace/AIoT/src/LiteOS_Lab/iot_link/network/dtls/mbedtls/mbedtls-2.16.2/library\x509_crt.c **** 
 2218              		.loc 2 786 0
ARM GAS  C:\Users\dtjld\AppData\Local\Temp\ccTXdst3.s 			page 57


 2219 0216 00BF     		nop
 2220 0218 06E0     		b	.L140
 2221              	.L167:
 793:C:/Users/dtjld/workspace/AIoT/src/LiteOS_Lab/iot_link/network/dtls/mbedtls/mbedtls-2.16.2/library\x509_crt.c **** 
 2222              		.loc 2 793 0
 2223 021a 00BF     		nop
 2224 021c 04E0     		b	.L140
 2225              	.L168:
 800:C:/Users/dtjld/workspace/AIoT/src/LiteOS_Lab/iot_link/network/dtls/mbedtls/mbedtls-2.16.2/library\x509_crt.c **** 
 2226              		.loc 2 800 0
 2227 021e 00BF     		nop
 2228 0220 02E0     		b	.L140
 2229              	.L169:
 807:C:/Users/dtjld/workspace/AIoT/src/LiteOS_Lab/iot_link/network/dtls/mbedtls/mbedtls-2.16.2/library\x509_crt.c **** 
 2230              		.loc 2 807 0
 2231 0222 00BF     		nop
 2232 0224 00E0     		b	.L140
 2233              	.L170:
 814:C:/Users/dtjld/workspace/AIoT/src/LiteOS_Lab/iot_link/network/dtls/mbedtls/mbedtls-2.16.2/library\x509_crt.c **** 
 2234              		.loc 2 814 0
 2235 0226 00BF     		nop
 2236              	.L140:
 2237              	.LBE3:
 709:C:/Users/dtjld/workspace/AIoT/src/LiteOS_Lab/iot_link/network/dtls/mbedtls/mbedtls-2.16.2/library\x509_crt.c ****     {
 2238              		.loc 2 709 0
 2239 0228 FB68     		ldr	r3, [r7, #12]
 2240 022a 1B68     		ldr	r3, [r3]
 2241 022c BA68     		ldr	r2, [r7, #8]
 2242 022e 9A42     		cmp	r2, r3
 2243 0230 3FF60AAF 		bhi	.L163
 818:C:/Users/dtjld/workspace/AIoT/src/LiteOS_Lab/iot_link/network/dtls/mbedtls/mbedtls-2.16.2/library\x509_crt.c ****         }
 819:C:/Users/dtjld/workspace/AIoT/src/LiteOS_Lab/iot_link/network/dtls/mbedtls/mbedtls-2.16.2/library\x509_crt.c ****     }
 820:C:/Users/dtjld/workspace/AIoT/src/LiteOS_Lab/iot_link/network/dtls/mbedtls/mbedtls-2.16.2/library\x509_crt.c **** 
 821:C:/Users/dtjld/workspace/AIoT/src/LiteOS_Lab/iot_link/network/dtls/mbedtls/mbedtls-2.16.2/library\x509_crt.c ****     if( *p != end )
 2244              		.loc 2 821 0
 2245 0234 FB68     		ldr	r3, [r7, #12]
 2246 0236 1B68     		ldr	r3, [r3]
 2247 0238 BA68     		ldr	r2, [r7, #8]
 2248 023a 9A42     		cmp	r2, r3
 2249 023c 01D0     		beq	.L164
 822:C:/Users/dtjld/workspace/AIoT/src/LiteOS_Lab/iot_link/network/dtls/mbedtls/mbedtls-2.16.2/library\x509_crt.c ****         return( MBEDTLS_ERR_X509_INVALID_EXTENSIONS +
 2250              		.loc 2 822 0
 2251 023e 034B     		ldr	r3, .L171
 2252 0240 00E0     		b	.L165
 2253              	.L164:
 823:C:/Users/dtjld/workspace/AIoT/src/LiteOS_Lab/iot_link/network/dtls/mbedtls/mbedtls-2.16.2/library\x509_crt.c ****                 MBEDTLS_ERR_ASN1_LENGTH_MISMATCH );
 824:C:/Users/dtjld/workspace/AIoT/src/LiteOS_Lab/iot_link/network/dtls/mbedtls/mbedtls-2.16.2/library\x509_crt.c **** 
 825:C:/Users/dtjld/workspace/AIoT/src/LiteOS_Lab/iot_link/network/dtls/mbedtls/mbedtls-2.16.2/library\x509_crt.c ****     return( 0 );
 2254              		.loc 2 825 0
 2255 0242 0023     		movs	r3, #0
 2256              	.L165:
 826:C:/Users/dtjld/workspace/AIoT/src/LiteOS_Lab/iot_link/network/dtls/mbedtls/mbedtls-2.16.2/library\x509_crt.c **** }
 2257              		.loc 2 826 0 discriminator 6
 2258 0244 1846     		mov	r0, r3
 2259 0246 3837     		adds	r7, r7, #56
 2260              	.LCFI93:
 2261              		.cfi_def_cfa_offset 8
ARM GAS  C:\Users\dtjld\AppData\Local\Temp\ccTXdst3.s 			page 58


 2262 0248 BD46     		mov	sp, r7
 2263              	.LCFI94:
 2264              		.cfi_def_cfa_register 13
 2265              		@ sp needed
 2266 024a 80BD     		pop	{r7, pc}
 2267              	.L172:
 2268              		.align	2
 2269              	.L171:
 2270 024c 9ADAFFFF 		.word	-9574
 2271 0250 9EDAFFFF 		.word	-9570
 2272 0254 00DBFFFF 		.word	-9472
 2273 0258 80DFFFFF 		.word	-8320
 2274              		.cfi_endproc
 2275              	.LFE29:
 2277              		.section	.text.x509_crt_parse_der_core,"ax",%progbits
 2278              		.align	1
 2279              		.syntax unified
 2280              		.thumb
 2281              		.thumb_func
 2282              		.fpu fpv4-sp-d16
 2284              	x509_crt_parse_der_core:
 2285              	.LFB30:
 827:C:/Users/dtjld/workspace/AIoT/src/LiteOS_Lab/iot_link/network/dtls/mbedtls/mbedtls-2.16.2/library\x509_crt.c **** 
 828:C:/Users/dtjld/workspace/AIoT/src/LiteOS_Lab/iot_link/network/dtls/mbedtls/mbedtls-2.16.2/library\x509_crt.c **** /*
 829:C:/Users/dtjld/workspace/AIoT/src/LiteOS_Lab/iot_link/network/dtls/mbedtls/mbedtls-2.16.2/library\x509_crt.c ****  * Parse and fill a single X.509 certificate in DER format
 830:C:/Users/dtjld/workspace/AIoT/src/LiteOS_Lab/iot_link/network/dtls/mbedtls/mbedtls-2.16.2/library\x509_crt.c ****  */
 831:C:/Users/dtjld/workspace/AIoT/src/LiteOS_Lab/iot_link/network/dtls/mbedtls/mbedtls-2.16.2/library\x509_crt.c **** static int x509_crt_parse_der_core( mbedtls_x509_crt *crt, const unsigned char *buf,
 832:C:/Users/dtjld/workspace/AIoT/src/LiteOS_Lab/iot_link/network/dtls/mbedtls/mbedtls-2.16.2/library\x509_crt.c ****                                     size_t buflen )
 833:C:/Users/dtjld/workspace/AIoT/src/LiteOS_Lab/iot_link/network/dtls/mbedtls/mbedtls-2.16.2/library\x509_crt.c **** {
 2286              		.loc 2 833 0
 2287              		.cfi_startproc
 2288              		@ args = 0, pretend = 0, frame = 72
 2289              		@ frame_needed = 1, uses_anonymous_args = 0
 2290 0000 90B5     		push	{r4, r7, lr}
 2291              	.LCFI95:
 2292              		.cfi_def_cfa_offset 12
 2293              		.cfi_offset 4, -12
 2294              		.cfi_offset 7, -8
 2295              		.cfi_offset 14, -4
 2296 0002 95B0     		sub	sp, sp, #84
 2297              	.LCFI96:
 2298              		.cfi_def_cfa_offset 96
 2299 0004 02AF     		add	r7, sp, #8
 2300              	.LCFI97:
 2301              		.cfi_def_cfa 7, 88
 2302 0006 F860     		str	r0, [r7, #12]
 2303 0008 B960     		str	r1, [r7, #8]
 2304 000a 7A60     		str	r2, [r7, #4]
 834:C:/Users/dtjld/workspace/AIoT/src/LiteOS_Lab/iot_link/network/dtls/mbedtls/mbedtls-2.16.2/library\x509_crt.c ****     int ret;
 835:C:/Users/dtjld/workspace/AIoT/src/LiteOS_Lab/iot_link/network/dtls/mbedtls/mbedtls-2.16.2/library\x509_crt.c ****     size_t len;
 836:C:/Users/dtjld/workspace/AIoT/src/LiteOS_Lab/iot_link/network/dtls/mbedtls/mbedtls-2.16.2/library\x509_crt.c ****     unsigned char *p, *end, *crt_end;
 837:C:/Users/dtjld/workspace/AIoT/src/LiteOS_Lab/iot_link/network/dtls/mbedtls/mbedtls-2.16.2/library\x509_crt.c ****     mbedtls_x509_buf sig_params1, sig_params2, sig_oid2;
 838:C:/Users/dtjld/workspace/AIoT/src/LiteOS_Lab/iot_link/network/dtls/mbedtls/mbedtls-2.16.2/library\x509_crt.c **** 
 839:C:/Users/dtjld/workspace/AIoT/src/LiteOS_Lab/iot_link/network/dtls/mbedtls/mbedtls-2.16.2/library\x509_crt.c ****     memset( &sig_params1, 0, sizeof( mbedtls_x509_buf ) );
 2305              		.loc 2 839 0
 2306 000c 07F12803 		add	r3, r7, #40
 2307 0010 0C22     		movs	r2, #12
ARM GAS  C:\Users\dtjld\AppData\Local\Temp\ccTXdst3.s 			page 59


 2308 0012 0021     		movs	r1, #0
 2309 0014 1846     		mov	r0, r3
 2310 0016 FFF7FEFF 		bl	memset
 840:C:/Users/dtjld/workspace/AIoT/src/LiteOS_Lab/iot_link/network/dtls/mbedtls/mbedtls-2.16.2/library\x509_crt.c ****     memset( &sig_params2, 0, sizeof( mbedtls_x509_buf ) );
 2311              		.loc 2 840 0
 2312 001a 07F11C03 		add	r3, r7, #28
 2313 001e 0C22     		movs	r2, #12
 2314 0020 0021     		movs	r1, #0
 2315 0022 1846     		mov	r0, r3
 2316 0024 FFF7FEFF 		bl	memset
 841:C:/Users/dtjld/workspace/AIoT/src/LiteOS_Lab/iot_link/network/dtls/mbedtls/mbedtls-2.16.2/library\x509_crt.c ****     memset( &sig_oid2, 0, sizeof( mbedtls_x509_buf ) );
 2317              		.loc 2 841 0
 2318 0028 07F11003 		add	r3, r7, #16
 2319 002c 0C22     		movs	r2, #12
 2320 002e 0021     		movs	r1, #0
 2321 0030 1846     		mov	r0, r3
 2322 0032 FFF7FEFF 		bl	memset
 842:C:/Users/dtjld/workspace/AIoT/src/LiteOS_Lab/iot_link/network/dtls/mbedtls/mbedtls-2.16.2/library\x509_crt.c **** 
 843:C:/Users/dtjld/workspace/AIoT/src/LiteOS_Lab/iot_link/network/dtls/mbedtls/mbedtls-2.16.2/library\x509_crt.c ****     /*
 844:C:/Users/dtjld/workspace/AIoT/src/LiteOS_Lab/iot_link/network/dtls/mbedtls/mbedtls-2.16.2/library\x509_crt.c ****      * Check for valid input
 845:C:/Users/dtjld/workspace/AIoT/src/LiteOS_Lab/iot_link/network/dtls/mbedtls/mbedtls-2.16.2/library\x509_crt.c ****      */
 846:C:/Users/dtjld/workspace/AIoT/src/LiteOS_Lab/iot_link/network/dtls/mbedtls/mbedtls-2.16.2/library\x509_crt.c ****     if( crt == NULL || buf == NULL )
 2323              		.loc 2 846 0
 2324 0036 FB68     		ldr	r3, [r7, #12]
 2325 0038 002B     		cmp	r3, #0
 2326 003a 02D0     		beq	.L174
 2327              		.loc 2 846 0 is_stmt 0 discriminator 1
 2328 003c BB68     		ldr	r3, [r7, #8]
 2329 003e 002B     		cmp	r3, #0
 2330 0040 01D1     		bne	.L175
 2331              	.L174:
 847:C:/Users/dtjld/workspace/AIoT/src/LiteOS_Lab/iot_link/network/dtls/mbedtls/mbedtls-2.16.2/library\x509_crt.c ****         return( MBEDTLS_ERR_X509_BAD_INPUT_DATA );
 2332              		.loc 2 847 0 is_stmt 1
 2333 0042 A14B     		ldr	r3, .L204
 2334 0044 0AE2     		b	.L203
 2335              	.L175:
 848:C:/Users/dtjld/workspace/AIoT/src/LiteOS_Lab/iot_link/network/dtls/mbedtls/mbedtls-2.16.2/library\x509_crt.c **** 
 849:C:/Users/dtjld/workspace/AIoT/src/LiteOS_Lab/iot_link/network/dtls/mbedtls/mbedtls-2.16.2/library\x509_crt.c ****     // Use the original buffer until we figure out actual length
 850:C:/Users/dtjld/workspace/AIoT/src/LiteOS_Lab/iot_link/network/dtls/mbedtls/mbedtls-2.16.2/library\x509_crt.c ****     p = (unsigned char*) buf;
 2336              		.loc 2 850 0
 2337 0046 BB68     		ldr	r3, [r7, #8]
 2338 0048 7B63     		str	r3, [r7, #52]
 851:C:/Users/dtjld/workspace/AIoT/src/LiteOS_Lab/iot_link/network/dtls/mbedtls/mbedtls-2.16.2/library\x509_crt.c ****     len = buflen;
 2339              		.loc 2 851 0
 2340 004a 7B68     		ldr	r3, [r7, #4]
 2341 004c BB63     		str	r3, [r7, #56]
 852:C:/Users/dtjld/workspace/AIoT/src/LiteOS_Lab/iot_link/network/dtls/mbedtls/mbedtls-2.16.2/library\x509_crt.c ****     end = p + len;
 2342              		.loc 2 852 0
 2343 004e 7A6B     		ldr	r2, [r7, #52]
 2344 0050 BB6B     		ldr	r3, [r7, #56]
 2345 0052 1344     		add	r3, r3, r2
 2346 0054 3B64     		str	r3, [r7, #64]
 853:C:/Users/dtjld/workspace/AIoT/src/LiteOS_Lab/iot_link/network/dtls/mbedtls/mbedtls-2.16.2/library\x509_crt.c **** 
 854:C:/Users/dtjld/workspace/AIoT/src/LiteOS_Lab/iot_link/network/dtls/mbedtls/mbedtls-2.16.2/library\x509_crt.c ****     /*
 855:C:/Users/dtjld/workspace/AIoT/src/LiteOS_Lab/iot_link/network/dtls/mbedtls/mbedtls-2.16.2/library\x509_crt.c ****      * Certificate  ::=  SEQUENCE  {
 856:C:/Users/dtjld/workspace/AIoT/src/LiteOS_Lab/iot_link/network/dtls/mbedtls/mbedtls-2.16.2/library\x509_crt.c ****      *      tbsCertificate       TBSCertificate,
 857:C:/Users/dtjld/workspace/AIoT/src/LiteOS_Lab/iot_link/network/dtls/mbedtls/mbedtls-2.16.2/library\x509_crt.c ****      *      signatureAlgorithm   AlgorithmIdentifier,
ARM GAS  C:\Users\dtjld\AppData\Local\Temp\ccTXdst3.s 			page 60


 858:C:/Users/dtjld/workspace/AIoT/src/LiteOS_Lab/iot_link/network/dtls/mbedtls/mbedtls-2.16.2/library\x509_crt.c ****      *      signatureValue       BIT STRING  }
 859:C:/Users/dtjld/workspace/AIoT/src/LiteOS_Lab/iot_link/network/dtls/mbedtls/mbedtls-2.16.2/library\x509_crt.c ****      */
 860:C:/Users/dtjld/workspace/AIoT/src/LiteOS_Lab/iot_link/network/dtls/mbedtls/mbedtls-2.16.2/library\x509_crt.c ****     if( ( ret = mbedtls_asn1_get_tag( &p, end, &len,
 2347              		.loc 2 860 0
 2348 0056 07F13802 		add	r2, r7, #56
 2349 005a 07F13400 		add	r0, r7, #52
 2350 005e 3023     		movs	r3, #48
 2351 0060 396C     		ldr	r1, [r7, #64]
 2352 0062 FFF7FEFF 		bl	mbedtls_asn1_get_tag
 2353 0066 7864     		str	r0, [r7, #68]
 2354 0068 7B6C     		ldr	r3, [r7, #68]
 2355 006a 002B     		cmp	r3, #0
 2356 006c 04D0     		beq	.L177
 861:C:/Users/dtjld/workspace/AIoT/src/LiteOS_Lab/iot_link/network/dtls/mbedtls/mbedtls-2.16.2/library\x509_crt.c ****             MBEDTLS_ASN1_CONSTRUCTED | MBEDTLS_ASN1_SEQUENCE ) ) != 0 )
 862:C:/Users/dtjld/workspace/AIoT/src/LiteOS_Lab/iot_link/network/dtls/mbedtls/mbedtls-2.16.2/library\x509_crt.c ****     {
 863:C:/Users/dtjld/workspace/AIoT/src/LiteOS_Lab/iot_link/network/dtls/mbedtls/mbedtls-2.16.2/library\x509_crt.c ****         mbedtls_x509_crt_free( crt );
 2357              		.loc 2 863 0
 2358 006e F868     		ldr	r0, [r7, #12]
 2359 0070 FFF7FEFF 		bl	mbedtls_x509_crt_free
 864:C:/Users/dtjld/workspace/AIoT/src/LiteOS_Lab/iot_link/network/dtls/mbedtls/mbedtls-2.16.2/library\x509_crt.c ****         return( MBEDTLS_ERR_X509_INVALID_FORMAT );
 2360              		.loc 2 864 0
 2361 0074 954B     		ldr	r3, .L204+4
 2362 0076 F1E1     		b	.L203
 2363              	.L177:
 865:C:/Users/dtjld/workspace/AIoT/src/LiteOS_Lab/iot_link/network/dtls/mbedtls/mbedtls-2.16.2/library\x509_crt.c ****     }
 866:C:/Users/dtjld/workspace/AIoT/src/LiteOS_Lab/iot_link/network/dtls/mbedtls/mbedtls-2.16.2/library\x509_crt.c **** 
 867:C:/Users/dtjld/workspace/AIoT/src/LiteOS_Lab/iot_link/network/dtls/mbedtls/mbedtls-2.16.2/library\x509_crt.c ****     if( len > (size_t) ( end - p ) )
 2364              		.loc 2 867 0
 2365 0078 3B6C     		ldr	r3, [r7, #64]
 2366 007a 7A6B     		ldr	r2, [r7, #52]
 2367 007c 9B1A     		subs	r3, r3, r2
 2368 007e 1A46     		mov	r2, r3
 2369 0080 BB6B     		ldr	r3, [r7, #56]
 2370 0082 9A42     		cmp	r2, r3
 2371 0084 04D2     		bcs	.L178
 868:C:/Users/dtjld/workspace/AIoT/src/LiteOS_Lab/iot_link/network/dtls/mbedtls/mbedtls-2.16.2/library\x509_crt.c ****     {
 869:C:/Users/dtjld/workspace/AIoT/src/LiteOS_Lab/iot_link/network/dtls/mbedtls/mbedtls-2.16.2/library\x509_crt.c ****         mbedtls_x509_crt_free( crt );
 2372              		.loc 2 869 0
 2373 0086 F868     		ldr	r0, [r7, #12]
 2374 0088 FFF7FEFF 		bl	mbedtls_x509_crt_free
 870:C:/Users/dtjld/workspace/AIoT/src/LiteOS_Lab/iot_link/network/dtls/mbedtls/mbedtls-2.16.2/library\x509_crt.c ****         return( MBEDTLS_ERR_X509_INVALID_FORMAT +
 2375              		.loc 2 870 0
 2376 008c 904B     		ldr	r3, .L204+8
 2377 008e E5E1     		b	.L203
 2378              	.L178:
 871:C:/Users/dtjld/workspace/AIoT/src/LiteOS_Lab/iot_link/network/dtls/mbedtls/mbedtls-2.16.2/library\x509_crt.c ****                 MBEDTLS_ERR_ASN1_LENGTH_MISMATCH );
 872:C:/Users/dtjld/workspace/AIoT/src/LiteOS_Lab/iot_link/network/dtls/mbedtls/mbedtls-2.16.2/library\x509_crt.c ****     }
 873:C:/Users/dtjld/workspace/AIoT/src/LiteOS_Lab/iot_link/network/dtls/mbedtls/mbedtls-2.16.2/library\x509_crt.c ****     crt_end = p + len;
 2379              		.loc 2 873 0
 2380 0090 7A6B     		ldr	r2, [r7, #52]
 2381 0092 BB6B     		ldr	r3, [r7, #56]
 2382 0094 1344     		add	r3, r3, r2
 2383 0096 FB63     		str	r3, [r7, #60]
 874:C:/Users/dtjld/workspace/AIoT/src/LiteOS_Lab/iot_link/network/dtls/mbedtls/mbedtls-2.16.2/library\x509_crt.c **** 
 875:C:/Users/dtjld/workspace/AIoT/src/LiteOS_Lab/iot_link/network/dtls/mbedtls/mbedtls-2.16.2/library\x509_crt.c ****     // Create and populate a new buffer for the raw field
 876:C:/Users/dtjld/workspace/AIoT/src/LiteOS_Lab/iot_link/network/dtls/mbedtls/mbedtls-2.16.2/library\x509_crt.c ****     crt->raw.len = crt_end - buf;
 2384              		.loc 2 876 0
ARM GAS  C:\Users\dtjld\AppData\Local\Temp\ccTXdst3.s 			page 61


 2385 0098 FA6B     		ldr	r2, [r7, #60]
 2386 009a BB68     		ldr	r3, [r7, #8]
 2387 009c D31A     		subs	r3, r2, r3
 2388 009e 1A46     		mov	r2, r3
 2389 00a0 FB68     		ldr	r3, [r7, #12]
 2390 00a2 5A60     		str	r2, [r3, #4]
 877:C:/Users/dtjld/workspace/AIoT/src/LiteOS_Lab/iot_link/network/dtls/mbedtls/mbedtls-2.16.2/library\x509_crt.c ****     crt->raw.p = p = mbedtls_calloc( 1, crt->raw.len );
 2391              		.loc 2 877 0
 2392 00a4 FB68     		ldr	r3, [r7, #12]
 2393 00a6 5B68     		ldr	r3, [r3, #4]
 2394 00a8 1946     		mov	r1, r3
 2395 00aa 0120     		movs	r0, #1
 2396 00ac FFF7FEFF 		bl	mbedtls_calloc
 2397 00b0 0346     		mov	r3, r0
 2398 00b2 7B63     		str	r3, [r7, #52]
 2399 00b4 7A6B     		ldr	r2, [r7, #52]
 2400 00b6 FB68     		ldr	r3, [r7, #12]
 2401 00b8 9A60     		str	r2, [r3, #8]
 878:C:/Users/dtjld/workspace/AIoT/src/LiteOS_Lab/iot_link/network/dtls/mbedtls/mbedtls-2.16.2/library\x509_crt.c ****     if( p == NULL )
 2402              		.loc 2 878 0
 2403 00ba 7B6B     		ldr	r3, [r7, #52]
 2404 00bc 002B     		cmp	r3, #0
 2405 00be 01D1     		bne	.L179
 879:C:/Users/dtjld/workspace/AIoT/src/LiteOS_Lab/iot_link/network/dtls/mbedtls/mbedtls-2.16.2/library\x509_crt.c ****         return( MBEDTLS_ERR_X509_ALLOC_FAILED );
 2406              		.loc 2 879 0
 2407 00c0 844B     		ldr	r3, .L204+12
 2408 00c2 CBE1     		b	.L203
 2409              	.L179:
 880:C:/Users/dtjld/workspace/AIoT/src/LiteOS_Lab/iot_link/network/dtls/mbedtls/mbedtls-2.16.2/library\x509_crt.c **** 
 881:C:/Users/dtjld/workspace/AIoT/src/LiteOS_Lab/iot_link/network/dtls/mbedtls/mbedtls-2.16.2/library\x509_crt.c ****     memcpy( p, buf, crt->raw.len );
 2410              		.loc 2 881 0
 2411 00c4 786B     		ldr	r0, [r7, #52]
 2412 00c6 FB68     		ldr	r3, [r7, #12]
 2413 00c8 5B68     		ldr	r3, [r3, #4]
 2414 00ca 1A46     		mov	r2, r3
 2415 00cc B968     		ldr	r1, [r7, #8]
 2416 00ce FFF7FEFF 		bl	memcpy
 882:C:/Users/dtjld/workspace/AIoT/src/LiteOS_Lab/iot_link/network/dtls/mbedtls/mbedtls-2.16.2/library\x509_crt.c **** 
 883:C:/Users/dtjld/workspace/AIoT/src/LiteOS_Lab/iot_link/network/dtls/mbedtls/mbedtls-2.16.2/library\x509_crt.c ****     // Direct pointers to the new buffer
 884:C:/Users/dtjld/workspace/AIoT/src/LiteOS_Lab/iot_link/network/dtls/mbedtls/mbedtls-2.16.2/library\x509_crt.c ****     p += crt->raw.len - len;
 2417              		.loc 2 884 0
 2418 00d2 7A6B     		ldr	r2, [r7, #52]
 2419 00d4 FB68     		ldr	r3, [r7, #12]
 2420 00d6 5968     		ldr	r1, [r3, #4]
 2421 00d8 BB6B     		ldr	r3, [r7, #56]
 2422 00da CB1A     		subs	r3, r1, r3
 2423 00dc 1344     		add	r3, r3, r2
 2424 00de 7B63     		str	r3, [r7, #52]
 885:C:/Users/dtjld/workspace/AIoT/src/LiteOS_Lab/iot_link/network/dtls/mbedtls/mbedtls-2.16.2/library\x509_crt.c ****     end = crt_end = p + len;
 2425              		.loc 2 885 0
 2426 00e0 7A6B     		ldr	r2, [r7, #52]
 2427 00e2 BB6B     		ldr	r3, [r7, #56]
 2428 00e4 1344     		add	r3, r3, r2
 2429 00e6 FB63     		str	r3, [r7, #60]
 2430 00e8 FB6B     		ldr	r3, [r7, #60]
 2431 00ea 3B64     		str	r3, [r7, #64]
 886:C:/Users/dtjld/workspace/AIoT/src/LiteOS_Lab/iot_link/network/dtls/mbedtls/mbedtls-2.16.2/library\x509_crt.c **** 
ARM GAS  C:\Users\dtjld\AppData\Local\Temp\ccTXdst3.s 			page 62


 887:C:/Users/dtjld/workspace/AIoT/src/LiteOS_Lab/iot_link/network/dtls/mbedtls/mbedtls-2.16.2/library\x509_crt.c ****     /*
 888:C:/Users/dtjld/workspace/AIoT/src/LiteOS_Lab/iot_link/network/dtls/mbedtls/mbedtls-2.16.2/library\x509_crt.c ****      * TBSCertificate  ::=  SEQUENCE  {
 889:C:/Users/dtjld/workspace/AIoT/src/LiteOS_Lab/iot_link/network/dtls/mbedtls/mbedtls-2.16.2/library\x509_crt.c ****      */
 890:C:/Users/dtjld/workspace/AIoT/src/LiteOS_Lab/iot_link/network/dtls/mbedtls/mbedtls-2.16.2/library\x509_crt.c ****     crt->tbs.p = p;
 2432              		.loc 2 890 0
 2433 00ec 7A6B     		ldr	r2, [r7, #52]
 2434 00ee FB68     		ldr	r3, [r7, #12]
 2435 00f0 5A61     		str	r2, [r3, #20]
 891:C:/Users/dtjld/workspace/AIoT/src/LiteOS_Lab/iot_link/network/dtls/mbedtls/mbedtls-2.16.2/library\x509_crt.c **** 
 892:C:/Users/dtjld/workspace/AIoT/src/LiteOS_Lab/iot_link/network/dtls/mbedtls/mbedtls-2.16.2/library\x509_crt.c ****     if( ( ret = mbedtls_asn1_get_tag( &p, end, &len,
 2436              		.loc 2 892 0
 2437 00f2 07F13802 		add	r2, r7, #56
 2438 00f6 07F13400 		add	r0, r7, #52
 2439 00fa 3023     		movs	r3, #48
 2440 00fc 396C     		ldr	r1, [r7, #64]
 2441 00fe FFF7FEFF 		bl	mbedtls_asn1_get_tag
 2442 0102 7864     		str	r0, [r7, #68]
 2443 0104 7B6C     		ldr	r3, [r7, #68]
 2444 0106 002B     		cmp	r3, #0
 2445 0108 06D0     		beq	.L180
 893:C:/Users/dtjld/workspace/AIoT/src/LiteOS_Lab/iot_link/network/dtls/mbedtls/mbedtls-2.16.2/library\x509_crt.c ****             MBEDTLS_ASN1_CONSTRUCTED | MBEDTLS_ASN1_SEQUENCE ) ) != 0 )
 894:C:/Users/dtjld/workspace/AIoT/src/LiteOS_Lab/iot_link/network/dtls/mbedtls/mbedtls-2.16.2/library\x509_crt.c ****     {
 895:C:/Users/dtjld/workspace/AIoT/src/LiteOS_Lab/iot_link/network/dtls/mbedtls/mbedtls-2.16.2/library\x509_crt.c ****         mbedtls_x509_crt_free( crt );
 2446              		.loc 2 895 0
 2447 010a F868     		ldr	r0, [r7, #12]
 2448 010c FFF7FEFF 		bl	mbedtls_x509_crt_free
 896:C:/Users/dtjld/workspace/AIoT/src/LiteOS_Lab/iot_link/network/dtls/mbedtls/mbedtls-2.16.2/library\x509_crt.c ****         return( MBEDTLS_ERR_X509_INVALID_FORMAT + ret );
 2449              		.loc 2 896 0
 2450 0110 7B6C     		ldr	r3, [r7, #68]
 2451 0112 A3F50653 		sub	r3, r3, #8576
 2452 0116 A1E1     		b	.L203
 2453              	.L180:
 897:C:/Users/dtjld/workspace/AIoT/src/LiteOS_Lab/iot_link/network/dtls/mbedtls/mbedtls-2.16.2/library\x509_crt.c ****     }
 898:C:/Users/dtjld/workspace/AIoT/src/LiteOS_Lab/iot_link/network/dtls/mbedtls/mbedtls-2.16.2/library\x509_crt.c **** 
 899:C:/Users/dtjld/workspace/AIoT/src/LiteOS_Lab/iot_link/network/dtls/mbedtls/mbedtls-2.16.2/library\x509_crt.c ****     end = p + len;
 2454              		.loc 2 899 0
 2455 0118 7A6B     		ldr	r2, [r7, #52]
 2456 011a BB6B     		ldr	r3, [r7, #56]
 2457 011c 1344     		add	r3, r3, r2
 2458 011e 3B64     		str	r3, [r7, #64]
 900:C:/Users/dtjld/workspace/AIoT/src/LiteOS_Lab/iot_link/network/dtls/mbedtls/mbedtls-2.16.2/library\x509_crt.c ****     crt->tbs.len = end - crt->tbs.p;
 2459              		.loc 2 900 0
 2460 0120 3B6C     		ldr	r3, [r7, #64]
 2461 0122 FA68     		ldr	r2, [r7, #12]
 2462 0124 5269     		ldr	r2, [r2, #20]
 2463 0126 9B1A     		subs	r3, r3, r2
 2464 0128 1A46     		mov	r2, r3
 2465 012a FB68     		ldr	r3, [r7, #12]
 2466 012c 1A61     		str	r2, [r3, #16]
 901:C:/Users/dtjld/workspace/AIoT/src/LiteOS_Lab/iot_link/network/dtls/mbedtls/mbedtls-2.16.2/library\x509_crt.c **** 
 902:C:/Users/dtjld/workspace/AIoT/src/LiteOS_Lab/iot_link/network/dtls/mbedtls/mbedtls-2.16.2/library\x509_crt.c ****     /*
 903:C:/Users/dtjld/workspace/AIoT/src/LiteOS_Lab/iot_link/network/dtls/mbedtls/mbedtls-2.16.2/library\x509_crt.c ****      * Version  ::=  INTEGER  {  v1(0), v2(1), v3(2)  }
 904:C:/Users/dtjld/workspace/AIoT/src/LiteOS_Lab/iot_link/network/dtls/mbedtls/mbedtls-2.16.2/library\x509_crt.c ****      *
 905:C:/Users/dtjld/workspace/AIoT/src/LiteOS_Lab/iot_link/network/dtls/mbedtls/mbedtls-2.16.2/library\x509_crt.c ****      * CertificateSerialNumber  ::=  INTEGER
 906:C:/Users/dtjld/workspace/AIoT/src/LiteOS_Lab/iot_link/network/dtls/mbedtls/mbedtls-2.16.2/library\x509_crt.c ****      *
 907:C:/Users/dtjld/workspace/AIoT/src/LiteOS_Lab/iot_link/network/dtls/mbedtls/mbedtls-2.16.2/library\x509_crt.c ****      * signature            AlgorithmIdentifier
 908:C:/Users/dtjld/workspace/AIoT/src/LiteOS_Lab/iot_link/network/dtls/mbedtls/mbedtls-2.16.2/library\x509_crt.c ****      */
ARM GAS  C:\Users\dtjld\AppData\Local\Temp\ccTXdst3.s 			page 63


 909:C:/Users/dtjld/workspace/AIoT/src/LiteOS_Lab/iot_link/network/dtls/mbedtls/mbedtls-2.16.2/library\x509_crt.c ****     if( ( ret = x509_get_version(  &p, end, &crt->version  ) ) != 0 ||
 2467              		.loc 2 909 0
 2468 012e FB68     		ldr	r3, [r7, #12]
 2469 0130 03F11802 		add	r2, r3, #24
 2470 0134 07F13403 		add	r3, r7, #52
 2471 0138 396C     		ldr	r1, [r7, #64]
 2472 013a 1846     		mov	r0, r3
 2473 013c FFF7FEFF 		bl	x509_get_version
 2474 0140 7864     		str	r0, [r7, #68]
 2475 0142 7B6C     		ldr	r3, [r7, #68]
 2476 0144 002B     		cmp	r3, #0
 2477 0146 1AD1     		bne	.L181
 910:C:/Users/dtjld/workspace/AIoT/src/LiteOS_Lab/iot_link/network/dtls/mbedtls/mbedtls-2.16.2/library\x509_crt.c ****         ( ret = mbedtls_x509_get_serial(   &p, end, &crt->serial   ) ) != 0 ||
 2478              		.loc 2 910 0 discriminator 1
 2479 0148 FB68     		ldr	r3, [r7, #12]
 2480 014a 03F11C02 		add	r2, r3, #28
 909:C:/Users/dtjld/workspace/AIoT/src/LiteOS_Lab/iot_link/network/dtls/mbedtls/mbedtls-2.16.2/library\x509_crt.c ****         ( ret = mbedtls_x509_get_serial(   &p, end, &crt->serial   ) ) != 0 ||
 2481              		.loc 2 909 0 discriminator 1
 2482 014e 07F13403 		add	r3, r7, #52
 2483 0152 396C     		ldr	r1, [r7, #64]
 2484 0154 1846     		mov	r0, r3
 2485 0156 FFF7FEFF 		bl	mbedtls_x509_get_serial
 2486 015a 7864     		str	r0, [r7, #68]
 2487 015c 7B6C     		ldr	r3, [r7, #68]
 2488 015e 002B     		cmp	r3, #0
 2489 0160 0DD1     		bne	.L181
 911:C:/Users/dtjld/workspace/AIoT/src/LiteOS_Lab/iot_link/network/dtls/mbedtls/mbedtls-2.16.2/library\x509_crt.c ****         ( ret = mbedtls_x509_get_alg(      &p, end, &crt->sig_oid,
 2490              		.loc 2 911 0
 2491 0162 FB68     		ldr	r3, [r7, #12]
 2492 0164 03F12802 		add	r2, r3, #40
 910:C:/Users/dtjld/workspace/AIoT/src/LiteOS_Lab/iot_link/network/dtls/mbedtls/mbedtls-2.16.2/library\x509_crt.c ****         ( ret = mbedtls_x509_get_serial(   &p, end, &crt->serial   ) ) != 0 ||
 2493              		.loc 2 910 0
 2494 0168 07F12803 		add	r3, r7, #40
 2495 016c 07F13400 		add	r0, r7, #52
 2496 0170 396C     		ldr	r1, [r7, #64]
 2497 0172 FFF7FEFF 		bl	mbedtls_x509_get_alg
 2498 0176 7864     		str	r0, [r7, #68]
 2499 0178 7B6C     		ldr	r3, [r7, #68]
 2500 017a 002B     		cmp	r3, #0
 2501 017c 04D0     		beq	.L182
 2502              	.L181:
 912:C:/Users/dtjld/workspace/AIoT/src/LiteOS_Lab/iot_link/network/dtls/mbedtls/mbedtls-2.16.2/library\x509_crt.c ****                                             &sig_params1 ) ) != 0 )
 913:C:/Users/dtjld/workspace/AIoT/src/LiteOS_Lab/iot_link/network/dtls/mbedtls/mbedtls-2.16.2/library\x509_crt.c ****     {
 914:C:/Users/dtjld/workspace/AIoT/src/LiteOS_Lab/iot_link/network/dtls/mbedtls/mbedtls-2.16.2/library\x509_crt.c ****         mbedtls_x509_crt_free( crt );
 2503              		.loc 2 914 0
 2504 017e F868     		ldr	r0, [r7, #12]
 2505 0180 FFF7FEFF 		bl	mbedtls_x509_crt_free
 915:C:/Users/dtjld/workspace/AIoT/src/LiteOS_Lab/iot_link/network/dtls/mbedtls/mbedtls-2.16.2/library\x509_crt.c ****         return( ret );
 2506              		.loc 2 915 0
 2507 0184 7B6C     		ldr	r3, [r7, #68]
 2508 0186 69E1     		b	.L203
 2509              	.L182:
 916:C:/Users/dtjld/workspace/AIoT/src/LiteOS_Lab/iot_link/network/dtls/mbedtls/mbedtls-2.16.2/library\x509_crt.c ****     }
 917:C:/Users/dtjld/workspace/AIoT/src/LiteOS_Lab/iot_link/network/dtls/mbedtls/mbedtls-2.16.2/library\x509_crt.c **** 
 918:C:/Users/dtjld/workspace/AIoT/src/LiteOS_Lab/iot_link/network/dtls/mbedtls/mbedtls-2.16.2/library\x509_crt.c ****     if( crt->version < 0 || crt->version > 2 )
 2510              		.loc 2 918 0
 2511 0188 FB68     		ldr	r3, [r7, #12]
ARM GAS  C:\Users\dtjld\AppData\Local\Temp\ccTXdst3.s 			page 64


 2512 018a 9B69     		ldr	r3, [r3, #24]
 2513 018c 002B     		cmp	r3, #0
 2514 018e 03DB     		blt	.L183
 2515              		.loc 2 918 0 is_stmt 0 discriminator 1
 2516 0190 FB68     		ldr	r3, [r7, #12]
 2517 0192 9B69     		ldr	r3, [r3, #24]
 2518 0194 022B     		cmp	r3, #2
 2519 0196 04DD     		ble	.L184
 2520              	.L183:
 919:C:/Users/dtjld/workspace/AIoT/src/LiteOS_Lab/iot_link/network/dtls/mbedtls/mbedtls-2.16.2/library\x509_crt.c ****     {
 920:C:/Users/dtjld/workspace/AIoT/src/LiteOS_Lab/iot_link/network/dtls/mbedtls/mbedtls-2.16.2/library\x509_crt.c ****         mbedtls_x509_crt_free( crt );
 2521              		.loc 2 920 0 is_stmt 1
 2522 0198 F868     		ldr	r0, [r7, #12]
 2523 019a FFF7FEFF 		bl	mbedtls_x509_crt_free
 921:C:/Users/dtjld/workspace/AIoT/src/LiteOS_Lab/iot_link/network/dtls/mbedtls/mbedtls-2.16.2/library\x509_crt.c ****         return( MBEDTLS_ERR_X509_UNKNOWN_VERSION );
 2524              		.loc 2 921 0
 2525 019e 4E4B     		ldr	r3, .L204+16
 2526 01a0 5CE1     		b	.L203
 2527              	.L184:
 922:C:/Users/dtjld/workspace/AIoT/src/LiteOS_Lab/iot_link/network/dtls/mbedtls/mbedtls-2.16.2/library\x509_crt.c ****     }
 923:C:/Users/dtjld/workspace/AIoT/src/LiteOS_Lab/iot_link/network/dtls/mbedtls/mbedtls-2.16.2/library\x509_crt.c **** 
 924:C:/Users/dtjld/workspace/AIoT/src/LiteOS_Lab/iot_link/network/dtls/mbedtls/mbedtls-2.16.2/library\x509_crt.c ****     crt->version++;
 2528              		.loc 2 924 0
 2529 01a2 FB68     		ldr	r3, [r7, #12]
 2530 01a4 9B69     		ldr	r3, [r3, #24]
 2531 01a6 5A1C     		adds	r2, r3, #1
 2532 01a8 FB68     		ldr	r3, [r7, #12]
 2533 01aa 9A61     		str	r2, [r3, #24]
 925:C:/Users/dtjld/workspace/AIoT/src/LiteOS_Lab/iot_link/network/dtls/mbedtls/mbedtls-2.16.2/library\x509_crt.c **** 
 926:C:/Users/dtjld/workspace/AIoT/src/LiteOS_Lab/iot_link/network/dtls/mbedtls/mbedtls-2.16.2/library\x509_crt.c ****     if( ( ret = mbedtls_x509_get_sig_alg( &crt->sig_oid, &sig_params1,
 2534              		.loc 2 926 0
 2535 01ac FB68     		ldr	r3, [r7, #12]
 2536 01ae 03F12800 		add	r0, r3, #40
 2537 01b2 FB68     		ldr	r3, [r7, #12]
 2538 01b4 03F59472 		add	r2, r3, #296
 2539 01b8 FB68     		ldr	r3, [r7, #12]
 2540 01ba 03F22914 		addw	r4, r3, #297
 2541 01be FB68     		ldr	r3, [r7, #12]
 2542 01c0 03F59673 		add	r3, r3, #300
 2543 01c4 07F12801 		add	r1, r7, #40
 2544 01c8 0093     		str	r3, [sp]
 2545 01ca 2346     		mov	r3, r4
 2546 01cc FFF7FEFF 		bl	mbedtls_x509_get_sig_alg
 2547 01d0 7864     		str	r0, [r7, #68]
 2548 01d2 7B6C     		ldr	r3, [r7, #68]
 2549 01d4 002B     		cmp	r3, #0
 2550 01d6 04D0     		beq	.L185
 927:C:/Users/dtjld/workspace/AIoT/src/LiteOS_Lab/iot_link/network/dtls/mbedtls/mbedtls-2.16.2/library\x509_crt.c ****                                   &crt->sig_md, &crt->sig_pk,
 928:C:/Users/dtjld/workspace/AIoT/src/LiteOS_Lab/iot_link/network/dtls/mbedtls/mbedtls-2.16.2/library\x509_crt.c ****                                   &crt->sig_opts ) ) != 0 )
 929:C:/Users/dtjld/workspace/AIoT/src/LiteOS_Lab/iot_link/network/dtls/mbedtls/mbedtls-2.16.2/library\x509_crt.c ****     {
 930:C:/Users/dtjld/workspace/AIoT/src/LiteOS_Lab/iot_link/network/dtls/mbedtls/mbedtls-2.16.2/library\x509_crt.c ****         mbedtls_x509_crt_free( crt );
 2551              		.loc 2 930 0
 2552 01d8 F868     		ldr	r0, [r7, #12]
 2553 01da FFF7FEFF 		bl	mbedtls_x509_crt_free
 931:C:/Users/dtjld/workspace/AIoT/src/LiteOS_Lab/iot_link/network/dtls/mbedtls/mbedtls-2.16.2/library\x509_crt.c ****         return( ret );
 2554              		.loc 2 931 0
 2555 01de 7B6C     		ldr	r3, [r7, #68]
ARM GAS  C:\Users\dtjld\AppData\Local\Temp\ccTXdst3.s 			page 65


 2556 01e0 3CE1     		b	.L203
 2557              	.L185:
 932:C:/Users/dtjld/workspace/AIoT/src/LiteOS_Lab/iot_link/network/dtls/mbedtls/mbedtls-2.16.2/library\x509_crt.c ****     }
 933:C:/Users/dtjld/workspace/AIoT/src/LiteOS_Lab/iot_link/network/dtls/mbedtls/mbedtls-2.16.2/library\x509_crt.c **** 
 934:C:/Users/dtjld/workspace/AIoT/src/LiteOS_Lab/iot_link/network/dtls/mbedtls/mbedtls-2.16.2/library\x509_crt.c ****     /*
 935:C:/Users/dtjld/workspace/AIoT/src/LiteOS_Lab/iot_link/network/dtls/mbedtls/mbedtls-2.16.2/library\x509_crt.c ****      * issuer               Name
 936:C:/Users/dtjld/workspace/AIoT/src/LiteOS_Lab/iot_link/network/dtls/mbedtls/mbedtls-2.16.2/library\x509_crt.c ****      */
 937:C:/Users/dtjld/workspace/AIoT/src/LiteOS_Lab/iot_link/network/dtls/mbedtls/mbedtls-2.16.2/library\x509_crt.c ****     crt->issuer_raw.p = p;
 2558              		.loc 2 937 0
 2559 01e2 7A6B     		ldr	r2, [r7, #52]
 2560 01e4 FB68     		ldr	r3, [r7, #12]
 2561 01e6 DA63     		str	r2, [r3, #60]
 938:C:/Users/dtjld/workspace/AIoT/src/LiteOS_Lab/iot_link/network/dtls/mbedtls/mbedtls-2.16.2/library\x509_crt.c **** 
 939:C:/Users/dtjld/workspace/AIoT/src/LiteOS_Lab/iot_link/network/dtls/mbedtls/mbedtls-2.16.2/library\x509_crt.c ****     if( ( ret = mbedtls_asn1_get_tag( &p, end, &len,
 2562              		.loc 2 939 0
 2563 01e8 07F13802 		add	r2, r7, #56
 2564 01ec 07F13400 		add	r0, r7, #52
 2565 01f0 3023     		movs	r3, #48
 2566 01f2 396C     		ldr	r1, [r7, #64]
 2567 01f4 FFF7FEFF 		bl	mbedtls_asn1_get_tag
 2568 01f8 7864     		str	r0, [r7, #68]
 2569 01fa 7B6C     		ldr	r3, [r7, #68]
 2570 01fc 002B     		cmp	r3, #0
 2571 01fe 06D0     		beq	.L186
 940:C:/Users/dtjld/workspace/AIoT/src/LiteOS_Lab/iot_link/network/dtls/mbedtls/mbedtls-2.16.2/library\x509_crt.c ****             MBEDTLS_ASN1_CONSTRUCTED | MBEDTLS_ASN1_SEQUENCE ) ) != 0 )
 941:C:/Users/dtjld/workspace/AIoT/src/LiteOS_Lab/iot_link/network/dtls/mbedtls/mbedtls-2.16.2/library\x509_crt.c ****     {
 942:C:/Users/dtjld/workspace/AIoT/src/LiteOS_Lab/iot_link/network/dtls/mbedtls/mbedtls-2.16.2/library\x509_crt.c ****         mbedtls_x509_crt_free( crt );
 2572              		.loc 2 942 0
 2573 0200 F868     		ldr	r0, [r7, #12]
 2574 0202 FFF7FEFF 		bl	mbedtls_x509_crt_free
 943:C:/Users/dtjld/workspace/AIoT/src/LiteOS_Lab/iot_link/network/dtls/mbedtls/mbedtls-2.16.2/library\x509_crt.c ****         return( MBEDTLS_ERR_X509_INVALID_FORMAT + ret );
 2575              		.loc 2 943 0
 2576 0206 7B6C     		ldr	r3, [r7, #68]
 2577 0208 A3F50653 		sub	r3, r3, #8576
 2578 020c 26E1     		b	.L203
 2579              	.L186:
 944:C:/Users/dtjld/workspace/AIoT/src/LiteOS_Lab/iot_link/network/dtls/mbedtls/mbedtls-2.16.2/library\x509_crt.c ****     }
 945:C:/Users/dtjld/workspace/AIoT/src/LiteOS_Lab/iot_link/network/dtls/mbedtls/mbedtls-2.16.2/library\x509_crt.c **** 
 946:C:/Users/dtjld/workspace/AIoT/src/LiteOS_Lab/iot_link/network/dtls/mbedtls/mbedtls-2.16.2/library\x509_crt.c ****     if( ( ret = mbedtls_x509_get_name( &p, p + len, &crt->issuer ) ) != 0 )
 2580              		.loc 2 946 0
 2581 020e 7A6B     		ldr	r2, [r7, #52]
 2582 0210 BB6B     		ldr	r3, [r7, #56]
 2583 0212 D118     		adds	r1, r2, r3
 2584 0214 FB68     		ldr	r3, [r7, #12]
 2585 0216 03F14C02 		add	r2, r3, #76
 2586 021a 07F13403 		add	r3, r7, #52
 2587 021e 1846     		mov	r0, r3
 2588 0220 FFF7FEFF 		bl	mbedtls_x509_get_name
 2589 0224 7864     		str	r0, [r7, #68]
 2590 0226 7B6C     		ldr	r3, [r7, #68]
 2591 0228 002B     		cmp	r3, #0
 2592 022a 04D0     		beq	.L187
 947:C:/Users/dtjld/workspace/AIoT/src/LiteOS_Lab/iot_link/network/dtls/mbedtls/mbedtls-2.16.2/library\x509_crt.c ****     {
 948:C:/Users/dtjld/workspace/AIoT/src/LiteOS_Lab/iot_link/network/dtls/mbedtls/mbedtls-2.16.2/library\x509_crt.c ****         mbedtls_x509_crt_free( crt );
 2593              		.loc 2 948 0
 2594 022c F868     		ldr	r0, [r7, #12]
 2595 022e FFF7FEFF 		bl	mbedtls_x509_crt_free
ARM GAS  C:\Users\dtjld\AppData\Local\Temp\ccTXdst3.s 			page 66


 949:C:/Users/dtjld/workspace/AIoT/src/LiteOS_Lab/iot_link/network/dtls/mbedtls/mbedtls-2.16.2/library\x509_crt.c ****         return( ret );
 2596              		.loc 2 949 0
 2597 0232 7B6C     		ldr	r3, [r7, #68]
 2598 0234 12E1     		b	.L203
 2599              	.L187:
 950:C:/Users/dtjld/workspace/AIoT/src/LiteOS_Lab/iot_link/network/dtls/mbedtls/mbedtls-2.16.2/library\x509_crt.c ****     }
 951:C:/Users/dtjld/workspace/AIoT/src/LiteOS_Lab/iot_link/network/dtls/mbedtls/mbedtls-2.16.2/library\x509_crt.c **** 
 952:C:/Users/dtjld/workspace/AIoT/src/LiteOS_Lab/iot_link/network/dtls/mbedtls/mbedtls-2.16.2/library\x509_crt.c ****     crt->issuer_raw.len = p - crt->issuer_raw.p;
 2600              		.loc 2 952 0
 2601 0236 7B6B     		ldr	r3, [r7, #52]
 2602 0238 1A46     		mov	r2, r3
 2603 023a FB68     		ldr	r3, [r7, #12]
 2604 023c DB6B     		ldr	r3, [r3, #60]
 2605 023e D31A     		subs	r3, r2, r3
 2606 0240 1A46     		mov	r2, r3
 2607 0242 FB68     		ldr	r3, [r7, #12]
 2608 0244 9A63     		str	r2, [r3, #56]
 953:C:/Users/dtjld/workspace/AIoT/src/LiteOS_Lab/iot_link/network/dtls/mbedtls/mbedtls-2.16.2/library\x509_crt.c **** 
 954:C:/Users/dtjld/workspace/AIoT/src/LiteOS_Lab/iot_link/network/dtls/mbedtls/mbedtls-2.16.2/library\x509_crt.c ****     /*
 955:C:/Users/dtjld/workspace/AIoT/src/LiteOS_Lab/iot_link/network/dtls/mbedtls/mbedtls-2.16.2/library\x509_crt.c ****      * Validity ::= SEQUENCE {
 956:C:/Users/dtjld/workspace/AIoT/src/LiteOS_Lab/iot_link/network/dtls/mbedtls/mbedtls-2.16.2/library\x509_crt.c ****      *      notBefore      Time,
 957:C:/Users/dtjld/workspace/AIoT/src/LiteOS_Lab/iot_link/network/dtls/mbedtls/mbedtls-2.16.2/library\x509_crt.c ****      *      notAfter       Time }
 958:C:/Users/dtjld/workspace/AIoT/src/LiteOS_Lab/iot_link/network/dtls/mbedtls/mbedtls-2.16.2/library\x509_crt.c ****      *
 959:C:/Users/dtjld/workspace/AIoT/src/LiteOS_Lab/iot_link/network/dtls/mbedtls/mbedtls-2.16.2/library\x509_crt.c ****      */
 960:C:/Users/dtjld/workspace/AIoT/src/LiteOS_Lab/iot_link/network/dtls/mbedtls/mbedtls-2.16.2/library\x509_crt.c ****     if( ( ret = x509_get_dates( &p, end, &crt->valid_from,
 2609              		.loc 2 960 0
 2610 0246 FB68     		ldr	r3, [r7, #12]
 2611 0248 03F18C02 		add	r2, r3, #140
 2612 024c FB68     		ldr	r3, [r7, #12]
 2613 024e A433     		adds	r3, r3, #164
 2614 0250 07F13400 		add	r0, r7, #52
 2615 0254 396C     		ldr	r1, [r7, #64]
 2616 0256 FFF7FEFF 		bl	x509_get_dates
 2617 025a 7864     		str	r0, [r7, #68]
 2618 025c 7B6C     		ldr	r3, [r7, #68]
 2619 025e 002B     		cmp	r3, #0
 2620 0260 04D0     		beq	.L188
 961:C:/Users/dtjld/workspace/AIoT/src/LiteOS_Lab/iot_link/network/dtls/mbedtls/mbedtls-2.16.2/library\x509_crt.c ****                                          &crt->valid_to ) ) != 0 )
 962:C:/Users/dtjld/workspace/AIoT/src/LiteOS_Lab/iot_link/network/dtls/mbedtls/mbedtls-2.16.2/library\x509_crt.c ****     {
 963:C:/Users/dtjld/workspace/AIoT/src/LiteOS_Lab/iot_link/network/dtls/mbedtls/mbedtls-2.16.2/library\x509_crt.c ****         mbedtls_x509_crt_free( crt );
 2621              		.loc 2 963 0
 2622 0262 F868     		ldr	r0, [r7, #12]
 2623 0264 FFF7FEFF 		bl	mbedtls_x509_crt_free
 964:C:/Users/dtjld/workspace/AIoT/src/LiteOS_Lab/iot_link/network/dtls/mbedtls/mbedtls-2.16.2/library\x509_crt.c ****         return( ret );
 2624              		.loc 2 964 0
 2625 0268 7B6C     		ldr	r3, [r7, #68]
 2626 026a F7E0     		b	.L203
 2627              	.L188:
 965:C:/Users/dtjld/workspace/AIoT/src/LiteOS_Lab/iot_link/network/dtls/mbedtls/mbedtls-2.16.2/library\x509_crt.c ****     }
 966:C:/Users/dtjld/workspace/AIoT/src/LiteOS_Lab/iot_link/network/dtls/mbedtls/mbedtls-2.16.2/library\x509_crt.c **** 
 967:C:/Users/dtjld/workspace/AIoT/src/LiteOS_Lab/iot_link/network/dtls/mbedtls/mbedtls-2.16.2/library\x509_crt.c ****     /*
 968:C:/Users/dtjld/workspace/AIoT/src/LiteOS_Lab/iot_link/network/dtls/mbedtls/mbedtls-2.16.2/library\x509_crt.c ****      * subject              Name
 969:C:/Users/dtjld/workspace/AIoT/src/LiteOS_Lab/iot_link/network/dtls/mbedtls/mbedtls-2.16.2/library\x509_crt.c ****      */
 970:C:/Users/dtjld/workspace/AIoT/src/LiteOS_Lab/iot_link/network/dtls/mbedtls/mbedtls-2.16.2/library\x509_crt.c ****     crt->subject_raw.p = p;
 2628              		.loc 2 970 0
 2629 026c 7A6B     		ldr	r2, [r7, #52]
 2630 026e FB68     		ldr	r3, [r7, #12]
ARM GAS  C:\Users\dtjld\AppData\Local\Temp\ccTXdst3.s 			page 67


 2631 0270 9A64     		str	r2, [r3, #72]
 971:C:/Users/dtjld/workspace/AIoT/src/LiteOS_Lab/iot_link/network/dtls/mbedtls/mbedtls-2.16.2/library\x509_crt.c **** 
 972:C:/Users/dtjld/workspace/AIoT/src/LiteOS_Lab/iot_link/network/dtls/mbedtls/mbedtls-2.16.2/library\x509_crt.c ****     if( ( ret = mbedtls_asn1_get_tag( &p, end, &len,
 2632              		.loc 2 972 0
 2633 0272 07F13802 		add	r2, r7, #56
 2634 0276 07F13400 		add	r0, r7, #52
 2635 027a 3023     		movs	r3, #48
 2636 027c 396C     		ldr	r1, [r7, #64]
 2637 027e FFF7FEFF 		bl	mbedtls_asn1_get_tag
 2638 0282 7864     		str	r0, [r7, #68]
 2639 0284 7B6C     		ldr	r3, [r7, #68]
 2640 0286 002B     		cmp	r3, #0
 2641 0288 06D0     		beq	.L189
 973:C:/Users/dtjld/workspace/AIoT/src/LiteOS_Lab/iot_link/network/dtls/mbedtls/mbedtls-2.16.2/library\x509_crt.c ****             MBEDTLS_ASN1_CONSTRUCTED | MBEDTLS_ASN1_SEQUENCE ) ) != 0 )
 974:C:/Users/dtjld/workspace/AIoT/src/LiteOS_Lab/iot_link/network/dtls/mbedtls/mbedtls-2.16.2/library\x509_crt.c ****     {
 975:C:/Users/dtjld/workspace/AIoT/src/LiteOS_Lab/iot_link/network/dtls/mbedtls/mbedtls-2.16.2/library\x509_crt.c ****         mbedtls_x509_crt_free( crt );
 2642              		.loc 2 975 0
 2643 028a F868     		ldr	r0, [r7, #12]
 2644 028c FFF7FEFF 		bl	mbedtls_x509_crt_free
 976:C:/Users/dtjld/workspace/AIoT/src/LiteOS_Lab/iot_link/network/dtls/mbedtls/mbedtls-2.16.2/library\x509_crt.c ****         return( MBEDTLS_ERR_X509_INVALID_FORMAT + ret );
 2645              		.loc 2 976 0
 2646 0290 7B6C     		ldr	r3, [r7, #68]
 2647 0292 A3F50653 		sub	r3, r3, #8576
 2648 0296 E1E0     		b	.L203
 2649              	.L189:
 977:C:/Users/dtjld/workspace/AIoT/src/LiteOS_Lab/iot_link/network/dtls/mbedtls/mbedtls-2.16.2/library\x509_crt.c ****     }
 978:C:/Users/dtjld/workspace/AIoT/src/LiteOS_Lab/iot_link/network/dtls/mbedtls/mbedtls-2.16.2/library\x509_crt.c **** 
 979:C:/Users/dtjld/workspace/AIoT/src/LiteOS_Lab/iot_link/network/dtls/mbedtls/mbedtls-2.16.2/library\x509_crt.c ****     if( len && ( ret = mbedtls_x509_get_name( &p, p + len, &crt->subject ) ) != 0 )
 2650              		.loc 2 979 0
 2651 0298 BB6B     		ldr	r3, [r7, #56]
 2652 029a 002B     		cmp	r3, #0
 2653 029c 1ED0     		beq	.L190
 2654              		.loc 2 979 0 is_stmt 0 discriminator 1
 2655 029e 7A6B     		ldr	r2, [r7, #52]
 2656 02a0 BB6B     		ldr	r3, [r7, #56]
 2657 02a2 D118     		adds	r1, r2, r3
 2658 02a4 FB68     		ldr	r3, [r7, #12]
 2659 02a6 03F16C02 		add	r2, r3, #108
 2660 02aa 07F13403 		add	r3, r7, #52
 2661 02ae 1846     		mov	r0, r3
 2662 02b0 FFF7FEFF 		bl	mbedtls_x509_get_name
 2663 02b4 7864     		str	r0, [r7, #68]
 2664 02b6 7B6C     		ldr	r3, [r7, #68]
 2665 02b8 002B     		cmp	r3, #0
 2666 02ba 0FD0     		beq	.L190
 980:C:/Users/dtjld/workspace/AIoT/src/LiteOS_Lab/iot_link/network/dtls/mbedtls/mbedtls-2.16.2/library\x509_crt.c ****     {
 981:C:/Users/dtjld/workspace/AIoT/src/LiteOS_Lab/iot_link/network/dtls/mbedtls/mbedtls-2.16.2/library\x509_crt.c ****         mbedtls_x509_crt_free( crt );
 2667              		.loc 2 981 0 is_stmt 1
 2668 02bc F868     		ldr	r0, [r7, #12]
 2669 02be FFF7FEFF 		bl	mbedtls_x509_crt_free
 982:C:/Users/dtjld/workspace/AIoT/src/LiteOS_Lab/iot_link/network/dtls/mbedtls/mbedtls-2.16.2/library\x509_crt.c ****         return( ret );
 2670              		.loc 2 982 0
 2671 02c2 7B6C     		ldr	r3, [r7, #68]
 2672 02c4 CAE0     		b	.L203
 2673              	.L205:
 2674 02c6 00BF     		.align	2
 2675              	.L204:
ARM GAS  C:\Users\dtjld\AppData\Local\Temp\ccTXdst3.s 			page 68


 2676 02c8 00D8FFFF 		.word	-10240
 2677 02cc 80DEFFFF 		.word	-8576
 2678 02d0 1ADEFFFF 		.word	-8678
 2679 02d4 80D7FFFF 		.word	-10368
 2680 02d8 80DAFFFF 		.word	-9600
 2681              	.L190:
 983:C:/Users/dtjld/workspace/AIoT/src/LiteOS_Lab/iot_link/network/dtls/mbedtls/mbedtls-2.16.2/library\x509_crt.c ****     }
 984:C:/Users/dtjld/workspace/AIoT/src/LiteOS_Lab/iot_link/network/dtls/mbedtls/mbedtls-2.16.2/library\x509_crt.c **** 
 985:C:/Users/dtjld/workspace/AIoT/src/LiteOS_Lab/iot_link/network/dtls/mbedtls/mbedtls-2.16.2/library\x509_crt.c ****     crt->subject_raw.len = p - crt->subject_raw.p;
 2682              		.loc 2 985 0
 2683 02dc 7B6B     		ldr	r3, [r7, #52]
 2684 02de 1A46     		mov	r2, r3
 2685 02e0 FB68     		ldr	r3, [r7, #12]
 2686 02e2 9B6C     		ldr	r3, [r3, #72]
 2687 02e4 D31A     		subs	r3, r2, r3
 2688 02e6 1A46     		mov	r2, r3
 2689 02e8 FB68     		ldr	r3, [r7, #12]
 2690 02ea 5A64     		str	r2, [r3, #68]
 986:C:/Users/dtjld/workspace/AIoT/src/LiteOS_Lab/iot_link/network/dtls/mbedtls/mbedtls-2.16.2/library\x509_crt.c **** 
 987:C:/Users/dtjld/workspace/AIoT/src/LiteOS_Lab/iot_link/network/dtls/mbedtls/mbedtls-2.16.2/library\x509_crt.c ****     /*
 988:C:/Users/dtjld/workspace/AIoT/src/LiteOS_Lab/iot_link/network/dtls/mbedtls/mbedtls-2.16.2/library\x509_crt.c ****      * SubjectPublicKeyInfo
 989:C:/Users/dtjld/workspace/AIoT/src/LiteOS_Lab/iot_link/network/dtls/mbedtls/mbedtls-2.16.2/library\x509_crt.c ****      */
 990:C:/Users/dtjld/workspace/AIoT/src/LiteOS_Lab/iot_link/network/dtls/mbedtls/mbedtls-2.16.2/library\x509_crt.c ****     if( ( ret = mbedtls_pk_parse_subpubkey( &p, end, &crt->pk ) ) != 0 )
 2691              		.loc 2 990 0
 2692 02ec FB68     		ldr	r3, [r7, #12]
 2693 02ee 03F1BC02 		add	r2, r3, #188
 2694 02f2 07F13403 		add	r3, r7, #52
 2695 02f6 396C     		ldr	r1, [r7, #64]
 2696 02f8 1846     		mov	r0, r3
 2697 02fa FFF7FEFF 		bl	mbedtls_pk_parse_subpubkey
 2698 02fe 7864     		str	r0, [r7, #68]
 2699 0300 7B6C     		ldr	r3, [r7, #68]
 2700 0302 002B     		cmp	r3, #0
 2701 0304 04D0     		beq	.L191
 991:C:/Users/dtjld/workspace/AIoT/src/LiteOS_Lab/iot_link/network/dtls/mbedtls/mbedtls-2.16.2/library\x509_crt.c ****     {
 992:C:/Users/dtjld/workspace/AIoT/src/LiteOS_Lab/iot_link/network/dtls/mbedtls/mbedtls-2.16.2/library\x509_crt.c ****         mbedtls_x509_crt_free( crt );
 2702              		.loc 2 992 0
 2703 0306 F868     		ldr	r0, [r7, #12]
 2704 0308 FFF7FEFF 		bl	mbedtls_x509_crt_free
 993:C:/Users/dtjld/workspace/AIoT/src/LiteOS_Lab/iot_link/network/dtls/mbedtls/mbedtls-2.16.2/library\x509_crt.c ****         return( ret );
 2705              		.loc 2 993 0
 2706 030c 7B6C     		ldr	r3, [r7, #68]
 2707 030e A5E0     		b	.L203
 2708              	.L191:
 994:C:/Users/dtjld/workspace/AIoT/src/LiteOS_Lab/iot_link/network/dtls/mbedtls/mbedtls-2.16.2/library\x509_crt.c ****     }
 995:C:/Users/dtjld/workspace/AIoT/src/LiteOS_Lab/iot_link/network/dtls/mbedtls/mbedtls-2.16.2/library\x509_crt.c **** 
 996:C:/Users/dtjld/workspace/AIoT/src/LiteOS_Lab/iot_link/network/dtls/mbedtls/mbedtls-2.16.2/library\x509_crt.c ****     /*
 997:C:/Users/dtjld/workspace/AIoT/src/LiteOS_Lab/iot_link/network/dtls/mbedtls/mbedtls-2.16.2/library\x509_crt.c ****      *  issuerUniqueID  [1]  IMPLICIT UniqueIdentifier OPTIONAL,
 998:C:/Users/dtjld/workspace/AIoT/src/LiteOS_Lab/iot_link/network/dtls/mbedtls/mbedtls-2.16.2/library\x509_crt.c ****      *                       -- If present, version shall be v2 or v3
 999:C:/Users/dtjld/workspace/AIoT/src/LiteOS_Lab/iot_link/network/dtls/mbedtls/mbedtls-2.16.2/library\x509_crt.c ****      *  subjectUniqueID [2]  IMPLICIT UniqueIdentifier OPTIONAL,
1000:C:/Users/dtjld/workspace/AIoT/src/LiteOS_Lab/iot_link/network/dtls/mbedtls/mbedtls-2.16.2/library\x509_crt.c ****      *                       -- If present, version shall be v2 or v3
1001:C:/Users/dtjld/workspace/AIoT/src/LiteOS_Lab/iot_link/network/dtls/mbedtls/mbedtls-2.16.2/library\x509_crt.c ****      *  extensions      [3]  EXPLICIT Extensions OPTIONAL
1002:C:/Users/dtjld/workspace/AIoT/src/LiteOS_Lab/iot_link/network/dtls/mbedtls/mbedtls-2.16.2/library\x509_crt.c ****      *                       -- If present, version shall be v3
1003:C:/Users/dtjld/workspace/AIoT/src/LiteOS_Lab/iot_link/network/dtls/mbedtls/mbedtls-2.16.2/library\x509_crt.c ****      */
1004:C:/Users/dtjld/workspace/AIoT/src/LiteOS_Lab/iot_link/network/dtls/mbedtls/mbedtls-2.16.2/library\x509_crt.c ****     if( crt->version == 2 || crt->version == 3 )
 2709              		.loc 2 1004 0
 2710 0310 FB68     		ldr	r3, [r7, #12]
ARM GAS  C:\Users\dtjld\AppData\Local\Temp\ccTXdst3.s 			page 69


 2711 0312 9B69     		ldr	r3, [r3, #24]
 2712 0314 022B     		cmp	r3, #2
 2713 0316 03D0     		beq	.L192
 2714              		.loc 2 1004 0 is_stmt 0 discriminator 1
 2715 0318 FB68     		ldr	r3, [r7, #12]
 2716 031a 9B69     		ldr	r3, [r3, #24]
 2717 031c 032B     		cmp	r3, #3
 2718 031e 11D1     		bne	.L193
 2719              	.L192:
1005:C:/Users/dtjld/workspace/AIoT/src/LiteOS_Lab/iot_link/network/dtls/mbedtls/mbedtls-2.16.2/library\x509_crt.c ****     {
1006:C:/Users/dtjld/workspace/AIoT/src/LiteOS_Lab/iot_link/network/dtls/mbedtls/mbedtls-2.16.2/library\x509_crt.c ****         ret = x509_get_uid( &p, end, &crt->issuer_id,  1 );
 2720              		.loc 2 1006 0 is_stmt 1
 2721 0320 FB68     		ldr	r3, [r7, #12]
 2722 0322 03F1C402 		add	r2, r3, #196
 2723 0326 07F13400 		add	r0, r7, #52
 2724 032a 0123     		movs	r3, #1
 2725 032c 396C     		ldr	r1, [r7, #64]
 2726 032e FFF7FEFF 		bl	x509_get_uid
 2727 0332 7864     		str	r0, [r7, #68]
1007:C:/Users/dtjld/workspace/AIoT/src/LiteOS_Lab/iot_link/network/dtls/mbedtls/mbedtls-2.16.2/library\x509_crt.c ****         if( ret != 0 )
 2728              		.loc 2 1007 0
 2729 0334 7B6C     		ldr	r3, [r7, #68]
 2730 0336 002B     		cmp	r3, #0
 2731 0338 04D0     		beq	.L193
1008:C:/Users/dtjld/workspace/AIoT/src/LiteOS_Lab/iot_link/network/dtls/mbedtls/mbedtls-2.16.2/library\x509_crt.c ****         {
1009:C:/Users/dtjld/workspace/AIoT/src/LiteOS_Lab/iot_link/network/dtls/mbedtls/mbedtls-2.16.2/library\x509_crt.c ****             mbedtls_x509_crt_free( crt );
 2732              		.loc 2 1009 0
 2733 033a F868     		ldr	r0, [r7, #12]
 2734 033c FFF7FEFF 		bl	mbedtls_x509_crt_free
1010:C:/Users/dtjld/workspace/AIoT/src/LiteOS_Lab/iot_link/network/dtls/mbedtls/mbedtls-2.16.2/library\x509_crt.c ****             return( ret );
 2735              		.loc 2 1010 0
 2736 0340 7B6C     		ldr	r3, [r7, #68]
 2737 0342 8BE0     		b	.L203
 2738              	.L193:
1011:C:/Users/dtjld/workspace/AIoT/src/LiteOS_Lab/iot_link/network/dtls/mbedtls/mbedtls-2.16.2/library\x509_crt.c ****         }
1012:C:/Users/dtjld/workspace/AIoT/src/LiteOS_Lab/iot_link/network/dtls/mbedtls/mbedtls-2.16.2/library\x509_crt.c ****     }
1013:C:/Users/dtjld/workspace/AIoT/src/LiteOS_Lab/iot_link/network/dtls/mbedtls/mbedtls-2.16.2/library\x509_crt.c **** 
1014:C:/Users/dtjld/workspace/AIoT/src/LiteOS_Lab/iot_link/network/dtls/mbedtls/mbedtls-2.16.2/library\x509_crt.c ****     if( crt->version == 2 || crt->version == 3 )
 2739              		.loc 2 1014 0
 2740 0344 FB68     		ldr	r3, [r7, #12]
 2741 0346 9B69     		ldr	r3, [r3, #24]
 2742 0348 022B     		cmp	r3, #2
 2743 034a 03D0     		beq	.L194
 2744              		.loc 2 1014 0 is_stmt 0 discriminator 1
 2745 034c FB68     		ldr	r3, [r7, #12]
 2746 034e 9B69     		ldr	r3, [r3, #24]
 2747 0350 032B     		cmp	r3, #3
 2748 0352 11D1     		bne	.L195
 2749              	.L194:
1015:C:/Users/dtjld/workspace/AIoT/src/LiteOS_Lab/iot_link/network/dtls/mbedtls/mbedtls-2.16.2/library\x509_crt.c ****     {
1016:C:/Users/dtjld/workspace/AIoT/src/LiteOS_Lab/iot_link/network/dtls/mbedtls/mbedtls-2.16.2/library\x509_crt.c ****         ret = x509_get_uid( &p, end, &crt->subject_id,  2 );
 2750              		.loc 2 1016 0 is_stmt 1
 2751 0354 FB68     		ldr	r3, [r7, #12]
 2752 0356 03F1D002 		add	r2, r3, #208
 2753 035a 07F13400 		add	r0, r7, #52
 2754 035e 0223     		movs	r3, #2
 2755 0360 396C     		ldr	r1, [r7, #64]
ARM GAS  C:\Users\dtjld\AppData\Local\Temp\ccTXdst3.s 			page 70


 2756 0362 FFF7FEFF 		bl	x509_get_uid
 2757 0366 7864     		str	r0, [r7, #68]
1017:C:/Users/dtjld/workspace/AIoT/src/LiteOS_Lab/iot_link/network/dtls/mbedtls/mbedtls-2.16.2/library\x509_crt.c ****         if( ret != 0 )
 2758              		.loc 2 1017 0
 2759 0368 7B6C     		ldr	r3, [r7, #68]
 2760 036a 002B     		cmp	r3, #0
 2761 036c 04D0     		beq	.L195
1018:C:/Users/dtjld/workspace/AIoT/src/LiteOS_Lab/iot_link/network/dtls/mbedtls/mbedtls-2.16.2/library\x509_crt.c ****         {
1019:C:/Users/dtjld/workspace/AIoT/src/LiteOS_Lab/iot_link/network/dtls/mbedtls/mbedtls-2.16.2/library\x509_crt.c ****             mbedtls_x509_crt_free( crt );
 2762              		.loc 2 1019 0
 2763 036e F868     		ldr	r0, [r7, #12]
 2764 0370 FFF7FEFF 		bl	mbedtls_x509_crt_free
1020:C:/Users/dtjld/workspace/AIoT/src/LiteOS_Lab/iot_link/network/dtls/mbedtls/mbedtls-2.16.2/library\x509_crt.c ****             return( ret );
 2765              		.loc 2 1020 0
 2766 0374 7B6C     		ldr	r3, [r7, #68]
 2767 0376 71E0     		b	.L203
 2768              	.L195:
1021:C:/Users/dtjld/workspace/AIoT/src/LiteOS_Lab/iot_link/network/dtls/mbedtls/mbedtls-2.16.2/library\x509_crt.c ****         }
1022:C:/Users/dtjld/workspace/AIoT/src/LiteOS_Lab/iot_link/network/dtls/mbedtls/mbedtls-2.16.2/library\x509_crt.c ****     }
1023:C:/Users/dtjld/workspace/AIoT/src/LiteOS_Lab/iot_link/network/dtls/mbedtls/mbedtls-2.16.2/library\x509_crt.c **** 
1024:C:/Users/dtjld/workspace/AIoT/src/LiteOS_Lab/iot_link/network/dtls/mbedtls/mbedtls-2.16.2/library\x509_crt.c **** #if !defined(MBEDTLS_X509_ALLOW_EXTENSIONS_NON_V3)
1025:C:/Users/dtjld/workspace/AIoT/src/LiteOS_Lab/iot_link/network/dtls/mbedtls/mbedtls-2.16.2/library\x509_crt.c ****     if( crt->version == 3 )
 2769              		.loc 2 1025 0
 2770 0378 FB68     		ldr	r3, [r7, #12]
 2771 037a 9B69     		ldr	r3, [r3, #24]
 2772 037c 032B     		cmp	r3, #3
 2773 037e 0FD1     		bne	.L196
1026:C:/Users/dtjld/workspace/AIoT/src/LiteOS_Lab/iot_link/network/dtls/mbedtls/mbedtls-2.16.2/library\x509_crt.c **** #endif
1027:C:/Users/dtjld/workspace/AIoT/src/LiteOS_Lab/iot_link/network/dtls/mbedtls/mbedtls-2.16.2/library\x509_crt.c ****     {
1028:C:/Users/dtjld/workspace/AIoT/src/LiteOS_Lab/iot_link/network/dtls/mbedtls/mbedtls-2.16.2/library\x509_crt.c ****         ret = x509_get_crt_ext( &p, end, crt );
 2774              		.loc 2 1028 0
 2775 0380 07F13403 		add	r3, r7, #52
 2776 0384 FA68     		ldr	r2, [r7, #12]
 2777 0386 396C     		ldr	r1, [r7, #64]
 2778 0388 1846     		mov	r0, r3
 2779 038a FFF7FEFF 		bl	x509_get_crt_ext
 2780 038e 7864     		str	r0, [r7, #68]
1029:C:/Users/dtjld/workspace/AIoT/src/LiteOS_Lab/iot_link/network/dtls/mbedtls/mbedtls-2.16.2/library\x509_crt.c ****         if( ret != 0 )
 2781              		.loc 2 1029 0
 2782 0390 7B6C     		ldr	r3, [r7, #68]
 2783 0392 002B     		cmp	r3, #0
 2784 0394 04D0     		beq	.L196
1030:C:/Users/dtjld/workspace/AIoT/src/LiteOS_Lab/iot_link/network/dtls/mbedtls/mbedtls-2.16.2/library\x509_crt.c ****         {
1031:C:/Users/dtjld/workspace/AIoT/src/LiteOS_Lab/iot_link/network/dtls/mbedtls/mbedtls-2.16.2/library\x509_crt.c ****             mbedtls_x509_crt_free( crt );
 2785              		.loc 2 1031 0
 2786 0396 F868     		ldr	r0, [r7, #12]
 2787 0398 FFF7FEFF 		bl	mbedtls_x509_crt_free
1032:C:/Users/dtjld/workspace/AIoT/src/LiteOS_Lab/iot_link/network/dtls/mbedtls/mbedtls-2.16.2/library\x509_crt.c ****             return( ret );
 2788              		.loc 2 1032 0
 2789 039c 7B6C     		ldr	r3, [r7, #68]
 2790 039e 5DE0     		b	.L203
 2791              	.L196:
1033:C:/Users/dtjld/workspace/AIoT/src/LiteOS_Lab/iot_link/network/dtls/mbedtls/mbedtls-2.16.2/library\x509_crt.c ****         }
1034:C:/Users/dtjld/workspace/AIoT/src/LiteOS_Lab/iot_link/network/dtls/mbedtls/mbedtls-2.16.2/library\x509_crt.c ****     }
1035:C:/Users/dtjld/workspace/AIoT/src/LiteOS_Lab/iot_link/network/dtls/mbedtls/mbedtls-2.16.2/library\x509_crt.c **** 
1036:C:/Users/dtjld/workspace/AIoT/src/LiteOS_Lab/iot_link/network/dtls/mbedtls/mbedtls-2.16.2/library\x509_crt.c ****     if( p != end )
 2792              		.loc 2 1036 0
ARM GAS  C:\Users\dtjld\AppData\Local\Temp\ccTXdst3.s 			page 71


 2793 03a0 7B6B     		ldr	r3, [r7, #52]
 2794 03a2 3A6C     		ldr	r2, [r7, #64]
 2795 03a4 9A42     		cmp	r2, r3
 2796 03a6 04D0     		beq	.L197
1037:C:/Users/dtjld/workspace/AIoT/src/LiteOS_Lab/iot_link/network/dtls/mbedtls/mbedtls-2.16.2/library\x509_crt.c ****     {
1038:C:/Users/dtjld/workspace/AIoT/src/LiteOS_Lab/iot_link/network/dtls/mbedtls/mbedtls-2.16.2/library\x509_crt.c ****         mbedtls_x509_crt_free( crt );
 2797              		.loc 2 1038 0
 2798 03a8 F868     		ldr	r0, [r7, #12]
 2799 03aa FFF7FEFF 		bl	mbedtls_x509_crt_free
1039:C:/Users/dtjld/workspace/AIoT/src/LiteOS_Lab/iot_link/network/dtls/mbedtls/mbedtls-2.16.2/library\x509_crt.c ****         return( MBEDTLS_ERR_X509_INVALID_FORMAT +
 2800              		.loc 2 1039 0
 2801 03ae 2D4B     		ldr	r3, .L206
 2802 03b0 54E0     		b	.L203
 2803              	.L197:
1040:C:/Users/dtjld/workspace/AIoT/src/LiteOS_Lab/iot_link/network/dtls/mbedtls/mbedtls-2.16.2/library\x509_crt.c ****                 MBEDTLS_ERR_ASN1_LENGTH_MISMATCH );
1041:C:/Users/dtjld/workspace/AIoT/src/LiteOS_Lab/iot_link/network/dtls/mbedtls/mbedtls-2.16.2/library\x509_crt.c ****     }
1042:C:/Users/dtjld/workspace/AIoT/src/LiteOS_Lab/iot_link/network/dtls/mbedtls/mbedtls-2.16.2/library\x509_crt.c **** 
1043:C:/Users/dtjld/workspace/AIoT/src/LiteOS_Lab/iot_link/network/dtls/mbedtls/mbedtls-2.16.2/library\x509_crt.c ****     end = crt_end;
 2804              		.loc 2 1043 0
 2805 03b2 FB6B     		ldr	r3, [r7, #60]
 2806 03b4 3B64     		str	r3, [r7, #64]
1044:C:/Users/dtjld/workspace/AIoT/src/LiteOS_Lab/iot_link/network/dtls/mbedtls/mbedtls-2.16.2/library\x509_crt.c **** 
1045:C:/Users/dtjld/workspace/AIoT/src/LiteOS_Lab/iot_link/network/dtls/mbedtls/mbedtls-2.16.2/library\x509_crt.c ****     /*
1046:C:/Users/dtjld/workspace/AIoT/src/LiteOS_Lab/iot_link/network/dtls/mbedtls/mbedtls-2.16.2/library\x509_crt.c ****      *  }
1047:C:/Users/dtjld/workspace/AIoT/src/LiteOS_Lab/iot_link/network/dtls/mbedtls/mbedtls-2.16.2/library\x509_crt.c ****      *  -- end of TBSCertificate
1048:C:/Users/dtjld/workspace/AIoT/src/LiteOS_Lab/iot_link/network/dtls/mbedtls/mbedtls-2.16.2/library\x509_crt.c ****      *
1049:C:/Users/dtjld/workspace/AIoT/src/LiteOS_Lab/iot_link/network/dtls/mbedtls/mbedtls-2.16.2/library\x509_crt.c ****      *  signatureAlgorithm   AlgorithmIdentifier,
1050:C:/Users/dtjld/workspace/AIoT/src/LiteOS_Lab/iot_link/network/dtls/mbedtls/mbedtls-2.16.2/library\x509_crt.c ****      *  signatureValue       BIT STRING
1051:C:/Users/dtjld/workspace/AIoT/src/LiteOS_Lab/iot_link/network/dtls/mbedtls/mbedtls-2.16.2/library\x509_crt.c ****      */
1052:C:/Users/dtjld/workspace/AIoT/src/LiteOS_Lab/iot_link/network/dtls/mbedtls/mbedtls-2.16.2/library\x509_crt.c ****     if( ( ret = mbedtls_x509_get_alg( &p, end, &sig_oid2, &sig_params2 ) ) != 0 )
 2807              		.loc 2 1052 0
 2808 03b6 07F11C03 		add	r3, r7, #28
 2809 03ba 07F11002 		add	r2, r7, #16
 2810 03be 07F13400 		add	r0, r7, #52
 2811 03c2 396C     		ldr	r1, [r7, #64]
 2812 03c4 FFF7FEFF 		bl	mbedtls_x509_get_alg
 2813 03c8 7864     		str	r0, [r7, #68]
 2814 03ca 7B6C     		ldr	r3, [r7, #68]
 2815 03cc 002B     		cmp	r3, #0
 2816 03ce 04D0     		beq	.L198
1053:C:/Users/dtjld/workspace/AIoT/src/LiteOS_Lab/iot_link/network/dtls/mbedtls/mbedtls-2.16.2/library\x509_crt.c ****     {
1054:C:/Users/dtjld/workspace/AIoT/src/LiteOS_Lab/iot_link/network/dtls/mbedtls/mbedtls-2.16.2/library\x509_crt.c ****         mbedtls_x509_crt_free( crt );
 2817              		.loc 2 1054 0
 2818 03d0 F868     		ldr	r0, [r7, #12]
 2819 03d2 FFF7FEFF 		bl	mbedtls_x509_crt_free
1055:C:/Users/dtjld/workspace/AIoT/src/LiteOS_Lab/iot_link/network/dtls/mbedtls/mbedtls-2.16.2/library\x509_crt.c ****         return( ret );
 2820              		.loc 2 1055 0
 2821 03d6 7B6C     		ldr	r3, [r7, #68]
 2822 03d8 40E0     		b	.L203
 2823              	.L198:
1056:C:/Users/dtjld/workspace/AIoT/src/LiteOS_Lab/iot_link/network/dtls/mbedtls/mbedtls-2.16.2/library\x509_crt.c ****     }
1057:C:/Users/dtjld/workspace/AIoT/src/LiteOS_Lab/iot_link/network/dtls/mbedtls/mbedtls-2.16.2/library\x509_crt.c **** 
1058:C:/Users/dtjld/workspace/AIoT/src/LiteOS_Lab/iot_link/network/dtls/mbedtls/mbedtls-2.16.2/library\x509_crt.c ****     if( crt->sig_oid.len != sig_oid2.len ||
 2824              		.loc 2 1058 0
 2825 03da FB68     		ldr	r3, [r7, #12]
 2826 03dc DA6A     		ldr	r2, [r3, #44]
 2827 03de 7B69     		ldr	r3, [r7, #20]
ARM GAS  C:\Users\dtjld\AppData\Local\Temp\ccTXdst3.s 			page 72


 2828 03e0 9A42     		cmp	r2, r3
 2829 03e2 1AD1     		bne	.L199
1059:C:/Users/dtjld/workspace/AIoT/src/LiteOS_Lab/iot_link/network/dtls/mbedtls/mbedtls-2.16.2/library\x509_crt.c ****         memcmp( crt->sig_oid.p, sig_oid2.p, crt->sig_oid.len ) != 0 ||
 2830              		.loc 2 1059 0 discriminator 1
 2831 03e4 FB68     		ldr	r3, [r7, #12]
 2832 03e6 186B     		ldr	r0, [r3, #48]
 2833 03e8 B969     		ldr	r1, [r7, #24]
 2834 03ea FB68     		ldr	r3, [r7, #12]
 2835 03ec DB6A     		ldr	r3, [r3, #44]
 2836 03ee 1A46     		mov	r2, r3
 2837 03f0 FFF7FEFF 		bl	memcmp
 2838 03f4 0346     		mov	r3, r0
1058:C:/Users/dtjld/workspace/AIoT/src/LiteOS_Lab/iot_link/network/dtls/mbedtls/mbedtls-2.16.2/library\x509_crt.c ****         memcmp( crt->sig_oid.p, sig_oid2.p, crt->sig_oid.len ) != 0 ||
 2839              		.loc 2 1058 0 discriminator 1
 2840 03f6 002B     		cmp	r3, #0
 2841 03f8 0FD1     		bne	.L199
1060:C:/Users/dtjld/workspace/AIoT/src/LiteOS_Lab/iot_link/network/dtls/mbedtls/mbedtls-2.16.2/library\x509_crt.c ****         sig_params1.len != sig_params2.len ||
 2842              		.loc 2 1060 0
 2843 03fa FA6A     		ldr	r2, [r7, #44]
 2844 03fc 3B6A     		ldr	r3, [r7, #32]
1059:C:/Users/dtjld/workspace/AIoT/src/LiteOS_Lab/iot_link/network/dtls/mbedtls/mbedtls-2.16.2/library\x509_crt.c ****         memcmp( crt->sig_oid.p, sig_oid2.p, crt->sig_oid.len ) != 0 ||
 2845              		.loc 2 1059 0
 2846 03fe 9A42     		cmp	r2, r3
 2847 0400 0BD1     		bne	.L199
1061:C:/Users/dtjld/workspace/AIoT/src/LiteOS_Lab/iot_link/network/dtls/mbedtls/mbedtls-2.16.2/library\x509_crt.c ****         ( sig_params1.len != 0 &&
 2848              		.loc 2 1061 0
 2849 0402 FB6A     		ldr	r3, [r7, #44]
1060:C:/Users/dtjld/workspace/AIoT/src/LiteOS_Lab/iot_link/network/dtls/mbedtls/mbedtls-2.16.2/library\x509_crt.c ****         sig_params1.len != sig_params2.len ||
 2850              		.loc 2 1060 0
 2851 0404 002B     		cmp	r3, #0
 2852 0406 0DD0     		beq	.L200
1062:C:/Users/dtjld/workspace/AIoT/src/LiteOS_Lab/iot_link/network/dtls/mbedtls/mbedtls-2.16.2/library\x509_crt.c ****           memcmp( sig_params1.p, sig_params2.p, sig_params1.len ) != 0 ) )
 2853              		.loc 2 1062 0
 2854 0408 3B6B     		ldr	r3, [r7, #48]
 2855 040a 796A     		ldr	r1, [r7, #36]
 2856 040c FA6A     		ldr	r2, [r7, #44]
 2857 040e 1846     		mov	r0, r3
 2858 0410 FFF7FEFF 		bl	memcmp
 2859 0414 0346     		mov	r3, r0
1061:C:/Users/dtjld/workspace/AIoT/src/LiteOS_Lab/iot_link/network/dtls/mbedtls/mbedtls-2.16.2/library\x509_crt.c ****         ( sig_params1.len != 0 &&
 2860              		.loc 2 1061 0
 2861 0416 002B     		cmp	r3, #0
 2862 0418 04D0     		beq	.L200
 2863              	.L199:
1063:C:/Users/dtjld/workspace/AIoT/src/LiteOS_Lab/iot_link/network/dtls/mbedtls/mbedtls-2.16.2/library\x509_crt.c ****     {
1064:C:/Users/dtjld/workspace/AIoT/src/LiteOS_Lab/iot_link/network/dtls/mbedtls/mbedtls-2.16.2/library\x509_crt.c ****         mbedtls_x509_crt_free( crt );
 2864              		.loc 2 1064 0
 2865 041a F868     		ldr	r0, [r7, #12]
 2866 041c FFF7FEFF 		bl	mbedtls_x509_crt_free
1065:C:/Users/dtjld/workspace/AIoT/src/LiteOS_Lab/iot_link/network/dtls/mbedtls/mbedtls-2.16.2/library\x509_crt.c ****         return( MBEDTLS_ERR_X509_SIG_MISMATCH );
 2867              		.loc 2 1065 0
 2868 0420 114B     		ldr	r3, .L206+4
 2869 0422 1BE0     		b	.L203
 2870              	.L200:
1066:C:/Users/dtjld/workspace/AIoT/src/LiteOS_Lab/iot_link/network/dtls/mbedtls/mbedtls-2.16.2/library\x509_crt.c ****     }
1067:C:/Users/dtjld/workspace/AIoT/src/LiteOS_Lab/iot_link/network/dtls/mbedtls/mbedtls-2.16.2/library\x509_crt.c **** 
1068:C:/Users/dtjld/workspace/AIoT/src/LiteOS_Lab/iot_link/network/dtls/mbedtls/mbedtls-2.16.2/library\x509_crt.c ****     if( ( ret = mbedtls_x509_get_sig( &p, end, &crt->sig ) ) != 0 )
ARM GAS  C:\Users\dtjld\AppData\Local\Temp\ccTXdst3.s 			page 73


 2871              		.loc 2 1068 0
 2872 0424 FB68     		ldr	r3, [r7, #12]
 2873 0426 03F58E72 		add	r2, r3, #284
 2874 042a 07F13403 		add	r3, r7, #52
 2875 042e 396C     		ldr	r1, [r7, #64]
 2876 0430 1846     		mov	r0, r3
 2877 0432 FFF7FEFF 		bl	mbedtls_x509_get_sig
 2878 0436 7864     		str	r0, [r7, #68]
 2879 0438 7B6C     		ldr	r3, [r7, #68]
 2880 043a 002B     		cmp	r3, #0
 2881 043c 04D0     		beq	.L201
1069:C:/Users/dtjld/workspace/AIoT/src/LiteOS_Lab/iot_link/network/dtls/mbedtls/mbedtls-2.16.2/library\x509_crt.c ****     {
1070:C:/Users/dtjld/workspace/AIoT/src/LiteOS_Lab/iot_link/network/dtls/mbedtls/mbedtls-2.16.2/library\x509_crt.c ****         mbedtls_x509_crt_free( crt );
 2882              		.loc 2 1070 0
 2883 043e F868     		ldr	r0, [r7, #12]
 2884 0440 FFF7FEFF 		bl	mbedtls_x509_crt_free
1071:C:/Users/dtjld/workspace/AIoT/src/LiteOS_Lab/iot_link/network/dtls/mbedtls/mbedtls-2.16.2/library\x509_crt.c ****         return( ret );
 2885              		.loc 2 1071 0
 2886 0444 7B6C     		ldr	r3, [r7, #68]
 2887 0446 09E0     		b	.L203
 2888              	.L201:
1072:C:/Users/dtjld/workspace/AIoT/src/LiteOS_Lab/iot_link/network/dtls/mbedtls/mbedtls-2.16.2/library\x509_crt.c ****     }
1073:C:/Users/dtjld/workspace/AIoT/src/LiteOS_Lab/iot_link/network/dtls/mbedtls/mbedtls-2.16.2/library\x509_crt.c **** 
1074:C:/Users/dtjld/workspace/AIoT/src/LiteOS_Lab/iot_link/network/dtls/mbedtls/mbedtls-2.16.2/library\x509_crt.c ****     if( p != end )
 2889              		.loc 2 1074 0
 2890 0448 7B6B     		ldr	r3, [r7, #52]
 2891 044a 3A6C     		ldr	r2, [r7, #64]
 2892 044c 9A42     		cmp	r2, r3
 2893 044e 04D0     		beq	.L202
1075:C:/Users/dtjld/workspace/AIoT/src/LiteOS_Lab/iot_link/network/dtls/mbedtls/mbedtls-2.16.2/library\x509_crt.c ****     {
1076:C:/Users/dtjld/workspace/AIoT/src/LiteOS_Lab/iot_link/network/dtls/mbedtls/mbedtls-2.16.2/library\x509_crt.c ****         mbedtls_x509_crt_free( crt );
 2894              		.loc 2 1076 0
 2895 0450 F868     		ldr	r0, [r7, #12]
 2896 0452 FFF7FEFF 		bl	mbedtls_x509_crt_free
1077:C:/Users/dtjld/workspace/AIoT/src/LiteOS_Lab/iot_link/network/dtls/mbedtls/mbedtls-2.16.2/library\x509_crt.c ****         return( MBEDTLS_ERR_X509_INVALID_FORMAT +
 2897              		.loc 2 1077 0
 2898 0456 034B     		ldr	r3, .L206
 2899 0458 00E0     		b	.L203
 2900              	.L202:
1078:C:/Users/dtjld/workspace/AIoT/src/LiteOS_Lab/iot_link/network/dtls/mbedtls/mbedtls-2.16.2/library\x509_crt.c ****                 MBEDTLS_ERR_ASN1_LENGTH_MISMATCH );
1079:C:/Users/dtjld/workspace/AIoT/src/LiteOS_Lab/iot_link/network/dtls/mbedtls/mbedtls-2.16.2/library\x509_crt.c ****     }
1080:C:/Users/dtjld/workspace/AIoT/src/LiteOS_Lab/iot_link/network/dtls/mbedtls/mbedtls-2.16.2/library\x509_crt.c **** 
1081:C:/Users/dtjld/workspace/AIoT/src/LiteOS_Lab/iot_link/network/dtls/mbedtls/mbedtls-2.16.2/library\x509_crt.c ****     return( 0 );
 2901              		.loc 2 1081 0
 2902 045a 0023     		movs	r3, #0
 2903              	.L203:
1082:C:/Users/dtjld/workspace/AIoT/src/LiteOS_Lab/iot_link/network/dtls/mbedtls/mbedtls-2.16.2/library\x509_crt.c **** }
 2904              		.loc 2 1082 0 discriminator 1
 2905 045c 1846     		mov	r0, r3
 2906 045e 4C37     		adds	r7, r7, #76
 2907              	.LCFI98:
 2908              		.cfi_def_cfa_offset 12
 2909 0460 BD46     		mov	sp, r7
 2910              	.LCFI99:
 2911              		.cfi_def_cfa_register 13
 2912              		@ sp needed
 2913 0462 90BD     		pop	{r4, r7, pc}
ARM GAS  C:\Users\dtjld\AppData\Local\Temp\ccTXdst3.s 			page 74


 2914              	.L207:
 2915              		.align	2
 2916              	.L206:
 2917 0464 1ADEFFFF 		.word	-8678
 2918 0468 80D9FFFF 		.word	-9856
 2919              		.cfi_endproc
 2920              	.LFE30:
 2922              		.section	.text.mbedtls_x509_crt_parse_der,"ax",%progbits
 2923              		.align	1
 2924              		.global	mbedtls_x509_crt_parse_der
 2925              		.syntax unified
 2926              		.thumb
 2927              		.thumb_func
 2928              		.fpu fpv4-sp-d16
 2930              	mbedtls_x509_crt_parse_der:
 2931              	.LFB31:
1083:C:/Users/dtjld/workspace/AIoT/src/LiteOS_Lab/iot_link/network/dtls/mbedtls/mbedtls-2.16.2/library\x509_crt.c **** 
1084:C:/Users/dtjld/workspace/AIoT/src/LiteOS_Lab/iot_link/network/dtls/mbedtls/mbedtls-2.16.2/library\x509_crt.c **** /*
1085:C:/Users/dtjld/workspace/AIoT/src/LiteOS_Lab/iot_link/network/dtls/mbedtls/mbedtls-2.16.2/library\x509_crt.c ****  * Parse one X.509 certificate in DER format from a buffer and add them to a
1086:C:/Users/dtjld/workspace/AIoT/src/LiteOS_Lab/iot_link/network/dtls/mbedtls/mbedtls-2.16.2/library\x509_crt.c ****  * chained list
1087:C:/Users/dtjld/workspace/AIoT/src/LiteOS_Lab/iot_link/network/dtls/mbedtls/mbedtls-2.16.2/library\x509_crt.c ****  */
1088:C:/Users/dtjld/workspace/AIoT/src/LiteOS_Lab/iot_link/network/dtls/mbedtls/mbedtls-2.16.2/library\x509_crt.c **** int mbedtls_x509_crt_parse_der( mbedtls_x509_crt *chain, const unsigned char *buf,
1089:C:/Users/dtjld/workspace/AIoT/src/LiteOS_Lab/iot_link/network/dtls/mbedtls/mbedtls-2.16.2/library\x509_crt.c ****                         size_t buflen )
1090:C:/Users/dtjld/workspace/AIoT/src/LiteOS_Lab/iot_link/network/dtls/mbedtls/mbedtls-2.16.2/library\x509_crt.c **** {
 2932              		.loc 2 1090 0
 2933              		.cfi_startproc
 2934              		@ args = 0, pretend = 0, frame = 32
 2935              		@ frame_needed = 1, uses_anonymous_args = 0
 2936 0000 80B5     		push	{r7, lr}
 2937              	.LCFI100:
 2938              		.cfi_def_cfa_offset 8
 2939              		.cfi_offset 7, -8
 2940              		.cfi_offset 14, -4
 2941 0002 88B0     		sub	sp, sp, #32
 2942              	.LCFI101:
 2943              		.cfi_def_cfa_offset 40
 2944 0004 00AF     		add	r7, sp, #0
 2945              	.LCFI102:
 2946              		.cfi_def_cfa_register 7
 2947 0006 F860     		str	r0, [r7, #12]
 2948 0008 B960     		str	r1, [r7, #8]
 2949 000a 7A60     		str	r2, [r7, #4]
1091:C:/Users/dtjld/workspace/AIoT/src/LiteOS_Lab/iot_link/network/dtls/mbedtls/mbedtls-2.16.2/library\x509_crt.c ****     int ret;
1092:C:/Users/dtjld/workspace/AIoT/src/LiteOS_Lab/iot_link/network/dtls/mbedtls/mbedtls-2.16.2/library\x509_crt.c ****     mbedtls_x509_crt *crt = chain, *prev = NULL;
 2950              		.loc 2 1092 0
 2951 000c FB68     		ldr	r3, [r7, #12]
 2952 000e FB61     		str	r3, [r7, #28]
 2953 0010 0023     		movs	r3, #0
 2954 0012 BB61     		str	r3, [r7, #24]
1093:C:/Users/dtjld/workspace/AIoT/src/LiteOS_Lab/iot_link/network/dtls/mbedtls/mbedtls-2.16.2/library\x509_crt.c **** 
1094:C:/Users/dtjld/workspace/AIoT/src/LiteOS_Lab/iot_link/network/dtls/mbedtls/mbedtls-2.16.2/library\x509_crt.c ****     /*
1095:C:/Users/dtjld/workspace/AIoT/src/LiteOS_Lab/iot_link/network/dtls/mbedtls/mbedtls-2.16.2/library\x509_crt.c ****      * Check for valid input
1096:C:/Users/dtjld/workspace/AIoT/src/LiteOS_Lab/iot_link/network/dtls/mbedtls/mbedtls-2.16.2/library\x509_crt.c ****      */
1097:C:/Users/dtjld/workspace/AIoT/src/LiteOS_Lab/iot_link/network/dtls/mbedtls/mbedtls-2.16.2/library\x509_crt.c ****     if( crt == NULL || buf == NULL )
 2955              		.loc 2 1097 0
 2956 0014 FB69     		ldr	r3, [r7, #28]
 2957 0016 002B     		cmp	r3, #0
ARM GAS  C:\Users\dtjld\AppData\Local\Temp\ccTXdst3.s 			page 75


 2958 0018 02D0     		beq	.L209
 2959              		.loc 2 1097 0 is_stmt 0 discriminator 1
 2960 001a BB68     		ldr	r3, [r7, #8]
 2961 001c 002B     		cmp	r3, #0
 2962 001e 07D1     		bne	.L212
 2963              	.L209:
1098:C:/Users/dtjld/workspace/AIoT/src/LiteOS_Lab/iot_link/network/dtls/mbedtls/mbedtls-2.16.2/library\x509_crt.c ****         return( MBEDTLS_ERR_X509_BAD_INPUT_DATA );
 2964              		.loc 2 1098 0 is_stmt 1
 2965 0020 294B     		ldr	r3, .L220
 2966 0022 4DE0     		b	.L211
 2967              	.L214:
1099:C:/Users/dtjld/workspace/AIoT/src/LiteOS_Lab/iot_link/network/dtls/mbedtls/mbedtls-2.16.2/library\x509_crt.c **** 
1100:C:/Users/dtjld/workspace/AIoT/src/LiteOS_Lab/iot_link/network/dtls/mbedtls/mbedtls-2.16.2/library\x509_crt.c ****     while( crt->version != 0 && crt->next != NULL )
1101:C:/Users/dtjld/workspace/AIoT/src/LiteOS_Lab/iot_link/network/dtls/mbedtls/mbedtls-2.16.2/library\x509_crt.c ****     {
1102:C:/Users/dtjld/workspace/AIoT/src/LiteOS_Lab/iot_link/network/dtls/mbedtls/mbedtls-2.16.2/library\x509_crt.c ****         prev = crt;
 2968              		.loc 2 1102 0
 2969 0024 FB69     		ldr	r3, [r7, #28]
 2970 0026 BB61     		str	r3, [r7, #24]
1103:C:/Users/dtjld/workspace/AIoT/src/LiteOS_Lab/iot_link/network/dtls/mbedtls/mbedtls-2.16.2/library\x509_crt.c ****         crt = crt->next;
 2971              		.loc 2 1103 0
 2972 0028 FB69     		ldr	r3, [r7, #28]
 2973 002a D3F83031 		ldr	r3, [r3, #304]
 2974 002e FB61     		str	r3, [r7, #28]
 2975              	.L212:
1100:C:/Users/dtjld/workspace/AIoT/src/LiteOS_Lab/iot_link/network/dtls/mbedtls/mbedtls-2.16.2/library\x509_crt.c ****     {
 2976              		.loc 2 1100 0
 2977 0030 FB69     		ldr	r3, [r7, #28]
 2978 0032 9B69     		ldr	r3, [r3, #24]
 2979 0034 002B     		cmp	r3, #0
 2980 0036 04D0     		beq	.L213
1100:C:/Users/dtjld/workspace/AIoT/src/LiteOS_Lab/iot_link/network/dtls/mbedtls/mbedtls-2.16.2/library\x509_crt.c ****     {
 2981              		.loc 2 1100 0 is_stmt 0 discriminator 1
 2982 0038 FB69     		ldr	r3, [r7, #28]
 2983 003a D3F83031 		ldr	r3, [r3, #304]
 2984 003e 002B     		cmp	r3, #0
 2985 0040 F0D1     		bne	.L214
 2986              	.L213:
1104:C:/Users/dtjld/workspace/AIoT/src/LiteOS_Lab/iot_link/network/dtls/mbedtls/mbedtls-2.16.2/library\x509_crt.c ****     }
1105:C:/Users/dtjld/workspace/AIoT/src/LiteOS_Lab/iot_link/network/dtls/mbedtls/mbedtls-2.16.2/library\x509_crt.c **** 
1106:C:/Users/dtjld/workspace/AIoT/src/LiteOS_Lab/iot_link/network/dtls/mbedtls/mbedtls-2.16.2/library\x509_crt.c ****     /*
1107:C:/Users/dtjld/workspace/AIoT/src/LiteOS_Lab/iot_link/network/dtls/mbedtls/mbedtls-2.16.2/library\x509_crt.c ****      * Add new certificate on the end of the chain if needed.
1108:C:/Users/dtjld/workspace/AIoT/src/LiteOS_Lab/iot_link/network/dtls/mbedtls/mbedtls-2.16.2/library\x509_crt.c ****      */
1109:C:/Users/dtjld/workspace/AIoT/src/LiteOS_Lab/iot_link/network/dtls/mbedtls/mbedtls-2.16.2/library\x509_crt.c ****     if( crt->version != 0 && crt->next == NULL )
 2987              		.loc 2 1109 0 is_stmt 1
 2988 0042 FB69     		ldr	r3, [r7, #28]
 2989 0044 9B69     		ldr	r3, [r3, #24]
 2990 0046 002B     		cmp	r3, #0
 2991 0048 20D0     		beq	.L215
 2992              		.loc 2 1109 0 is_stmt 0 discriminator 1
 2993 004a FB69     		ldr	r3, [r7, #28]
 2994 004c D3F83031 		ldr	r3, [r3, #304]
 2995 0050 002B     		cmp	r3, #0
 2996 0052 1BD1     		bne	.L215
1110:C:/Users/dtjld/workspace/AIoT/src/LiteOS_Lab/iot_link/network/dtls/mbedtls/mbedtls-2.16.2/library\x509_crt.c ****     {
1111:C:/Users/dtjld/workspace/AIoT/src/LiteOS_Lab/iot_link/network/dtls/mbedtls/mbedtls-2.16.2/library\x509_crt.c ****         crt->next = mbedtls_calloc( 1, sizeof( mbedtls_x509_crt ) );
 2997              		.loc 2 1111 0 is_stmt 1
 2998 0054 4FF49A71 		mov	r1, #308
ARM GAS  C:\Users\dtjld\AppData\Local\Temp\ccTXdst3.s 			page 76


 2999 0058 0120     		movs	r0, #1
 3000 005a FFF7FEFF 		bl	mbedtls_calloc
 3001 005e 0246     		mov	r2, r0
 3002 0060 FB69     		ldr	r3, [r7, #28]
 3003 0062 C3F83021 		str	r2, [r3, #304]
1112:C:/Users/dtjld/workspace/AIoT/src/LiteOS_Lab/iot_link/network/dtls/mbedtls/mbedtls-2.16.2/library\x509_crt.c **** 
1113:C:/Users/dtjld/workspace/AIoT/src/LiteOS_Lab/iot_link/network/dtls/mbedtls/mbedtls-2.16.2/library\x509_crt.c ****         if( crt->next == NULL )
 3004              		.loc 2 1113 0
 3005 0066 FB69     		ldr	r3, [r7, #28]
 3006 0068 D3F83031 		ldr	r3, [r3, #304]
 3007 006c 002B     		cmp	r3, #0
 3008 006e 01D1     		bne	.L216
1114:C:/Users/dtjld/workspace/AIoT/src/LiteOS_Lab/iot_link/network/dtls/mbedtls/mbedtls-2.16.2/library\x509_crt.c ****             return( MBEDTLS_ERR_X509_ALLOC_FAILED );
 3009              		.loc 2 1114 0
 3010 0070 164B     		ldr	r3, .L220+4
 3011 0072 25E0     		b	.L211
 3012              	.L216:
1115:C:/Users/dtjld/workspace/AIoT/src/LiteOS_Lab/iot_link/network/dtls/mbedtls/mbedtls-2.16.2/library\x509_crt.c **** 
1116:C:/Users/dtjld/workspace/AIoT/src/LiteOS_Lab/iot_link/network/dtls/mbedtls/mbedtls-2.16.2/library\x509_crt.c ****         prev = crt;
 3013              		.loc 2 1116 0
 3014 0074 FB69     		ldr	r3, [r7, #28]
 3015 0076 BB61     		str	r3, [r7, #24]
1117:C:/Users/dtjld/workspace/AIoT/src/LiteOS_Lab/iot_link/network/dtls/mbedtls/mbedtls-2.16.2/library\x509_crt.c ****         mbedtls_x509_crt_init( crt->next );
 3016              		.loc 2 1117 0
 3017 0078 FB69     		ldr	r3, [r7, #28]
 3018 007a D3F83031 		ldr	r3, [r3, #304]
 3019 007e 1846     		mov	r0, r3
 3020 0080 FFF7FEFF 		bl	mbedtls_x509_crt_init
1118:C:/Users/dtjld/workspace/AIoT/src/LiteOS_Lab/iot_link/network/dtls/mbedtls/mbedtls-2.16.2/library\x509_crt.c ****         crt = crt->next;
 3021              		.loc 2 1118 0
 3022 0084 FB69     		ldr	r3, [r7, #28]
 3023 0086 D3F83031 		ldr	r3, [r3, #304]
 3024 008a FB61     		str	r3, [r7, #28]
 3025              	.L215:
1119:C:/Users/dtjld/workspace/AIoT/src/LiteOS_Lab/iot_link/network/dtls/mbedtls/mbedtls-2.16.2/library\x509_crt.c ****     }
1120:C:/Users/dtjld/workspace/AIoT/src/LiteOS_Lab/iot_link/network/dtls/mbedtls/mbedtls-2.16.2/library\x509_crt.c **** 
1121:C:/Users/dtjld/workspace/AIoT/src/LiteOS_Lab/iot_link/network/dtls/mbedtls/mbedtls-2.16.2/library\x509_crt.c ****     if( ( ret = x509_crt_parse_der_core( crt, buf, buflen ) ) != 0 )
 3026              		.loc 2 1121 0
 3027 008c 7A68     		ldr	r2, [r7, #4]
 3028 008e B968     		ldr	r1, [r7, #8]
 3029 0090 F869     		ldr	r0, [r7, #28]
 3030 0092 FFF7FEFF 		bl	x509_crt_parse_der_core
 3031 0096 7861     		str	r0, [r7, #20]
 3032 0098 7B69     		ldr	r3, [r7, #20]
 3033 009a 002B     		cmp	r3, #0
 3034 009c 0FD0     		beq	.L217
1122:C:/Users/dtjld/workspace/AIoT/src/LiteOS_Lab/iot_link/network/dtls/mbedtls/mbedtls-2.16.2/library\x509_crt.c ****     {
1123:C:/Users/dtjld/workspace/AIoT/src/LiteOS_Lab/iot_link/network/dtls/mbedtls/mbedtls-2.16.2/library\x509_crt.c ****         if( prev )
 3035              		.loc 2 1123 0
 3036 009e BB69     		ldr	r3, [r7, #24]
 3037 00a0 002B     		cmp	r3, #0
 3038 00a2 03D0     		beq	.L218
1124:C:/Users/dtjld/workspace/AIoT/src/LiteOS_Lab/iot_link/network/dtls/mbedtls/mbedtls-2.16.2/library\x509_crt.c ****             prev->next = NULL;
 3039              		.loc 2 1124 0
 3040 00a4 BB69     		ldr	r3, [r7, #24]
 3041 00a6 0022     		movs	r2, #0
 3042 00a8 C3F83021 		str	r2, [r3, #304]
ARM GAS  C:\Users\dtjld\AppData\Local\Temp\ccTXdst3.s 			page 77


 3043              	.L218:
1125:C:/Users/dtjld/workspace/AIoT/src/LiteOS_Lab/iot_link/network/dtls/mbedtls/mbedtls-2.16.2/library\x509_crt.c **** 
1126:C:/Users/dtjld/workspace/AIoT/src/LiteOS_Lab/iot_link/network/dtls/mbedtls/mbedtls-2.16.2/library\x509_crt.c ****         if( crt != chain )
 3044              		.loc 2 1126 0
 3045 00ac FA69     		ldr	r2, [r7, #28]
 3046 00ae FB68     		ldr	r3, [r7, #12]
 3047 00b0 9A42     		cmp	r2, r3
 3048 00b2 02D0     		beq	.L219
1127:C:/Users/dtjld/workspace/AIoT/src/LiteOS_Lab/iot_link/network/dtls/mbedtls/mbedtls-2.16.2/library\x509_crt.c ****             mbedtls_free( crt );
 3049              		.loc 2 1127 0
 3050 00b4 F869     		ldr	r0, [r7, #28]
 3051 00b6 FFF7FEFF 		bl	mbedtls_free
 3052              	.L219:
1128:C:/Users/dtjld/workspace/AIoT/src/LiteOS_Lab/iot_link/network/dtls/mbedtls/mbedtls-2.16.2/library\x509_crt.c **** 
1129:C:/Users/dtjld/workspace/AIoT/src/LiteOS_Lab/iot_link/network/dtls/mbedtls/mbedtls-2.16.2/library\x509_crt.c ****         return( ret );
 3053              		.loc 2 1129 0
 3054 00ba 7B69     		ldr	r3, [r7, #20]
 3055 00bc 00E0     		b	.L211
 3056              	.L217:
1130:C:/Users/dtjld/workspace/AIoT/src/LiteOS_Lab/iot_link/network/dtls/mbedtls/mbedtls-2.16.2/library\x509_crt.c ****     }
1131:C:/Users/dtjld/workspace/AIoT/src/LiteOS_Lab/iot_link/network/dtls/mbedtls/mbedtls-2.16.2/library\x509_crt.c **** 
1132:C:/Users/dtjld/workspace/AIoT/src/LiteOS_Lab/iot_link/network/dtls/mbedtls/mbedtls-2.16.2/library\x509_crt.c ****     return( 0 );
 3057              		.loc 2 1132 0
 3058 00be 0023     		movs	r3, #0
 3059              	.L211:
1133:C:/Users/dtjld/workspace/AIoT/src/LiteOS_Lab/iot_link/network/dtls/mbedtls/mbedtls-2.16.2/library\x509_crt.c **** }
 3060              		.loc 2 1133 0
 3061 00c0 1846     		mov	r0, r3
 3062 00c2 2037     		adds	r7, r7, #32
 3063              	.LCFI103:
 3064              		.cfi_def_cfa_offset 8
 3065 00c4 BD46     		mov	sp, r7
 3066              	.LCFI104:
 3067              		.cfi_def_cfa_register 13
 3068              		@ sp needed
 3069 00c6 80BD     		pop	{r7, pc}
 3070              	.L221:
 3071              		.align	2
 3072              	.L220:
 3073 00c8 00D8FFFF 		.word	-10240
 3074 00cc 80D7FFFF 		.word	-10368
 3075              		.cfi_endproc
 3076              	.LFE31:
 3078              		.section	.rodata
 3079              		.align	2
 3080              	.LC0:
 3081 0000 2D2D2D2D 		.ascii	"-----BEGIN CERTIFICATE-----\000"
 3081      2D424547 
 3081      494E2043 
 3081      45525449 
 3081      46494341 
 3082              		.align	2
 3083              	.LC1:
 3084 001c 2D2D2D2D 		.ascii	"-----END CERTIFICATE-----\000"
 3084      2D454E44 
 3084      20434552 
 3084      54494649 
ARM GAS  C:\Users\dtjld\AppData\Local\Temp\ccTXdst3.s 			page 78


 3084      43415445 
 3085              		.section	.text.mbedtls_x509_crt_parse,"ax",%progbits
 3086              		.align	1
 3087              		.global	mbedtls_x509_crt_parse
 3088              		.syntax unified
 3089              		.thumb
 3090              		.thumb_func
 3091              		.fpu fpv4-sp-d16
 3093              	mbedtls_x509_crt_parse:
 3094              	.LFB32:
1134:C:/Users/dtjld/workspace/AIoT/src/LiteOS_Lab/iot_link/network/dtls/mbedtls/mbedtls-2.16.2/library\x509_crt.c **** 
1135:C:/Users/dtjld/workspace/AIoT/src/LiteOS_Lab/iot_link/network/dtls/mbedtls/mbedtls-2.16.2/library\x509_crt.c **** /*
1136:C:/Users/dtjld/workspace/AIoT/src/LiteOS_Lab/iot_link/network/dtls/mbedtls/mbedtls-2.16.2/library\x509_crt.c ****  * Parse one or more PEM certificates from a buffer and add them to the chained
1137:C:/Users/dtjld/workspace/AIoT/src/LiteOS_Lab/iot_link/network/dtls/mbedtls/mbedtls-2.16.2/library\x509_crt.c ****  * list
1138:C:/Users/dtjld/workspace/AIoT/src/LiteOS_Lab/iot_link/network/dtls/mbedtls/mbedtls-2.16.2/library\x509_crt.c ****  */
1139:C:/Users/dtjld/workspace/AIoT/src/LiteOS_Lab/iot_link/network/dtls/mbedtls/mbedtls-2.16.2/library\x509_crt.c **** int mbedtls_x509_crt_parse( mbedtls_x509_crt *chain, const unsigned char *buf, size_t buflen )
1140:C:/Users/dtjld/workspace/AIoT/src/LiteOS_Lab/iot_link/network/dtls/mbedtls/mbedtls-2.16.2/library\x509_crt.c **** {
 3095              		.loc 2 1140 0
 3096              		.cfi_startproc
 3097              		@ args = 0, pretend = 0, frame = 56
 3098              		@ frame_needed = 1, uses_anonymous_args = 0
 3099 0000 80B5     		push	{r7, lr}
 3100              	.LCFI105:
 3101              		.cfi_def_cfa_offset 8
 3102              		.cfi_offset 7, -8
 3103              		.cfi_offset 14, -4
 3104 0002 92B0     		sub	sp, sp, #72
 3105              	.LCFI106:
 3106              		.cfi_def_cfa_offset 80
 3107 0004 04AF     		add	r7, sp, #16
 3108              	.LCFI107:
 3109              		.cfi_def_cfa 7, 64
 3110 0006 F860     		str	r0, [r7, #12]
 3111 0008 B960     		str	r1, [r7, #8]
 3112 000a 7A60     		str	r2, [r7, #4]
1141:C:/Users/dtjld/workspace/AIoT/src/LiteOS_Lab/iot_link/network/dtls/mbedtls/mbedtls-2.16.2/library\x509_crt.c **** #if defined(MBEDTLS_PEM_PARSE_C)
1142:C:/Users/dtjld/workspace/AIoT/src/LiteOS_Lab/iot_link/network/dtls/mbedtls/mbedtls-2.16.2/library\x509_crt.c ****     int success = 0, first_error = 0, total_failed = 0;
 3113              		.loc 2 1142 0
 3114 000c 0023     		movs	r3, #0
 3115 000e 7B63     		str	r3, [r7, #52]
 3116 0010 0023     		movs	r3, #0
 3117 0012 3B63     		str	r3, [r7, #48]
 3118 0014 0023     		movs	r3, #0
 3119 0016 FB62     		str	r3, [r7, #44]
1143:C:/Users/dtjld/workspace/AIoT/src/LiteOS_Lab/iot_link/network/dtls/mbedtls/mbedtls-2.16.2/library\x509_crt.c ****     int buf_format = MBEDTLS_X509_FORMAT_DER;
 3120              		.loc 2 1143 0
 3121 0018 0123     		movs	r3, #1
 3122 001a BB62     		str	r3, [r7, #40]
1144:C:/Users/dtjld/workspace/AIoT/src/LiteOS_Lab/iot_link/network/dtls/mbedtls/mbedtls-2.16.2/library\x509_crt.c **** #endif
1145:C:/Users/dtjld/workspace/AIoT/src/LiteOS_Lab/iot_link/network/dtls/mbedtls/mbedtls-2.16.2/library\x509_crt.c **** 
1146:C:/Users/dtjld/workspace/AIoT/src/LiteOS_Lab/iot_link/network/dtls/mbedtls/mbedtls-2.16.2/library\x509_crt.c ****     /*
1147:C:/Users/dtjld/workspace/AIoT/src/LiteOS_Lab/iot_link/network/dtls/mbedtls/mbedtls-2.16.2/library\x509_crt.c ****      * Check for valid input
1148:C:/Users/dtjld/workspace/AIoT/src/LiteOS_Lab/iot_link/network/dtls/mbedtls/mbedtls-2.16.2/library\x509_crt.c ****      */
1149:C:/Users/dtjld/workspace/AIoT/src/LiteOS_Lab/iot_link/network/dtls/mbedtls/mbedtls-2.16.2/library\x509_crt.c ****     if( chain == NULL || buf == NULL )
 3123              		.loc 2 1149 0
 3124 001c FB68     		ldr	r3, [r7, #12]
 3125 001e 002B     		cmp	r3, #0
ARM GAS  C:\Users\dtjld\AppData\Local\Temp\ccTXdst3.s 			page 79


 3126 0020 02D0     		beq	.L223
 3127              		.loc 2 1149 0 is_stmt 0 discriminator 1
 3128 0022 BB68     		ldr	r3, [r7, #8]
 3129 0024 002B     		cmp	r3, #0
 3130 0026 01D1     		bne	.L224
 3131              	.L223:
1150:C:/Users/dtjld/workspace/AIoT/src/LiteOS_Lab/iot_link/network/dtls/mbedtls/mbedtls-2.16.2/library\x509_crt.c ****         return( MBEDTLS_ERR_X509_BAD_INPUT_DATA );
 3132              		.loc 2 1150 0 is_stmt 1
 3133 0028 4B4B     		ldr	r3, .L246
 3134 002a 90E0     		b	.L225
 3135              	.L224:
1151:C:/Users/dtjld/workspace/AIoT/src/LiteOS_Lab/iot_link/network/dtls/mbedtls/mbedtls-2.16.2/library\x509_crt.c **** 
1152:C:/Users/dtjld/workspace/AIoT/src/LiteOS_Lab/iot_link/network/dtls/mbedtls/mbedtls-2.16.2/library\x509_crt.c ****     /*
1153:C:/Users/dtjld/workspace/AIoT/src/LiteOS_Lab/iot_link/network/dtls/mbedtls/mbedtls-2.16.2/library\x509_crt.c ****      * Determine buffer content. Buffer contains either one DER certificate or
1154:C:/Users/dtjld/workspace/AIoT/src/LiteOS_Lab/iot_link/network/dtls/mbedtls/mbedtls-2.16.2/library\x509_crt.c ****      * one or more PEM certificates.
1155:C:/Users/dtjld/workspace/AIoT/src/LiteOS_Lab/iot_link/network/dtls/mbedtls/mbedtls-2.16.2/library\x509_crt.c ****      */
1156:C:/Users/dtjld/workspace/AIoT/src/LiteOS_Lab/iot_link/network/dtls/mbedtls/mbedtls-2.16.2/library\x509_crt.c **** #if defined(MBEDTLS_PEM_PARSE_C)
1157:C:/Users/dtjld/workspace/AIoT/src/LiteOS_Lab/iot_link/network/dtls/mbedtls/mbedtls-2.16.2/library\x509_crt.c ****     if( buflen != 0 && buf[buflen - 1] == '\0' &&
 3136              		.loc 2 1157 0
 3137 002c 7B68     		ldr	r3, [r7, #4]
 3138 002e 002B     		cmp	r3, #0
 3139 0030 0FD0     		beq	.L226
 3140              		.loc 2 1157 0 is_stmt 0 discriminator 1
 3141 0032 7B68     		ldr	r3, [r7, #4]
 3142 0034 013B     		subs	r3, r3, #1
 3143 0036 BA68     		ldr	r2, [r7, #8]
 3144 0038 1344     		add	r3, r3, r2
 3145 003a 1B78     		ldrb	r3, [r3]	@ zero_extendqisi2
 3146 003c 002B     		cmp	r3, #0
 3147 003e 08D1     		bne	.L226
1158:C:/Users/dtjld/workspace/AIoT/src/LiteOS_Lab/iot_link/network/dtls/mbedtls/mbedtls-2.16.2/library\x509_crt.c ****         strstr( (const char *) buf, "-----BEGIN CERTIFICATE-----" ) != NULL )
 3148              		.loc 2 1158 0 is_stmt 1 discriminator 2
 3149 0040 4649     		ldr	r1, .L246+4
 3150 0042 B868     		ldr	r0, [r7, #8]
 3151 0044 FFF7FEFF 		bl	strstr
 3152 0048 0346     		mov	r3, r0
1157:C:/Users/dtjld/workspace/AIoT/src/LiteOS_Lab/iot_link/network/dtls/mbedtls/mbedtls-2.16.2/library\x509_crt.c ****         strstr( (const char *) buf, "-----BEGIN CERTIFICATE-----" ) != NULL )
 3153              		.loc 2 1157 0 discriminator 2
 3154 004a 002B     		cmp	r3, #0
 3155 004c 01D0     		beq	.L226
1159:C:/Users/dtjld/workspace/AIoT/src/LiteOS_Lab/iot_link/network/dtls/mbedtls/mbedtls-2.16.2/library\x509_crt.c ****     {
1160:C:/Users/dtjld/workspace/AIoT/src/LiteOS_Lab/iot_link/network/dtls/mbedtls/mbedtls-2.16.2/library\x509_crt.c ****         buf_format = MBEDTLS_X509_FORMAT_PEM;
 3156              		.loc 2 1160 0
 3157 004e 0223     		movs	r3, #2
 3158 0050 BB62     		str	r3, [r7, #40]
 3159              	.L226:
1161:C:/Users/dtjld/workspace/AIoT/src/LiteOS_Lab/iot_link/network/dtls/mbedtls/mbedtls-2.16.2/library\x509_crt.c ****     }
1162:C:/Users/dtjld/workspace/AIoT/src/LiteOS_Lab/iot_link/network/dtls/mbedtls/mbedtls-2.16.2/library\x509_crt.c **** 
1163:C:/Users/dtjld/workspace/AIoT/src/LiteOS_Lab/iot_link/network/dtls/mbedtls/mbedtls-2.16.2/library\x509_crt.c ****     if( buf_format == MBEDTLS_X509_FORMAT_DER )
 3160              		.loc 2 1163 0
 3161 0052 BB6A     		ldr	r3, [r7, #40]
 3162 0054 012B     		cmp	r3, #1
 3163 0056 06D1     		bne	.L227
1164:C:/Users/dtjld/workspace/AIoT/src/LiteOS_Lab/iot_link/network/dtls/mbedtls/mbedtls-2.16.2/library\x509_crt.c ****         return mbedtls_x509_crt_parse_der( chain, buf, buflen );
 3164              		.loc 2 1164 0
 3165 0058 7A68     		ldr	r2, [r7, #4]
 3166 005a B968     		ldr	r1, [r7, #8]
ARM GAS  C:\Users\dtjld\AppData\Local\Temp\ccTXdst3.s 			page 80


 3167 005c F868     		ldr	r0, [r7, #12]
 3168 005e FFF7FEFF 		bl	mbedtls_x509_crt_parse_der
 3169 0062 0346     		mov	r3, r0
 3170 0064 73E0     		b	.L225
 3171              	.L227:
1165:C:/Users/dtjld/workspace/AIoT/src/LiteOS_Lab/iot_link/network/dtls/mbedtls/mbedtls-2.16.2/library\x509_crt.c **** #else
1166:C:/Users/dtjld/workspace/AIoT/src/LiteOS_Lab/iot_link/network/dtls/mbedtls/mbedtls-2.16.2/library\x509_crt.c ****     return mbedtls_x509_crt_parse_der( chain, buf, buflen );
1167:C:/Users/dtjld/workspace/AIoT/src/LiteOS_Lab/iot_link/network/dtls/mbedtls/mbedtls-2.16.2/library\x509_crt.c **** #endif
1168:C:/Users/dtjld/workspace/AIoT/src/LiteOS_Lab/iot_link/network/dtls/mbedtls/mbedtls-2.16.2/library\x509_crt.c **** 
1169:C:/Users/dtjld/workspace/AIoT/src/LiteOS_Lab/iot_link/network/dtls/mbedtls/mbedtls-2.16.2/library\x509_crt.c **** #if defined(MBEDTLS_PEM_PARSE_C)
1170:C:/Users/dtjld/workspace/AIoT/src/LiteOS_Lab/iot_link/network/dtls/mbedtls/mbedtls-2.16.2/library\x509_crt.c ****     if( buf_format == MBEDTLS_X509_FORMAT_PEM )
 3172              		.loc 2 1170 0
 3173 0066 BB6A     		ldr	r3, [r7, #40]
 3174 0068 022B     		cmp	r3, #2
 3175 006a 65D1     		bne	.L228
 3176              	.LBB4:
1171:C:/Users/dtjld/workspace/AIoT/src/LiteOS_Lab/iot_link/network/dtls/mbedtls/mbedtls-2.16.2/library\x509_crt.c ****     {
1172:C:/Users/dtjld/workspace/AIoT/src/LiteOS_Lab/iot_link/network/dtls/mbedtls/mbedtls-2.16.2/library\x509_crt.c ****         int ret;
1173:C:/Users/dtjld/workspace/AIoT/src/LiteOS_Lab/iot_link/network/dtls/mbedtls/mbedtls-2.16.2/library\x509_crt.c ****         mbedtls_pem_context pem;
1174:C:/Users/dtjld/workspace/AIoT/src/LiteOS_Lab/iot_link/network/dtls/mbedtls/mbedtls-2.16.2/library\x509_crt.c **** 
1175:C:/Users/dtjld/workspace/AIoT/src/LiteOS_Lab/iot_link/network/dtls/mbedtls/mbedtls-2.16.2/library\x509_crt.c ****         /* 1 rather than 0 since the terminating NULL byte is counted in */
1176:C:/Users/dtjld/workspace/AIoT/src/LiteOS_Lab/iot_link/network/dtls/mbedtls/mbedtls-2.16.2/library\x509_crt.c ****         while( buflen > 1 )
 3177              		.loc 2 1176 0
 3178 006c 5FE0     		b	.L229
 3179              	.L241:
 3180              	.LBB5:
1177:C:/Users/dtjld/workspace/AIoT/src/LiteOS_Lab/iot_link/network/dtls/mbedtls/mbedtls-2.16.2/library\x509_crt.c ****         {
1178:C:/Users/dtjld/workspace/AIoT/src/LiteOS_Lab/iot_link/network/dtls/mbedtls/mbedtls-2.16.2/library\x509_crt.c ****             size_t use_len;
1179:C:/Users/dtjld/workspace/AIoT/src/LiteOS_Lab/iot_link/network/dtls/mbedtls/mbedtls-2.16.2/library\x509_crt.c ****             mbedtls_pem_init( &pem );
 3181              		.loc 2 1179 0
 3182 006e 07F11803 		add	r3, r7, #24
 3183 0072 1846     		mov	r0, r3
 3184 0074 FFF7FEFF 		bl	mbedtls_pem_init
1180:C:/Users/dtjld/workspace/AIoT/src/LiteOS_Lab/iot_link/network/dtls/mbedtls/mbedtls-2.16.2/library\x509_crt.c **** 
1181:C:/Users/dtjld/workspace/AIoT/src/LiteOS_Lab/iot_link/network/dtls/mbedtls/mbedtls-2.16.2/library\x509_crt.c ****             /* If we get there, we know the string is null-terminated */
1182:C:/Users/dtjld/workspace/AIoT/src/LiteOS_Lab/iot_link/network/dtls/mbedtls/mbedtls-2.16.2/library\x509_crt.c ****             ret = mbedtls_pem_read_buffer( &pem,
 3185              		.loc 2 1182 0
 3186 0078 07F11800 		add	r0, r7, #24
 3187 007c 07F11403 		add	r3, r7, #20
 3188 0080 0293     		str	r3, [sp, #8]
 3189 0082 0023     		movs	r3, #0
 3190 0084 0193     		str	r3, [sp, #4]
 3191 0086 0023     		movs	r3, #0
 3192 0088 0093     		str	r3, [sp]
 3193 008a BB68     		ldr	r3, [r7, #8]
 3194 008c 344A     		ldr	r2, .L246+8
 3195 008e 3349     		ldr	r1, .L246+4
 3196 0090 FFF7FEFF 		bl	mbedtls_pem_read_buffer
 3197 0094 7862     		str	r0, [r7, #36]
1183:C:/Users/dtjld/workspace/AIoT/src/LiteOS_Lab/iot_link/network/dtls/mbedtls/mbedtls-2.16.2/library\x509_crt.c ****                            "-----BEGIN CERTIFICATE-----",
1184:C:/Users/dtjld/workspace/AIoT/src/LiteOS_Lab/iot_link/network/dtls/mbedtls/mbedtls-2.16.2/library\x509_crt.c ****                            "-----END CERTIFICATE-----",
1185:C:/Users/dtjld/workspace/AIoT/src/LiteOS_Lab/iot_link/network/dtls/mbedtls/mbedtls-2.16.2/library\x509_crt.c ****                            buf, NULL, 0, &use_len );
1186:C:/Users/dtjld/workspace/AIoT/src/LiteOS_Lab/iot_link/network/dtls/mbedtls/mbedtls-2.16.2/library\x509_crt.c **** 
1187:C:/Users/dtjld/workspace/AIoT/src/LiteOS_Lab/iot_link/network/dtls/mbedtls/mbedtls-2.16.2/library\x509_crt.c ****             if( ret == 0 )
 3198              		.loc 2 1187 0
 3199 0096 7B6A     		ldr	r3, [r7, #36]
 3200 0098 002B     		cmp	r3, #0
ARM GAS  C:\Users\dtjld\AppData\Local\Temp\ccTXdst3.s 			page 81


 3201 009a 17D1     		bne	.L230
1188:C:/Users/dtjld/workspace/AIoT/src/LiteOS_Lab/iot_link/network/dtls/mbedtls/mbedtls-2.16.2/library\x509_crt.c ****             {
1189:C:/Users/dtjld/workspace/AIoT/src/LiteOS_Lab/iot_link/network/dtls/mbedtls/mbedtls-2.16.2/library\x509_crt.c ****                 /*
1190:C:/Users/dtjld/workspace/AIoT/src/LiteOS_Lab/iot_link/network/dtls/mbedtls/mbedtls-2.16.2/library\x509_crt.c ****                  * Was PEM encoded
1191:C:/Users/dtjld/workspace/AIoT/src/LiteOS_Lab/iot_link/network/dtls/mbedtls/mbedtls-2.16.2/library\x509_crt.c ****                  */
1192:C:/Users/dtjld/workspace/AIoT/src/LiteOS_Lab/iot_link/network/dtls/mbedtls/mbedtls-2.16.2/library\x509_crt.c ****                 buflen -= use_len;
 3202              		.loc 2 1192 0
 3203 009c 7B69     		ldr	r3, [r7, #20]
 3204 009e 7A68     		ldr	r2, [r7, #4]
 3205 00a0 D31A     		subs	r3, r2, r3
 3206 00a2 7B60     		str	r3, [r7, #4]
1193:C:/Users/dtjld/workspace/AIoT/src/LiteOS_Lab/iot_link/network/dtls/mbedtls/mbedtls-2.16.2/library\x509_crt.c ****                 buf += use_len;
 3207              		.loc 2 1193 0
 3208 00a4 7B69     		ldr	r3, [r7, #20]
 3209 00a6 BA68     		ldr	r2, [r7, #8]
 3210 00a8 1344     		add	r3, r3, r2
 3211 00aa BB60     		str	r3, [r7, #8]
1194:C:/Users/dtjld/workspace/AIoT/src/LiteOS_Lab/iot_link/network/dtls/mbedtls/mbedtls-2.16.2/library\x509_crt.c ****             }
1195:C:/Users/dtjld/workspace/AIoT/src/LiteOS_Lab/iot_link/network/dtls/mbedtls/mbedtls-2.16.2/library\x509_crt.c ****             else if( ret == MBEDTLS_ERR_PEM_BAD_INPUT_DATA )
1196:C:/Users/dtjld/workspace/AIoT/src/LiteOS_Lab/iot_link/network/dtls/mbedtls/mbedtls-2.16.2/library\x509_crt.c ****             {
1197:C:/Users/dtjld/workspace/AIoT/src/LiteOS_Lab/iot_link/network/dtls/mbedtls/mbedtls-2.16.2/library\x509_crt.c ****                 return( ret );
1198:C:/Users/dtjld/workspace/AIoT/src/LiteOS_Lab/iot_link/network/dtls/mbedtls/mbedtls-2.16.2/library\x509_crt.c ****             }
1199:C:/Users/dtjld/workspace/AIoT/src/LiteOS_Lab/iot_link/network/dtls/mbedtls/mbedtls-2.16.2/library\x509_crt.c ****             else if( ret != MBEDTLS_ERR_PEM_NO_HEADER_FOOTER_PRESENT )
1200:C:/Users/dtjld/workspace/AIoT/src/LiteOS_Lab/iot_link/network/dtls/mbedtls/mbedtls-2.16.2/library\x509_crt.c ****             {
1201:C:/Users/dtjld/workspace/AIoT/src/LiteOS_Lab/iot_link/network/dtls/mbedtls/mbedtls-2.16.2/library\x509_crt.c ****                 mbedtls_pem_free( &pem );
1202:C:/Users/dtjld/workspace/AIoT/src/LiteOS_Lab/iot_link/network/dtls/mbedtls/mbedtls-2.16.2/library\x509_crt.c **** 
1203:C:/Users/dtjld/workspace/AIoT/src/LiteOS_Lab/iot_link/network/dtls/mbedtls/mbedtls-2.16.2/library\x509_crt.c ****                 /*
1204:C:/Users/dtjld/workspace/AIoT/src/LiteOS_Lab/iot_link/network/dtls/mbedtls/mbedtls-2.16.2/library\x509_crt.c ****                  * PEM header and footer were found
1205:C:/Users/dtjld/workspace/AIoT/src/LiteOS_Lab/iot_link/network/dtls/mbedtls/mbedtls-2.16.2/library\x509_crt.c ****                  */
1206:C:/Users/dtjld/workspace/AIoT/src/LiteOS_Lab/iot_link/network/dtls/mbedtls/mbedtls-2.16.2/library\x509_crt.c ****                 buflen -= use_len;
1207:C:/Users/dtjld/workspace/AIoT/src/LiteOS_Lab/iot_link/network/dtls/mbedtls/mbedtls-2.16.2/library\x509_crt.c ****                 buf += use_len;
1208:C:/Users/dtjld/workspace/AIoT/src/LiteOS_Lab/iot_link/network/dtls/mbedtls/mbedtls-2.16.2/library\x509_crt.c **** 
1209:C:/Users/dtjld/workspace/AIoT/src/LiteOS_Lab/iot_link/network/dtls/mbedtls/mbedtls-2.16.2/library\x509_crt.c ****                 if( first_error == 0 )
1210:C:/Users/dtjld/workspace/AIoT/src/LiteOS_Lab/iot_link/network/dtls/mbedtls/mbedtls-2.16.2/library\x509_crt.c ****                     first_error = ret;
1211:C:/Users/dtjld/workspace/AIoT/src/LiteOS_Lab/iot_link/network/dtls/mbedtls/mbedtls-2.16.2/library\x509_crt.c **** 
1212:C:/Users/dtjld/workspace/AIoT/src/LiteOS_Lab/iot_link/network/dtls/mbedtls/mbedtls-2.16.2/library\x509_crt.c ****                 total_failed++;
1213:C:/Users/dtjld/workspace/AIoT/src/LiteOS_Lab/iot_link/network/dtls/mbedtls/mbedtls-2.16.2/library\x509_crt.c ****                 continue;
1214:C:/Users/dtjld/workspace/AIoT/src/LiteOS_Lab/iot_link/network/dtls/mbedtls/mbedtls-2.16.2/library\x509_crt.c ****             }
1215:C:/Users/dtjld/workspace/AIoT/src/LiteOS_Lab/iot_link/network/dtls/mbedtls/mbedtls-2.16.2/library\x509_crt.c ****             else
1216:C:/Users/dtjld/workspace/AIoT/src/LiteOS_Lab/iot_link/network/dtls/mbedtls/mbedtls-2.16.2/library\x509_crt.c ****                 break;
1217:C:/Users/dtjld/workspace/AIoT/src/LiteOS_Lab/iot_link/network/dtls/mbedtls/mbedtls-2.16.2/library\x509_crt.c **** 
1218:C:/Users/dtjld/workspace/AIoT/src/LiteOS_Lab/iot_link/network/dtls/mbedtls/mbedtls-2.16.2/library\x509_crt.c ****             ret = mbedtls_x509_crt_parse_der( chain, pem.buf, pem.buflen );
 3212              		.loc 2 1218 0
 3213 00ac BB69     		ldr	r3, [r7, #24]
 3214 00ae FA69     		ldr	r2, [r7, #28]
 3215 00b0 1946     		mov	r1, r3
 3216 00b2 F868     		ldr	r0, [r7, #12]
 3217 00b4 FFF7FEFF 		bl	mbedtls_x509_crt_parse_der
 3218 00b8 7862     		str	r0, [r7, #36]
1219:C:/Users/dtjld/workspace/AIoT/src/LiteOS_Lab/iot_link/network/dtls/mbedtls/mbedtls-2.16.2/library\x509_crt.c **** 
1220:C:/Users/dtjld/workspace/AIoT/src/LiteOS_Lab/iot_link/network/dtls/mbedtls/mbedtls-2.16.2/library\x509_crt.c ****             mbedtls_pem_free( &pem );
 3219              		.loc 2 1220 0
 3220 00ba 07F11803 		add	r3, r7, #24
 3221 00be 1846     		mov	r0, r3
 3222 00c0 FFF7FEFF 		bl	mbedtls_pem_free
1221:C:/Users/dtjld/workspace/AIoT/src/LiteOS_Lab/iot_link/network/dtls/mbedtls/mbedtls-2.16.2/library\x509_crt.c **** 
1222:C:/Users/dtjld/workspace/AIoT/src/LiteOS_Lab/iot_link/network/dtls/mbedtls/mbedtls-2.16.2/library\x509_crt.c ****             if( ret != 0 )
ARM GAS  C:\Users\dtjld\AppData\Local\Temp\ccTXdst3.s 			page 82


 3223              		.loc 2 1222 0
 3224 00c4 7B6A     		ldr	r3, [r7, #36]
 3225 00c6 002B     		cmp	r3, #0
 3226 00c8 2FD0     		beq	.L238
 3227 00ca 1FE0     		b	.L244
 3228              	.L230:
1195:C:/Users/dtjld/workspace/AIoT/src/LiteOS_Lab/iot_link/network/dtls/mbedtls/mbedtls-2.16.2/library\x509_crt.c ****             {
 3229              		.loc 2 1195 0
 3230 00cc 7B6A     		ldr	r3, [r7, #36]
 3231 00ce 13F5A45F 		cmn	r3, #5248
 3232 00d2 01D1     		bne	.L232
1197:C:/Users/dtjld/workspace/AIoT/src/LiteOS_Lab/iot_link/network/dtls/mbedtls/mbedtls-2.16.2/library\x509_crt.c ****             }
 3233              		.loc 2 1197 0
 3234 00d4 7B6A     		ldr	r3, [r7, #36]
 3235 00d6 3AE0     		b	.L225
 3236              	.L232:
1199:C:/Users/dtjld/workspace/AIoT/src/LiteOS_Lab/iot_link/network/dtls/mbedtls/mbedtls-2.16.2/library\x509_crt.c ****             {
 3237              		.loc 2 1199 0
 3238 00d8 7B6A     		ldr	r3, [r7, #36]
 3239 00da 13F5845F 		cmn	r3, #4224
 3240 00de 2AD0     		beq	.L245
1201:C:/Users/dtjld/workspace/AIoT/src/LiteOS_Lab/iot_link/network/dtls/mbedtls/mbedtls-2.16.2/library\x509_crt.c **** 
 3241              		.loc 2 1201 0
 3242 00e0 07F11803 		add	r3, r7, #24
 3243 00e4 1846     		mov	r0, r3
 3244 00e6 FFF7FEFF 		bl	mbedtls_pem_free
1206:C:/Users/dtjld/workspace/AIoT/src/LiteOS_Lab/iot_link/network/dtls/mbedtls/mbedtls-2.16.2/library\x509_crt.c ****                 buf += use_len;
 3245              		.loc 2 1206 0
 3246 00ea 7B69     		ldr	r3, [r7, #20]
 3247 00ec 7A68     		ldr	r2, [r7, #4]
 3248 00ee D31A     		subs	r3, r2, r3
 3249 00f0 7B60     		str	r3, [r7, #4]
1207:C:/Users/dtjld/workspace/AIoT/src/LiteOS_Lab/iot_link/network/dtls/mbedtls/mbedtls-2.16.2/library\x509_crt.c **** 
 3250              		.loc 2 1207 0
 3251 00f2 7B69     		ldr	r3, [r7, #20]
 3252 00f4 BA68     		ldr	r2, [r7, #8]
 3253 00f6 1344     		add	r3, r3, r2
 3254 00f8 BB60     		str	r3, [r7, #8]
1209:C:/Users/dtjld/workspace/AIoT/src/LiteOS_Lab/iot_link/network/dtls/mbedtls/mbedtls-2.16.2/library\x509_crt.c ****                     first_error = ret;
 3255              		.loc 2 1209 0
 3256 00fa 3B6B     		ldr	r3, [r7, #48]
 3257 00fc 002B     		cmp	r3, #0
 3258 00fe 01D1     		bne	.L235
1210:C:/Users/dtjld/workspace/AIoT/src/LiteOS_Lab/iot_link/network/dtls/mbedtls/mbedtls-2.16.2/library\x509_crt.c **** 
 3259              		.loc 2 1210 0
 3260 0100 7B6A     		ldr	r3, [r7, #36]
 3261 0102 3B63     		str	r3, [r7, #48]
 3262              	.L235:
1212:C:/Users/dtjld/workspace/AIoT/src/LiteOS_Lab/iot_link/network/dtls/mbedtls/mbedtls-2.16.2/library\x509_crt.c ****                 continue;
 3263              		.loc 2 1212 0
 3264 0104 FB6A     		ldr	r3, [r7, #44]
 3265 0106 0133     		adds	r3, r3, #1
 3266 0108 FB62     		str	r3, [r7, #44]
1213:C:/Users/dtjld/workspace/AIoT/src/LiteOS_Lab/iot_link/network/dtls/mbedtls/mbedtls-2.16.2/library\x509_crt.c ****             }
 3267              		.loc 2 1213 0
 3268 010a 10E0     		b	.L229
 3269              	.L244:
ARM GAS  C:\Users\dtjld\AppData\Local\Temp\ccTXdst3.s 			page 83


1223:C:/Users/dtjld/workspace/AIoT/src/LiteOS_Lab/iot_link/network/dtls/mbedtls/mbedtls-2.16.2/library\x509_crt.c ****             {
1224:C:/Users/dtjld/workspace/AIoT/src/LiteOS_Lab/iot_link/network/dtls/mbedtls/mbedtls-2.16.2/library\x509_crt.c ****                 /*
1225:C:/Users/dtjld/workspace/AIoT/src/LiteOS_Lab/iot_link/network/dtls/mbedtls/mbedtls-2.16.2/library\x509_crt.c ****                  * Quit parsing on a memory error
1226:C:/Users/dtjld/workspace/AIoT/src/LiteOS_Lab/iot_link/network/dtls/mbedtls/mbedtls-2.16.2/library\x509_crt.c ****                  */
1227:C:/Users/dtjld/workspace/AIoT/src/LiteOS_Lab/iot_link/network/dtls/mbedtls/mbedtls-2.16.2/library\x509_crt.c ****                 if( ret == MBEDTLS_ERR_X509_ALLOC_FAILED )
 3270              		.loc 2 1227 0
 3271 010c 7B6A     		ldr	r3, [r7, #36]
 3272 010e 13F5225F 		cmn	r3, #10368
 3273 0112 01D1     		bne	.L239
1228:C:/Users/dtjld/workspace/AIoT/src/LiteOS_Lab/iot_link/network/dtls/mbedtls/mbedtls-2.16.2/library\x509_crt.c ****                     return( ret );
 3274              		.loc 2 1228 0
 3275 0114 7B6A     		ldr	r3, [r7, #36]
 3276 0116 1AE0     		b	.L225
 3277              	.L239:
1229:C:/Users/dtjld/workspace/AIoT/src/LiteOS_Lab/iot_link/network/dtls/mbedtls/mbedtls-2.16.2/library\x509_crt.c **** 
1230:C:/Users/dtjld/workspace/AIoT/src/LiteOS_Lab/iot_link/network/dtls/mbedtls/mbedtls-2.16.2/library\x509_crt.c ****                 if( first_error == 0 )
 3278              		.loc 2 1230 0
 3279 0118 3B6B     		ldr	r3, [r7, #48]
 3280 011a 002B     		cmp	r3, #0
 3281 011c 01D1     		bne	.L240
1231:C:/Users/dtjld/workspace/AIoT/src/LiteOS_Lab/iot_link/network/dtls/mbedtls/mbedtls-2.16.2/library\x509_crt.c ****                     first_error = ret;
 3282              		.loc 2 1231 0
 3283 011e 7B6A     		ldr	r3, [r7, #36]
 3284 0120 3B63     		str	r3, [r7, #48]
 3285              	.L240:
1232:C:/Users/dtjld/workspace/AIoT/src/LiteOS_Lab/iot_link/network/dtls/mbedtls/mbedtls-2.16.2/library\x509_crt.c **** 
1233:C:/Users/dtjld/workspace/AIoT/src/LiteOS_Lab/iot_link/network/dtls/mbedtls/mbedtls-2.16.2/library\x509_crt.c ****                 total_failed++;
 3286              		.loc 2 1233 0
 3287 0122 FB6A     		ldr	r3, [r7, #44]
 3288 0124 0133     		adds	r3, r3, #1
 3289 0126 FB62     		str	r3, [r7, #44]
1234:C:/Users/dtjld/workspace/AIoT/src/LiteOS_Lab/iot_link/network/dtls/mbedtls/mbedtls-2.16.2/library\x509_crt.c ****                 continue;
 3290              		.loc 2 1234 0
 3291 0128 01E0     		b	.L229
 3292              	.L238:
1235:C:/Users/dtjld/workspace/AIoT/src/LiteOS_Lab/iot_link/network/dtls/mbedtls/mbedtls-2.16.2/library\x509_crt.c ****             }
1236:C:/Users/dtjld/workspace/AIoT/src/LiteOS_Lab/iot_link/network/dtls/mbedtls/mbedtls-2.16.2/library\x509_crt.c **** 
1237:C:/Users/dtjld/workspace/AIoT/src/LiteOS_Lab/iot_link/network/dtls/mbedtls/mbedtls-2.16.2/library\x509_crt.c ****             success = 1;
 3293              		.loc 2 1237 0
 3294 012a 0123     		movs	r3, #1
 3295 012c 7B63     		str	r3, [r7, #52]
 3296              	.L229:
 3297              	.LBE5:
1176:C:/Users/dtjld/workspace/AIoT/src/LiteOS_Lab/iot_link/network/dtls/mbedtls/mbedtls-2.16.2/library\x509_crt.c ****         {
 3298              		.loc 2 1176 0
 3299 012e 7B68     		ldr	r3, [r7, #4]
 3300 0130 012B     		cmp	r3, #1
 3301 0132 9CD8     		bhi	.L241
 3302 0134 00E0     		b	.L228
 3303              	.L245:
 3304              	.LBB6:
1216:C:/Users/dtjld/workspace/AIoT/src/LiteOS_Lab/iot_link/network/dtls/mbedtls/mbedtls-2.16.2/library\x509_crt.c **** 
 3305              		.loc 2 1216 0
 3306 0136 00BF     		nop
 3307              	.L228:
 3308              	.LBE6:
 3309              	.LBE4:
ARM GAS  C:\Users\dtjld\AppData\Local\Temp\ccTXdst3.s 			page 84


1238:C:/Users/dtjld/workspace/AIoT/src/LiteOS_Lab/iot_link/network/dtls/mbedtls/mbedtls-2.16.2/library\x509_crt.c ****         }
1239:C:/Users/dtjld/workspace/AIoT/src/LiteOS_Lab/iot_link/network/dtls/mbedtls/mbedtls-2.16.2/library\x509_crt.c ****     }
1240:C:/Users/dtjld/workspace/AIoT/src/LiteOS_Lab/iot_link/network/dtls/mbedtls/mbedtls-2.16.2/library\x509_crt.c **** 
1241:C:/Users/dtjld/workspace/AIoT/src/LiteOS_Lab/iot_link/network/dtls/mbedtls/mbedtls-2.16.2/library\x509_crt.c ****     if( success )
 3310              		.loc 2 1241 0
 3311 0138 7B6B     		ldr	r3, [r7, #52]
 3312 013a 002B     		cmp	r3, #0
 3313 013c 01D0     		beq	.L242
1242:C:/Users/dtjld/workspace/AIoT/src/LiteOS_Lab/iot_link/network/dtls/mbedtls/mbedtls-2.16.2/library\x509_crt.c ****         return( total_failed );
 3314              		.loc 2 1242 0
 3315 013e FB6A     		ldr	r3, [r7, #44]
 3316 0140 05E0     		b	.L225
 3317              	.L242:
1243:C:/Users/dtjld/workspace/AIoT/src/LiteOS_Lab/iot_link/network/dtls/mbedtls/mbedtls-2.16.2/library\x509_crt.c ****     else if( first_error )
 3318              		.loc 2 1243 0
 3319 0142 3B6B     		ldr	r3, [r7, #48]
 3320 0144 002B     		cmp	r3, #0
 3321 0146 01D0     		beq	.L243
1244:C:/Users/dtjld/workspace/AIoT/src/LiteOS_Lab/iot_link/network/dtls/mbedtls/mbedtls-2.16.2/library\x509_crt.c ****         return( first_error );
 3322              		.loc 2 1244 0
 3323 0148 3B6B     		ldr	r3, [r7, #48]
 3324 014a 00E0     		b	.L225
 3325              	.L243:
1245:C:/Users/dtjld/workspace/AIoT/src/LiteOS_Lab/iot_link/network/dtls/mbedtls/mbedtls-2.16.2/library\x509_crt.c ****     else
1246:C:/Users/dtjld/workspace/AIoT/src/LiteOS_Lab/iot_link/network/dtls/mbedtls/mbedtls-2.16.2/library\x509_crt.c ****         return( MBEDTLS_ERR_X509_CERT_UNKNOWN_FORMAT );
 3326              		.loc 2 1246 0
 3327 014c 054B     		ldr	r3, .L246+12
 3328              	.L225:
1247:C:/Users/dtjld/workspace/AIoT/src/LiteOS_Lab/iot_link/network/dtls/mbedtls/mbedtls-2.16.2/library\x509_crt.c **** #endif /* MBEDTLS_PEM_PARSE_C */
1248:C:/Users/dtjld/workspace/AIoT/src/LiteOS_Lab/iot_link/network/dtls/mbedtls/mbedtls-2.16.2/library\x509_crt.c **** }
 3329              		.loc 2 1248 0 discriminator 1
 3330 014e 1846     		mov	r0, r3
 3331 0150 3837     		adds	r7, r7, #56
 3332              	.LCFI108:
 3333              		.cfi_def_cfa_offset 8
 3334 0152 BD46     		mov	sp, r7
 3335              	.LCFI109:
 3336              		.cfi_def_cfa_register 13
 3337              		@ sp needed
 3338 0154 80BD     		pop	{r7, pc}
 3339              	.L247:
 3340 0156 00BF     		.align	2
 3341              	.L246:
 3342 0158 00D8FFFF 		.word	-10240
 3343 015c 00000000 		.word	.LC0
 3344 0160 1C000000 		.word	.LC1
 3345 0164 80D8FFFF 		.word	-10112
 3346              		.cfi_endproc
 3347              	.LFE32:
 3349              		.section	.rodata
 3350 0036 0000     		.align	2
 3351              	.LC2:
 3352 0038 00       		.ascii	"\000"
 3353 0039 000000   		.align	2
 3354              	.LC3:
 3355 003c 2C2000   		.ascii	", \000"
 3356              		.section	.text.x509_info_subject_alt_name,"ax",%progbits
ARM GAS  C:\Users\dtjld\AppData\Local\Temp\ccTXdst3.s 			page 85


 3357              		.align	1
 3358              		.syntax unified
 3359              		.thumb
 3360              		.thumb_func
 3361              		.fpu fpv4-sp-d16
 3363              	x509_info_subject_alt_name:
 3364              	.LFB33:
1249:C:/Users/dtjld/workspace/AIoT/src/LiteOS_Lab/iot_link/network/dtls/mbedtls/mbedtls-2.16.2/library\x509_crt.c **** 
1250:C:/Users/dtjld/workspace/AIoT/src/LiteOS_Lab/iot_link/network/dtls/mbedtls/mbedtls-2.16.2/library\x509_crt.c **** #if defined(MBEDTLS_FS_IO)
1251:C:/Users/dtjld/workspace/AIoT/src/LiteOS_Lab/iot_link/network/dtls/mbedtls/mbedtls-2.16.2/library\x509_crt.c **** /*
1252:C:/Users/dtjld/workspace/AIoT/src/LiteOS_Lab/iot_link/network/dtls/mbedtls/mbedtls-2.16.2/library\x509_crt.c ****  * Load one or more certificates and add them to the chained list
1253:C:/Users/dtjld/workspace/AIoT/src/LiteOS_Lab/iot_link/network/dtls/mbedtls/mbedtls-2.16.2/library\x509_crt.c ****  */
1254:C:/Users/dtjld/workspace/AIoT/src/LiteOS_Lab/iot_link/network/dtls/mbedtls/mbedtls-2.16.2/library\x509_crt.c **** int mbedtls_x509_crt_parse_file( mbedtls_x509_crt *chain, const char *path )
1255:C:/Users/dtjld/workspace/AIoT/src/LiteOS_Lab/iot_link/network/dtls/mbedtls/mbedtls-2.16.2/library\x509_crt.c **** {
1256:C:/Users/dtjld/workspace/AIoT/src/LiteOS_Lab/iot_link/network/dtls/mbedtls/mbedtls-2.16.2/library\x509_crt.c ****     int ret;
1257:C:/Users/dtjld/workspace/AIoT/src/LiteOS_Lab/iot_link/network/dtls/mbedtls/mbedtls-2.16.2/library\x509_crt.c ****     size_t n;
1258:C:/Users/dtjld/workspace/AIoT/src/LiteOS_Lab/iot_link/network/dtls/mbedtls/mbedtls-2.16.2/library\x509_crt.c ****     unsigned char *buf;
1259:C:/Users/dtjld/workspace/AIoT/src/LiteOS_Lab/iot_link/network/dtls/mbedtls/mbedtls-2.16.2/library\x509_crt.c **** 
1260:C:/Users/dtjld/workspace/AIoT/src/LiteOS_Lab/iot_link/network/dtls/mbedtls/mbedtls-2.16.2/library\x509_crt.c ****     if( ( ret = mbedtls_pk_load_file( path, &buf, &n ) ) != 0 )
1261:C:/Users/dtjld/workspace/AIoT/src/LiteOS_Lab/iot_link/network/dtls/mbedtls/mbedtls-2.16.2/library\x509_crt.c ****         return( ret );
1262:C:/Users/dtjld/workspace/AIoT/src/LiteOS_Lab/iot_link/network/dtls/mbedtls/mbedtls-2.16.2/library\x509_crt.c **** 
1263:C:/Users/dtjld/workspace/AIoT/src/LiteOS_Lab/iot_link/network/dtls/mbedtls/mbedtls-2.16.2/library\x509_crt.c ****     ret = mbedtls_x509_crt_parse( chain, buf, n );
1264:C:/Users/dtjld/workspace/AIoT/src/LiteOS_Lab/iot_link/network/dtls/mbedtls/mbedtls-2.16.2/library\x509_crt.c **** 
1265:C:/Users/dtjld/workspace/AIoT/src/LiteOS_Lab/iot_link/network/dtls/mbedtls/mbedtls-2.16.2/library\x509_crt.c ****     mbedtls_platform_zeroize( buf, n );
1266:C:/Users/dtjld/workspace/AIoT/src/LiteOS_Lab/iot_link/network/dtls/mbedtls/mbedtls-2.16.2/library\x509_crt.c ****     mbedtls_free( buf );
1267:C:/Users/dtjld/workspace/AIoT/src/LiteOS_Lab/iot_link/network/dtls/mbedtls/mbedtls-2.16.2/library\x509_crt.c **** 
1268:C:/Users/dtjld/workspace/AIoT/src/LiteOS_Lab/iot_link/network/dtls/mbedtls/mbedtls-2.16.2/library\x509_crt.c ****     return( ret );
1269:C:/Users/dtjld/workspace/AIoT/src/LiteOS_Lab/iot_link/network/dtls/mbedtls/mbedtls-2.16.2/library\x509_crt.c **** }
1270:C:/Users/dtjld/workspace/AIoT/src/LiteOS_Lab/iot_link/network/dtls/mbedtls/mbedtls-2.16.2/library\x509_crt.c **** 
1271:C:/Users/dtjld/workspace/AIoT/src/LiteOS_Lab/iot_link/network/dtls/mbedtls/mbedtls-2.16.2/library\x509_crt.c **** int mbedtls_x509_crt_parse_path( mbedtls_x509_crt *chain, const char *path )
1272:C:/Users/dtjld/workspace/AIoT/src/LiteOS_Lab/iot_link/network/dtls/mbedtls/mbedtls-2.16.2/library\x509_crt.c **** {
1273:C:/Users/dtjld/workspace/AIoT/src/LiteOS_Lab/iot_link/network/dtls/mbedtls/mbedtls-2.16.2/library\x509_crt.c ****     int ret = 0;
1274:C:/Users/dtjld/workspace/AIoT/src/LiteOS_Lab/iot_link/network/dtls/mbedtls/mbedtls-2.16.2/library\x509_crt.c **** #if defined(_WIN32) && !defined(EFIX64) && !defined(EFI32)
1275:C:/Users/dtjld/workspace/AIoT/src/LiteOS_Lab/iot_link/network/dtls/mbedtls/mbedtls-2.16.2/library\x509_crt.c ****     int w_ret;
1276:C:/Users/dtjld/workspace/AIoT/src/LiteOS_Lab/iot_link/network/dtls/mbedtls/mbedtls-2.16.2/library\x509_crt.c ****     WCHAR szDir[MAX_PATH];
1277:C:/Users/dtjld/workspace/AIoT/src/LiteOS_Lab/iot_link/network/dtls/mbedtls/mbedtls-2.16.2/library\x509_crt.c ****     char filename[MAX_PATH];
1278:C:/Users/dtjld/workspace/AIoT/src/LiteOS_Lab/iot_link/network/dtls/mbedtls/mbedtls-2.16.2/library\x509_crt.c ****     char *p;
1279:C:/Users/dtjld/workspace/AIoT/src/LiteOS_Lab/iot_link/network/dtls/mbedtls/mbedtls-2.16.2/library\x509_crt.c ****     size_t len = strlen( path );
1280:C:/Users/dtjld/workspace/AIoT/src/LiteOS_Lab/iot_link/network/dtls/mbedtls/mbedtls-2.16.2/library\x509_crt.c **** 
1281:C:/Users/dtjld/workspace/AIoT/src/LiteOS_Lab/iot_link/network/dtls/mbedtls/mbedtls-2.16.2/library\x509_crt.c ****     WIN32_FIND_DATAW file_data;
1282:C:/Users/dtjld/workspace/AIoT/src/LiteOS_Lab/iot_link/network/dtls/mbedtls/mbedtls-2.16.2/library\x509_crt.c ****     HANDLE hFind;
1283:C:/Users/dtjld/workspace/AIoT/src/LiteOS_Lab/iot_link/network/dtls/mbedtls/mbedtls-2.16.2/library\x509_crt.c **** 
1284:C:/Users/dtjld/workspace/AIoT/src/LiteOS_Lab/iot_link/network/dtls/mbedtls/mbedtls-2.16.2/library\x509_crt.c ****     if( len > MAX_PATH - 3 )
1285:C:/Users/dtjld/workspace/AIoT/src/LiteOS_Lab/iot_link/network/dtls/mbedtls/mbedtls-2.16.2/library\x509_crt.c ****         return( MBEDTLS_ERR_X509_BAD_INPUT_DATA );
1286:C:/Users/dtjld/workspace/AIoT/src/LiteOS_Lab/iot_link/network/dtls/mbedtls/mbedtls-2.16.2/library\x509_crt.c **** 
1287:C:/Users/dtjld/workspace/AIoT/src/LiteOS_Lab/iot_link/network/dtls/mbedtls/mbedtls-2.16.2/library\x509_crt.c ****     memset( szDir, 0, sizeof(szDir) );
1288:C:/Users/dtjld/workspace/AIoT/src/LiteOS_Lab/iot_link/network/dtls/mbedtls/mbedtls-2.16.2/library\x509_crt.c ****     memset( filename, 0, MAX_PATH );
1289:C:/Users/dtjld/workspace/AIoT/src/LiteOS_Lab/iot_link/network/dtls/mbedtls/mbedtls-2.16.2/library\x509_crt.c ****     memcpy( filename, path, len );
1290:C:/Users/dtjld/workspace/AIoT/src/LiteOS_Lab/iot_link/network/dtls/mbedtls/mbedtls-2.16.2/library\x509_crt.c ****     filename[len++] = '\\';
1291:C:/Users/dtjld/workspace/AIoT/src/LiteOS_Lab/iot_link/network/dtls/mbedtls/mbedtls-2.16.2/library\x509_crt.c ****     p = filename + len;
1292:C:/Users/dtjld/workspace/AIoT/src/LiteOS_Lab/iot_link/network/dtls/mbedtls/mbedtls-2.16.2/library\x509_crt.c ****     filename[len++] = '*';
1293:C:/Users/dtjld/workspace/AIoT/src/LiteOS_Lab/iot_link/network/dtls/mbedtls/mbedtls-2.16.2/library\x509_crt.c **** 
1294:C:/Users/dtjld/workspace/AIoT/src/LiteOS_Lab/iot_link/network/dtls/mbedtls/mbedtls-2.16.2/library\x509_crt.c ****     w_ret = MultiByteToWideChar( CP_ACP, 0, filename, (int)len, szDir,
1295:C:/Users/dtjld/workspace/AIoT/src/LiteOS_Lab/iot_link/network/dtls/mbedtls/mbedtls-2.16.2/library\x509_crt.c ****                                  MAX_PATH - 3 );
1296:C:/Users/dtjld/workspace/AIoT/src/LiteOS_Lab/iot_link/network/dtls/mbedtls/mbedtls-2.16.2/library\x509_crt.c ****     if( w_ret == 0 )
1297:C:/Users/dtjld/workspace/AIoT/src/LiteOS_Lab/iot_link/network/dtls/mbedtls/mbedtls-2.16.2/library\x509_crt.c ****         return( MBEDTLS_ERR_X509_BAD_INPUT_DATA );
1298:C:/Users/dtjld/workspace/AIoT/src/LiteOS_Lab/iot_link/network/dtls/mbedtls/mbedtls-2.16.2/library\x509_crt.c **** 
ARM GAS  C:\Users\dtjld\AppData\Local\Temp\ccTXdst3.s 			page 86


1299:C:/Users/dtjld/workspace/AIoT/src/LiteOS_Lab/iot_link/network/dtls/mbedtls/mbedtls-2.16.2/library\x509_crt.c ****     hFind = FindFirstFileW( szDir, &file_data );
1300:C:/Users/dtjld/workspace/AIoT/src/LiteOS_Lab/iot_link/network/dtls/mbedtls/mbedtls-2.16.2/library\x509_crt.c ****     if( hFind == INVALID_HANDLE_VALUE )
1301:C:/Users/dtjld/workspace/AIoT/src/LiteOS_Lab/iot_link/network/dtls/mbedtls/mbedtls-2.16.2/library\x509_crt.c ****         return( MBEDTLS_ERR_X509_FILE_IO_ERROR );
1302:C:/Users/dtjld/workspace/AIoT/src/LiteOS_Lab/iot_link/network/dtls/mbedtls/mbedtls-2.16.2/library\x509_crt.c **** 
1303:C:/Users/dtjld/workspace/AIoT/src/LiteOS_Lab/iot_link/network/dtls/mbedtls/mbedtls-2.16.2/library\x509_crt.c ****     len = MAX_PATH - len;
1304:C:/Users/dtjld/workspace/AIoT/src/LiteOS_Lab/iot_link/network/dtls/mbedtls/mbedtls-2.16.2/library\x509_crt.c ****     do
1305:C:/Users/dtjld/workspace/AIoT/src/LiteOS_Lab/iot_link/network/dtls/mbedtls/mbedtls-2.16.2/library\x509_crt.c ****     {
1306:C:/Users/dtjld/workspace/AIoT/src/LiteOS_Lab/iot_link/network/dtls/mbedtls/mbedtls-2.16.2/library\x509_crt.c ****         memset( p, 0, len );
1307:C:/Users/dtjld/workspace/AIoT/src/LiteOS_Lab/iot_link/network/dtls/mbedtls/mbedtls-2.16.2/library\x509_crt.c **** 
1308:C:/Users/dtjld/workspace/AIoT/src/LiteOS_Lab/iot_link/network/dtls/mbedtls/mbedtls-2.16.2/library\x509_crt.c ****         if( file_data.dwFileAttributes & FILE_ATTRIBUTE_DIRECTORY )
1309:C:/Users/dtjld/workspace/AIoT/src/LiteOS_Lab/iot_link/network/dtls/mbedtls/mbedtls-2.16.2/library\x509_crt.c ****             continue;
1310:C:/Users/dtjld/workspace/AIoT/src/LiteOS_Lab/iot_link/network/dtls/mbedtls/mbedtls-2.16.2/library\x509_crt.c **** 
1311:C:/Users/dtjld/workspace/AIoT/src/LiteOS_Lab/iot_link/network/dtls/mbedtls/mbedtls-2.16.2/library\x509_crt.c ****         w_ret = WideCharToMultiByte( CP_ACP, 0, file_data.cFileName,
1312:C:/Users/dtjld/workspace/AIoT/src/LiteOS_Lab/iot_link/network/dtls/mbedtls/mbedtls-2.16.2/library\x509_crt.c ****                                      lstrlenW( file_data.cFileName ),
1313:C:/Users/dtjld/workspace/AIoT/src/LiteOS_Lab/iot_link/network/dtls/mbedtls/mbedtls-2.16.2/library\x509_crt.c ****                                      p, (int) len - 1,
1314:C:/Users/dtjld/workspace/AIoT/src/LiteOS_Lab/iot_link/network/dtls/mbedtls/mbedtls-2.16.2/library\x509_crt.c ****                                      NULL, NULL );
1315:C:/Users/dtjld/workspace/AIoT/src/LiteOS_Lab/iot_link/network/dtls/mbedtls/mbedtls-2.16.2/library\x509_crt.c ****         if( w_ret == 0 )
1316:C:/Users/dtjld/workspace/AIoT/src/LiteOS_Lab/iot_link/network/dtls/mbedtls/mbedtls-2.16.2/library\x509_crt.c ****         {
1317:C:/Users/dtjld/workspace/AIoT/src/LiteOS_Lab/iot_link/network/dtls/mbedtls/mbedtls-2.16.2/library\x509_crt.c ****             ret = MBEDTLS_ERR_X509_FILE_IO_ERROR;
1318:C:/Users/dtjld/workspace/AIoT/src/LiteOS_Lab/iot_link/network/dtls/mbedtls/mbedtls-2.16.2/library\x509_crt.c ****             goto cleanup;
1319:C:/Users/dtjld/workspace/AIoT/src/LiteOS_Lab/iot_link/network/dtls/mbedtls/mbedtls-2.16.2/library\x509_crt.c ****         }
1320:C:/Users/dtjld/workspace/AIoT/src/LiteOS_Lab/iot_link/network/dtls/mbedtls/mbedtls-2.16.2/library\x509_crt.c **** 
1321:C:/Users/dtjld/workspace/AIoT/src/LiteOS_Lab/iot_link/network/dtls/mbedtls/mbedtls-2.16.2/library\x509_crt.c ****         w_ret = mbedtls_x509_crt_parse_file( chain, filename );
1322:C:/Users/dtjld/workspace/AIoT/src/LiteOS_Lab/iot_link/network/dtls/mbedtls/mbedtls-2.16.2/library\x509_crt.c ****         if( w_ret < 0 )
1323:C:/Users/dtjld/workspace/AIoT/src/LiteOS_Lab/iot_link/network/dtls/mbedtls/mbedtls-2.16.2/library\x509_crt.c ****             ret++;
1324:C:/Users/dtjld/workspace/AIoT/src/LiteOS_Lab/iot_link/network/dtls/mbedtls/mbedtls-2.16.2/library\x509_crt.c ****         else
1325:C:/Users/dtjld/workspace/AIoT/src/LiteOS_Lab/iot_link/network/dtls/mbedtls/mbedtls-2.16.2/library\x509_crt.c ****             ret += w_ret;
1326:C:/Users/dtjld/workspace/AIoT/src/LiteOS_Lab/iot_link/network/dtls/mbedtls/mbedtls-2.16.2/library\x509_crt.c ****     }
1327:C:/Users/dtjld/workspace/AIoT/src/LiteOS_Lab/iot_link/network/dtls/mbedtls/mbedtls-2.16.2/library\x509_crt.c ****     while( FindNextFileW( hFind, &file_data ) != 0 );
1328:C:/Users/dtjld/workspace/AIoT/src/LiteOS_Lab/iot_link/network/dtls/mbedtls/mbedtls-2.16.2/library\x509_crt.c **** 
1329:C:/Users/dtjld/workspace/AIoT/src/LiteOS_Lab/iot_link/network/dtls/mbedtls/mbedtls-2.16.2/library\x509_crt.c ****     if( GetLastError() != ERROR_NO_MORE_FILES )
1330:C:/Users/dtjld/workspace/AIoT/src/LiteOS_Lab/iot_link/network/dtls/mbedtls/mbedtls-2.16.2/library\x509_crt.c ****         ret = MBEDTLS_ERR_X509_FILE_IO_ERROR;
1331:C:/Users/dtjld/workspace/AIoT/src/LiteOS_Lab/iot_link/network/dtls/mbedtls/mbedtls-2.16.2/library\x509_crt.c **** 
1332:C:/Users/dtjld/workspace/AIoT/src/LiteOS_Lab/iot_link/network/dtls/mbedtls/mbedtls-2.16.2/library\x509_crt.c **** cleanup:
1333:C:/Users/dtjld/workspace/AIoT/src/LiteOS_Lab/iot_link/network/dtls/mbedtls/mbedtls-2.16.2/library\x509_crt.c ****     FindClose( hFind );
1334:C:/Users/dtjld/workspace/AIoT/src/LiteOS_Lab/iot_link/network/dtls/mbedtls/mbedtls-2.16.2/library\x509_crt.c **** #else /* _WIN32 */
1335:C:/Users/dtjld/workspace/AIoT/src/LiteOS_Lab/iot_link/network/dtls/mbedtls/mbedtls-2.16.2/library\x509_crt.c ****     int t_ret;
1336:C:/Users/dtjld/workspace/AIoT/src/LiteOS_Lab/iot_link/network/dtls/mbedtls/mbedtls-2.16.2/library\x509_crt.c ****     int snp_ret;
1337:C:/Users/dtjld/workspace/AIoT/src/LiteOS_Lab/iot_link/network/dtls/mbedtls/mbedtls-2.16.2/library\x509_crt.c ****     struct stat sb;
1338:C:/Users/dtjld/workspace/AIoT/src/LiteOS_Lab/iot_link/network/dtls/mbedtls/mbedtls-2.16.2/library\x509_crt.c ****     struct dirent *entry;
1339:C:/Users/dtjld/workspace/AIoT/src/LiteOS_Lab/iot_link/network/dtls/mbedtls/mbedtls-2.16.2/library\x509_crt.c ****     char entry_name[MBEDTLS_X509_MAX_FILE_PATH_LEN];
1340:C:/Users/dtjld/workspace/AIoT/src/LiteOS_Lab/iot_link/network/dtls/mbedtls/mbedtls-2.16.2/library\x509_crt.c ****     DIR *dir = opendir( path );
1341:C:/Users/dtjld/workspace/AIoT/src/LiteOS_Lab/iot_link/network/dtls/mbedtls/mbedtls-2.16.2/library\x509_crt.c **** 
1342:C:/Users/dtjld/workspace/AIoT/src/LiteOS_Lab/iot_link/network/dtls/mbedtls/mbedtls-2.16.2/library\x509_crt.c ****     if( dir == NULL )
1343:C:/Users/dtjld/workspace/AIoT/src/LiteOS_Lab/iot_link/network/dtls/mbedtls/mbedtls-2.16.2/library\x509_crt.c ****         return( MBEDTLS_ERR_X509_FILE_IO_ERROR );
1344:C:/Users/dtjld/workspace/AIoT/src/LiteOS_Lab/iot_link/network/dtls/mbedtls/mbedtls-2.16.2/library\x509_crt.c **** 
1345:C:/Users/dtjld/workspace/AIoT/src/LiteOS_Lab/iot_link/network/dtls/mbedtls/mbedtls-2.16.2/library\x509_crt.c **** #if defined(MBEDTLS_THREADING_C)
1346:C:/Users/dtjld/workspace/AIoT/src/LiteOS_Lab/iot_link/network/dtls/mbedtls/mbedtls-2.16.2/library\x509_crt.c ****     if( ( ret = mbedtls_mutex_lock( &mbedtls_threading_readdir_mutex ) ) != 0 )
1347:C:/Users/dtjld/workspace/AIoT/src/LiteOS_Lab/iot_link/network/dtls/mbedtls/mbedtls-2.16.2/library\x509_crt.c ****     {
1348:C:/Users/dtjld/workspace/AIoT/src/LiteOS_Lab/iot_link/network/dtls/mbedtls/mbedtls-2.16.2/library\x509_crt.c ****         closedir( dir );
1349:C:/Users/dtjld/workspace/AIoT/src/LiteOS_Lab/iot_link/network/dtls/mbedtls/mbedtls-2.16.2/library\x509_crt.c ****         return( ret );
1350:C:/Users/dtjld/workspace/AIoT/src/LiteOS_Lab/iot_link/network/dtls/mbedtls/mbedtls-2.16.2/library\x509_crt.c ****     }
1351:C:/Users/dtjld/workspace/AIoT/src/LiteOS_Lab/iot_link/network/dtls/mbedtls/mbedtls-2.16.2/library\x509_crt.c **** #endif /* MBEDTLS_THREADING_C */
1352:C:/Users/dtjld/workspace/AIoT/src/LiteOS_Lab/iot_link/network/dtls/mbedtls/mbedtls-2.16.2/library\x509_crt.c **** 
1353:C:/Users/dtjld/workspace/AIoT/src/LiteOS_Lab/iot_link/network/dtls/mbedtls/mbedtls-2.16.2/library\x509_crt.c ****     while( ( entry = readdir( dir ) ) != NULL )
1354:C:/Users/dtjld/workspace/AIoT/src/LiteOS_Lab/iot_link/network/dtls/mbedtls/mbedtls-2.16.2/library\x509_crt.c ****     {
1355:C:/Users/dtjld/workspace/AIoT/src/LiteOS_Lab/iot_link/network/dtls/mbedtls/mbedtls-2.16.2/library\x509_crt.c ****         snp_ret = mbedtls_snprintf( entry_name, sizeof entry_name,
ARM GAS  C:\Users\dtjld\AppData\Local\Temp\ccTXdst3.s 			page 87


1356:C:/Users/dtjld/workspace/AIoT/src/LiteOS_Lab/iot_link/network/dtls/mbedtls/mbedtls-2.16.2/library\x509_crt.c ****                                     "%s/%s", path, entry->d_name );
1357:C:/Users/dtjld/workspace/AIoT/src/LiteOS_Lab/iot_link/network/dtls/mbedtls/mbedtls-2.16.2/library\x509_crt.c **** 
1358:C:/Users/dtjld/workspace/AIoT/src/LiteOS_Lab/iot_link/network/dtls/mbedtls/mbedtls-2.16.2/library\x509_crt.c ****         if( snp_ret < 0 || (size_t)snp_ret >= sizeof entry_name )
1359:C:/Users/dtjld/workspace/AIoT/src/LiteOS_Lab/iot_link/network/dtls/mbedtls/mbedtls-2.16.2/library\x509_crt.c ****         {
1360:C:/Users/dtjld/workspace/AIoT/src/LiteOS_Lab/iot_link/network/dtls/mbedtls/mbedtls-2.16.2/library\x509_crt.c ****             ret = MBEDTLS_ERR_X509_BUFFER_TOO_SMALL;
1361:C:/Users/dtjld/workspace/AIoT/src/LiteOS_Lab/iot_link/network/dtls/mbedtls/mbedtls-2.16.2/library\x509_crt.c ****             goto cleanup;
1362:C:/Users/dtjld/workspace/AIoT/src/LiteOS_Lab/iot_link/network/dtls/mbedtls/mbedtls-2.16.2/library\x509_crt.c ****         }
1363:C:/Users/dtjld/workspace/AIoT/src/LiteOS_Lab/iot_link/network/dtls/mbedtls/mbedtls-2.16.2/library\x509_crt.c ****         else if( stat( entry_name, &sb ) == -1 )
1364:C:/Users/dtjld/workspace/AIoT/src/LiteOS_Lab/iot_link/network/dtls/mbedtls/mbedtls-2.16.2/library\x509_crt.c ****         {
1365:C:/Users/dtjld/workspace/AIoT/src/LiteOS_Lab/iot_link/network/dtls/mbedtls/mbedtls-2.16.2/library\x509_crt.c ****             ret = MBEDTLS_ERR_X509_FILE_IO_ERROR;
1366:C:/Users/dtjld/workspace/AIoT/src/LiteOS_Lab/iot_link/network/dtls/mbedtls/mbedtls-2.16.2/library\x509_crt.c ****             goto cleanup;
1367:C:/Users/dtjld/workspace/AIoT/src/LiteOS_Lab/iot_link/network/dtls/mbedtls/mbedtls-2.16.2/library\x509_crt.c ****         }
1368:C:/Users/dtjld/workspace/AIoT/src/LiteOS_Lab/iot_link/network/dtls/mbedtls/mbedtls-2.16.2/library\x509_crt.c **** 
1369:C:/Users/dtjld/workspace/AIoT/src/LiteOS_Lab/iot_link/network/dtls/mbedtls/mbedtls-2.16.2/library\x509_crt.c ****         if( !S_ISREG( sb.st_mode ) )
1370:C:/Users/dtjld/workspace/AIoT/src/LiteOS_Lab/iot_link/network/dtls/mbedtls/mbedtls-2.16.2/library\x509_crt.c ****             continue;
1371:C:/Users/dtjld/workspace/AIoT/src/LiteOS_Lab/iot_link/network/dtls/mbedtls/mbedtls-2.16.2/library\x509_crt.c **** 
1372:C:/Users/dtjld/workspace/AIoT/src/LiteOS_Lab/iot_link/network/dtls/mbedtls/mbedtls-2.16.2/library\x509_crt.c ****         // Ignore parse errors
1373:C:/Users/dtjld/workspace/AIoT/src/LiteOS_Lab/iot_link/network/dtls/mbedtls/mbedtls-2.16.2/library\x509_crt.c ****         //
1374:C:/Users/dtjld/workspace/AIoT/src/LiteOS_Lab/iot_link/network/dtls/mbedtls/mbedtls-2.16.2/library\x509_crt.c ****         t_ret = mbedtls_x509_crt_parse_file( chain, entry_name );
1375:C:/Users/dtjld/workspace/AIoT/src/LiteOS_Lab/iot_link/network/dtls/mbedtls/mbedtls-2.16.2/library\x509_crt.c ****         if( t_ret < 0 )
1376:C:/Users/dtjld/workspace/AIoT/src/LiteOS_Lab/iot_link/network/dtls/mbedtls/mbedtls-2.16.2/library\x509_crt.c ****             ret++;
1377:C:/Users/dtjld/workspace/AIoT/src/LiteOS_Lab/iot_link/network/dtls/mbedtls/mbedtls-2.16.2/library\x509_crt.c ****         else
1378:C:/Users/dtjld/workspace/AIoT/src/LiteOS_Lab/iot_link/network/dtls/mbedtls/mbedtls-2.16.2/library\x509_crt.c ****             ret += t_ret;
1379:C:/Users/dtjld/workspace/AIoT/src/LiteOS_Lab/iot_link/network/dtls/mbedtls/mbedtls-2.16.2/library\x509_crt.c ****     }
1380:C:/Users/dtjld/workspace/AIoT/src/LiteOS_Lab/iot_link/network/dtls/mbedtls/mbedtls-2.16.2/library\x509_crt.c **** 
1381:C:/Users/dtjld/workspace/AIoT/src/LiteOS_Lab/iot_link/network/dtls/mbedtls/mbedtls-2.16.2/library\x509_crt.c **** cleanup:
1382:C:/Users/dtjld/workspace/AIoT/src/LiteOS_Lab/iot_link/network/dtls/mbedtls/mbedtls-2.16.2/library\x509_crt.c ****     closedir( dir );
1383:C:/Users/dtjld/workspace/AIoT/src/LiteOS_Lab/iot_link/network/dtls/mbedtls/mbedtls-2.16.2/library\x509_crt.c **** 
1384:C:/Users/dtjld/workspace/AIoT/src/LiteOS_Lab/iot_link/network/dtls/mbedtls/mbedtls-2.16.2/library\x509_crt.c **** #if defined(MBEDTLS_THREADING_C)
1385:C:/Users/dtjld/workspace/AIoT/src/LiteOS_Lab/iot_link/network/dtls/mbedtls/mbedtls-2.16.2/library\x509_crt.c ****     if( mbedtls_mutex_unlock( &mbedtls_threading_readdir_mutex ) != 0 )
1386:C:/Users/dtjld/workspace/AIoT/src/LiteOS_Lab/iot_link/network/dtls/mbedtls/mbedtls-2.16.2/library\x509_crt.c ****         ret = MBEDTLS_ERR_THREADING_MUTEX_ERROR;
1387:C:/Users/dtjld/workspace/AIoT/src/LiteOS_Lab/iot_link/network/dtls/mbedtls/mbedtls-2.16.2/library\x509_crt.c **** #endif /* MBEDTLS_THREADING_C */
1388:C:/Users/dtjld/workspace/AIoT/src/LiteOS_Lab/iot_link/network/dtls/mbedtls/mbedtls-2.16.2/library\x509_crt.c **** 
1389:C:/Users/dtjld/workspace/AIoT/src/LiteOS_Lab/iot_link/network/dtls/mbedtls/mbedtls-2.16.2/library\x509_crt.c **** #endif /* _WIN32 */
1390:C:/Users/dtjld/workspace/AIoT/src/LiteOS_Lab/iot_link/network/dtls/mbedtls/mbedtls-2.16.2/library\x509_crt.c **** 
1391:C:/Users/dtjld/workspace/AIoT/src/LiteOS_Lab/iot_link/network/dtls/mbedtls/mbedtls-2.16.2/library\x509_crt.c ****     return( ret );
1392:C:/Users/dtjld/workspace/AIoT/src/LiteOS_Lab/iot_link/network/dtls/mbedtls/mbedtls-2.16.2/library\x509_crt.c **** }
1393:C:/Users/dtjld/workspace/AIoT/src/LiteOS_Lab/iot_link/network/dtls/mbedtls/mbedtls-2.16.2/library\x509_crt.c **** #endif /* MBEDTLS_FS_IO */
1394:C:/Users/dtjld/workspace/AIoT/src/LiteOS_Lab/iot_link/network/dtls/mbedtls/mbedtls-2.16.2/library\x509_crt.c **** 
1395:C:/Users/dtjld/workspace/AIoT/src/LiteOS_Lab/iot_link/network/dtls/mbedtls/mbedtls-2.16.2/library\x509_crt.c **** static int x509_info_subject_alt_name( char **buf, size_t *size,
1396:C:/Users/dtjld/workspace/AIoT/src/LiteOS_Lab/iot_link/network/dtls/mbedtls/mbedtls-2.16.2/library\x509_crt.c ****                                        const mbedtls_x509_sequence *subject_alt_name )
1397:C:/Users/dtjld/workspace/AIoT/src/LiteOS_Lab/iot_link/network/dtls/mbedtls/mbedtls-2.16.2/library\x509_crt.c **** {
 3365              		.loc 2 1397 0
 3366              		.cfi_startproc
 3367              		@ args = 0, pretend = 0, frame = 40
 3368              		@ frame_needed = 1, uses_anonymous_args = 0
 3369              		@ link register save eliminated.
 3370 0000 80B4     		push	{r7}
 3371              	.LCFI110:
 3372              		.cfi_def_cfa_offset 4
 3373              		.cfi_offset 7, -4
 3374 0002 8BB0     		sub	sp, sp, #44
 3375              	.LCFI111:
 3376              		.cfi_def_cfa_offset 48
 3377 0004 00AF     		add	r7, sp, #0
 3378              	.LCFI112:
 3379              		.cfi_def_cfa_register 7
ARM GAS  C:\Users\dtjld\AppData\Local\Temp\ccTXdst3.s 			page 88


 3380 0006 F860     		str	r0, [r7, #12]
 3381 0008 B960     		str	r1, [r7, #8]
 3382 000a 7A60     		str	r2, [r7, #4]
1398:C:/Users/dtjld/workspace/AIoT/src/LiteOS_Lab/iot_link/network/dtls/mbedtls/mbedtls-2.16.2/library\x509_crt.c ****     size_t i;
1399:C:/Users/dtjld/workspace/AIoT/src/LiteOS_Lab/iot_link/network/dtls/mbedtls/mbedtls-2.16.2/library\x509_crt.c ****     size_t n = *size;
 3383              		.loc 2 1399 0
 3384 000c BB68     		ldr	r3, [r7, #8]
 3385 000e 1B68     		ldr	r3, [r3]
 3386 0010 3B62     		str	r3, [r7, #32]
1400:C:/Users/dtjld/workspace/AIoT/src/LiteOS_Lab/iot_link/network/dtls/mbedtls/mbedtls-2.16.2/library\x509_crt.c ****     char *p = *buf;
 3387              		.loc 2 1400 0
 3388 0012 FB68     		ldr	r3, [r7, #12]
 3389 0014 1B68     		ldr	r3, [r3]
 3390 0016 FB61     		str	r3, [r7, #28]
1401:C:/Users/dtjld/workspace/AIoT/src/LiteOS_Lab/iot_link/network/dtls/mbedtls/mbedtls-2.16.2/library\x509_crt.c ****     const mbedtls_x509_sequence *cur = subject_alt_name;
 3391              		.loc 2 1401 0
 3392 0018 7B68     		ldr	r3, [r7, #4]
 3393 001a BB61     		str	r3, [r7, #24]
1402:C:/Users/dtjld/workspace/AIoT/src/LiteOS_Lab/iot_link/network/dtls/mbedtls/mbedtls-2.16.2/library\x509_crt.c ****     const char *sep = "";
 3394              		.loc 2 1402 0
 3395 001c 2B4B     		ldr	r3, .L257
 3396 001e 7B61     		str	r3, [r7, #20]
1403:C:/Users/dtjld/workspace/AIoT/src/LiteOS_Lab/iot_link/network/dtls/mbedtls/mbedtls-2.16.2/library\x509_crt.c ****     size_t sep_len = 0;
 3397              		.loc 2 1403 0
 3398 0020 0023     		movs	r3, #0
 3399 0022 3B61     		str	r3, [r7, #16]
1404:C:/Users/dtjld/workspace/AIoT/src/LiteOS_Lab/iot_link/network/dtls/mbedtls/mbedtls-2.16.2/library\x509_crt.c **** 
1405:C:/Users/dtjld/workspace/AIoT/src/LiteOS_Lab/iot_link/network/dtls/mbedtls/mbedtls-2.16.2/library\x509_crt.c ****     while( cur != NULL )
 3400              		.loc 2 1405 0
 3401 0024 3FE0     		b	.L249
 3402              	.L256:
1406:C:/Users/dtjld/workspace/AIoT/src/LiteOS_Lab/iot_link/network/dtls/mbedtls/mbedtls-2.16.2/library\x509_crt.c ****     {
1407:C:/Users/dtjld/workspace/AIoT/src/LiteOS_Lab/iot_link/network/dtls/mbedtls/mbedtls-2.16.2/library\x509_crt.c ****         if( cur->buf.len + sep_len >= n )
 3403              		.loc 2 1407 0
 3404 0026 BB69     		ldr	r3, [r7, #24]
 3405 0028 5A68     		ldr	r2, [r3, #4]
 3406 002a 3B69     		ldr	r3, [r7, #16]
 3407 002c 1344     		add	r3, r3, r2
 3408 002e 3A6A     		ldr	r2, [r7, #32]
 3409 0030 9A42     		cmp	r2, r3
 3410 0032 04D8     		bhi	.L250
1408:C:/Users/dtjld/workspace/AIoT/src/LiteOS_Lab/iot_link/network/dtls/mbedtls/mbedtls-2.16.2/library\x509_crt.c ****         {
1409:C:/Users/dtjld/workspace/AIoT/src/LiteOS_Lab/iot_link/network/dtls/mbedtls/mbedtls-2.16.2/library\x509_crt.c ****             *p = '\0';
 3411              		.loc 2 1409 0
 3412 0034 FB69     		ldr	r3, [r7, #28]
 3413 0036 0022     		movs	r2, #0
 3414 0038 1A70     		strb	r2, [r3]
1410:C:/Users/dtjld/workspace/AIoT/src/LiteOS_Lab/iot_link/network/dtls/mbedtls/mbedtls-2.16.2/library\x509_crt.c ****             return( MBEDTLS_ERR_X509_BUFFER_TOO_SMALL );
 3415              		.loc 2 1410 0
 3416 003a 254B     		ldr	r3, .L257+4
 3417 003c 40E0     		b	.L251
 3418              	.L250:
1411:C:/Users/dtjld/workspace/AIoT/src/LiteOS_Lab/iot_link/network/dtls/mbedtls/mbedtls-2.16.2/library\x509_crt.c ****         }
1412:C:/Users/dtjld/workspace/AIoT/src/LiteOS_Lab/iot_link/network/dtls/mbedtls/mbedtls-2.16.2/library\x509_crt.c **** 
1413:C:/Users/dtjld/workspace/AIoT/src/LiteOS_Lab/iot_link/network/dtls/mbedtls/mbedtls-2.16.2/library\x509_crt.c ****         n -= cur->buf.len + sep_len;
 3419              		.loc 2 1413 0
 3420 003e BB69     		ldr	r3, [r7, #24]
ARM GAS  C:\Users\dtjld\AppData\Local\Temp\ccTXdst3.s 			page 89


 3421 0040 5A68     		ldr	r2, [r3, #4]
 3422 0042 3B69     		ldr	r3, [r7, #16]
 3423 0044 1344     		add	r3, r3, r2
 3424 0046 3A6A     		ldr	r2, [r7, #32]
 3425 0048 D31A     		subs	r3, r2, r3
 3426 004a 3B62     		str	r3, [r7, #32]
1414:C:/Users/dtjld/workspace/AIoT/src/LiteOS_Lab/iot_link/network/dtls/mbedtls/mbedtls-2.16.2/library\x509_crt.c ****         for( i = 0; i < sep_len; i++ )
 3427              		.loc 2 1414 0
 3428 004c 0023     		movs	r3, #0
 3429 004e 7B62     		str	r3, [r7, #36]
 3430 0050 0AE0     		b	.L252
 3431              	.L253:
1415:C:/Users/dtjld/workspace/AIoT/src/LiteOS_Lab/iot_link/network/dtls/mbedtls/mbedtls-2.16.2/library\x509_crt.c ****             *p++ = sep[i];
 3432              		.loc 2 1415 0 discriminator 3
 3433 0052 7A69     		ldr	r2, [r7, #20]
 3434 0054 7B6A     		ldr	r3, [r7, #36]
 3435 0056 1A44     		add	r2, r2, r3
 3436 0058 FB69     		ldr	r3, [r7, #28]
 3437 005a 591C     		adds	r1, r3, #1
 3438 005c F961     		str	r1, [r7, #28]
 3439 005e 1278     		ldrb	r2, [r2]	@ zero_extendqisi2
 3440 0060 1A70     		strb	r2, [r3]
1414:C:/Users/dtjld/workspace/AIoT/src/LiteOS_Lab/iot_link/network/dtls/mbedtls/mbedtls-2.16.2/library\x509_crt.c ****         for( i = 0; i < sep_len; i++ )
 3441              		.loc 2 1414 0 discriminator 3
 3442 0062 7B6A     		ldr	r3, [r7, #36]
 3443 0064 0133     		adds	r3, r3, #1
 3444 0066 7B62     		str	r3, [r7, #36]
 3445              	.L252:
1414:C:/Users/dtjld/workspace/AIoT/src/LiteOS_Lab/iot_link/network/dtls/mbedtls/mbedtls-2.16.2/library\x509_crt.c ****         for( i = 0; i < sep_len; i++ )
 3446              		.loc 2 1414 0 is_stmt 0 discriminator 1
 3447 0068 7A6A     		ldr	r2, [r7, #36]
 3448 006a 3B69     		ldr	r3, [r7, #16]
 3449 006c 9A42     		cmp	r2, r3
 3450 006e F0D3     		bcc	.L253
1416:C:/Users/dtjld/workspace/AIoT/src/LiteOS_Lab/iot_link/network/dtls/mbedtls/mbedtls-2.16.2/library\x509_crt.c ****         for( i = 0; i < cur->buf.len; i++ )
 3451              		.loc 2 1416 0 is_stmt 1
 3452 0070 0023     		movs	r3, #0
 3453 0072 7B62     		str	r3, [r7, #36]
 3454 0074 0BE0     		b	.L254
 3455              	.L255:
1417:C:/Users/dtjld/workspace/AIoT/src/LiteOS_Lab/iot_link/network/dtls/mbedtls/mbedtls-2.16.2/library\x509_crt.c ****             *p++ = cur->buf.p[i];
 3456              		.loc 2 1417 0 discriminator 3
 3457 0076 BB69     		ldr	r3, [r7, #24]
 3458 0078 9A68     		ldr	r2, [r3, #8]
 3459 007a 7B6A     		ldr	r3, [r7, #36]
 3460 007c 1A44     		add	r2, r2, r3
 3461 007e FB69     		ldr	r3, [r7, #28]
 3462 0080 591C     		adds	r1, r3, #1
 3463 0082 F961     		str	r1, [r7, #28]
 3464 0084 1278     		ldrb	r2, [r2]	@ zero_extendqisi2
 3465 0086 1A70     		strb	r2, [r3]
1416:C:/Users/dtjld/workspace/AIoT/src/LiteOS_Lab/iot_link/network/dtls/mbedtls/mbedtls-2.16.2/library\x509_crt.c ****         for( i = 0; i < cur->buf.len; i++ )
 3466              		.loc 2 1416 0 discriminator 3
 3467 0088 7B6A     		ldr	r3, [r7, #36]
 3468 008a 0133     		adds	r3, r3, #1
 3469 008c 7B62     		str	r3, [r7, #36]
 3470              	.L254:
ARM GAS  C:\Users\dtjld\AppData\Local\Temp\ccTXdst3.s 			page 90


1416:C:/Users/dtjld/workspace/AIoT/src/LiteOS_Lab/iot_link/network/dtls/mbedtls/mbedtls-2.16.2/library\x509_crt.c ****         for( i = 0; i < cur->buf.len; i++ )
 3471              		.loc 2 1416 0 is_stmt 0 discriminator 1
 3472 008e BB69     		ldr	r3, [r7, #24]
 3473 0090 5B68     		ldr	r3, [r3, #4]
 3474 0092 7A6A     		ldr	r2, [r7, #36]
 3475 0094 9A42     		cmp	r2, r3
 3476 0096 EED3     		bcc	.L255
1418:C:/Users/dtjld/workspace/AIoT/src/LiteOS_Lab/iot_link/network/dtls/mbedtls/mbedtls-2.16.2/library\x509_crt.c **** 
1419:C:/Users/dtjld/workspace/AIoT/src/LiteOS_Lab/iot_link/network/dtls/mbedtls/mbedtls-2.16.2/library\x509_crt.c ****         sep = ", ";
 3477              		.loc 2 1419 0 is_stmt 1
 3478 0098 0E4B     		ldr	r3, .L257+8
 3479 009a 7B61     		str	r3, [r7, #20]
1420:C:/Users/dtjld/workspace/AIoT/src/LiteOS_Lab/iot_link/network/dtls/mbedtls/mbedtls-2.16.2/library\x509_crt.c ****         sep_len = 2;
 3480              		.loc 2 1420 0
 3481 009c 0223     		movs	r3, #2
 3482 009e 3B61     		str	r3, [r7, #16]
1421:C:/Users/dtjld/workspace/AIoT/src/LiteOS_Lab/iot_link/network/dtls/mbedtls/mbedtls-2.16.2/library\x509_crt.c **** 
1422:C:/Users/dtjld/workspace/AIoT/src/LiteOS_Lab/iot_link/network/dtls/mbedtls/mbedtls-2.16.2/library\x509_crt.c ****         cur = cur->next;
 3483              		.loc 2 1422 0
 3484 00a0 BB69     		ldr	r3, [r7, #24]
 3485 00a2 DB68     		ldr	r3, [r3, #12]
 3486 00a4 BB61     		str	r3, [r7, #24]
 3487              	.L249:
1405:C:/Users/dtjld/workspace/AIoT/src/LiteOS_Lab/iot_link/network/dtls/mbedtls/mbedtls-2.16.2/library\x509_crt.c ****     {
 3488              		.loc 2 1405 0
 3489 00a6 BB69     		ldr	r3, [r7, #24]
 3490 00a8 002B     		cmp	r3, #0
 3491 00aa BCD1     		bne	.L256
1423:C:/Users/dtjld/workspace/AIoT/src/LiteOS_Lab/iot_link/network/dtls/mbedtls/mbedtls-2.16.2/library\x509_crt.c ****     }
1424:C:/Users/dtjld/workspace/AIoT/src/LiteOS_Lab/iot_link/network/dtls/mbedtls/mbedtls-2.16.2/library\x509_crt.c **** 
1425:C:/Users/dtjld/workspace/AIoT/src/LiteOS_Lab/iot_link/network/dtls/mbedtls/mbedtls-2.16.2/library\x509_crt.c ****     *p = '\0';
 3492              		.loc 2 1425 0
 3493 00ac FB69     		ldr	r3, [r7, #28]
 3494 00ae 0022     		movs	r2, #0
 3495 00b0 1A70     		strb	r2, [r3]
1426:C:/Users/dtjld/workspace/AIoT/src/LiteOS_Lab/iot_link/network/dtls/mbedtls/mbedtls-2.16.2/library\x509_crt.c **** 
1427:C:/Users/dtjld/workspace/AIoT/src/LiteOS_Lab/iot_link/network/dtls/mbedtls/mbedtls-2.16.2/library\x509_crt.c ****     *size = n;
 3496              		.loc 2 1427 0
 3497 00b2 BB68     		ldr	r3, [r7, #8]
 3498 00b4 3A6A     		ldr	r2, [r7, #32]
 3499 00b6 1A60     		str	r2, [r3]
1428:C:/Users/dtjld/workspace/AIoT/src/LiteOS_Lab/iot_link/network/dtls/mbedtls/mbedtls-2.16.2/library\x509_crt.c ****     *buf = p;
 3500              		.loc 2 1428 0
 3501 00b8 FB68     		ldr	r3, [r7, #12]
 3502 00ba FA69     		ldr	r2, [r7, #28]
 3503 00bc 1A60     		str	r2, [r3]
1429:C:/Users/dtjld/workspace/AIoT/src/LiteOS_Lab/iot_link/network/dtls/mbedtls/mbedtls-2.16.2/library\x509_crt.c **** 
1430:C:/Users/dtjld/workspace/AIoT/src/LiteOS_Lab/iot_link/network/dtls/mbedtls/mbedtls-2.16.2/library\x509_crt.c ****     return( 0 );
 3504              		.loc 2 1430 0
 3505 00be 0023     		movs	r3, #0
 3506              	.L251:
1431:C:/Users/dtjld/workspace/AIoT/src/LiteOS_Lab/iot_link/network/dtls/mbedtls/mbedtls-2.16.2/library\x509_crt.c **** }
 3507              		.loc 2 1431 0
 3508 00c0 1846     		mov	r0, r3
 3509 00c2 2C37     		adds	r7, r7, #44
 3510              	.LCFI113:
 3511              		.cfi_def_cfa_offset 4
ARM GAS  C:\Users\dtjld\AppData\Local\Temp\ccTXdst3.s 			page 91


 3512 00c4 BD46     		mov	sp, r7
 3513              	.LCFI114:
 3514              		.cfi_def_cfa_register 13
 3515              		@ sp needed
 3516 00c6 5DF8047B 		ldr	r7, [sp], #4
 3517              	.LCFI115:
 3518              		.cfi_restore 7
 3519              		.cfi_def_cfa_offset 0
 3520 00ca 7047     		bx	lr
 3521              	.L258:
 3522              		.align	2
 3523              	.L257:
 3524 00cc 38000000 		.word	.LC2
 3525 00d0 80D6FFFF 		.word	-10624
 3526 00d4 3C000000 		.word	.LC3
 3527              		.cfi_endproc
 3528              	.LFE33:
 3530              		.section	.rodata
 3531 003f 00       		.align	2
 3532              	.LC4:
 3533 0040 25735353 		.ascii	"%sSSL Client\000"
 3533      4C20436C 
 3533      69656E74 
 3533      00
 3534 004d 000000   		.align	2
 3535              	.LC5:
 3536 0050 25735353 		.ascii	"%sSSL Server\000"
 3536      4C205365 
 3536      72766572 
 3536      00
 3537 005d 000000   		.align	2
 3538              	.LC6:
 3539 0060 2573456D 		.ascii	"%sEmail\000"
 3539      61696C00 
 3540              		.align	2
 3541              	.LC7:
 3542 0068 25734F62 		.ascii	"%sObject Signing\000"
 3542      6A656374 
 3542      20536967 
 3542      6E696E67 
 3542      00
 3543 0079 000000   		.align	2
 3544              	.LC8:
 3545 007c 25735265 		.ascii	"%sReserved\000"
 3545      73657276 
 3545      656400
 3546 0087 00       		.align	2
 3547              	.LC9:
 3548 0088 25735353 		.ascii	"%sSSL CA\000"
 3548      4C204341 
 3548      00
 3549 0091 000000   		.align	2
 3550              	.LC10:
 3551 0094 2573456D 		.ascii	"%sEmail CA\000"
 3551      61696C20 
 3551      434100
 3552 009f 00       		.align	2
ARM GAS  C:\Users\dtjld\AppData\Local\Temp\ccTXdst3.s 			page 92


 3553              	.LC11:
 3554 00a0 25734F62 		.ascii	"%sObject Signing CA\000"
 3554      6A656374 
 3554      20536967 
 3554      6E696E67 
 3554      20434100 
 3555              		.section	.text.x509_info_cert_type,"ax",%progbits
 3556              		.align	1
 3557              		.syntax unified
 3558              		.thumb
 3559              		.thumb_func
 3560              		.fpu fpv4-sp-d16
 3562              	x509_info_cert_type:
 3563              	.LFB34:
1432:C:/Users/dtjld/workspace/AIoT/src/LiteOS_Lab/iot_link/network/dtls/mbedtls/mbedtls-2.16.2/library\x509_crt.c **** 
1433:C:/Users/dtjld/workspace/AIoT/src/LiteOS_Lab/iot_link/network/dtls/mbedtls/mbedtls-2.16.2/library\x509_crt.c **** #define PRINT_ITEM(i)                           \
1434:C:/Users/dtjld/workspace/AIoT/src/LiteOS_Lab/iot_link/network/dtls/mbedtls/mbedtls-2.16.2/library\x509_crt.c ****     {                                           \
1435:C:/Users/dtjld/workspace/AIoT/src/LiteOS_Lab/iot_link/network/dtls/mbedtls/mbedtls-2.16.2/library\x509_crt.c ****         ret = mbedtls_snprintf( p, n, "%s" i, sep );    \
1436:C:/Users/dtjld/workspace/AIoT/src/LiteOS_Lab/iot_link/network/dtls/mbedtls/mbedtls-2.16.2/library\x509_crt.c ****         MBEDTLS_X509_SAFE_SNPRINTF;                        \
1437:C:/Users/dtjld/workspace/AIoT/src/LiteOS_Lab/iot_link/network/dtls/mbedtls/mbedtls-2.16.2/library\x509_crt.c ****         sep = ", ";                             \
1438:C:/Users/dtjld/workspace/AIoT/src/LiteOS_Lab/iot_link/network/dtls/mbedtls/mbedtls-2.16.2/library\x509_crt.c ****     }
1439:C:/Users/dtjld/workspace/AIoT/src/LiteOS_Lab/iot_link/network/dtls/mbedtls/mbedtls-2.16.2/library\x509_crt.c **** 
1440:C:/Users/dtjld/workspace/AIoT/src/LiteOS_Lab/iot_link/network/dtls/mbedtls/mbedtls-2.16.2/library\x509_crt.c **** #define CERT_TYPE(type,name)                    \
1441:C:/Users/dtjld/workspace/AIoT/src/LiteOS_Lab/iot_link/network/dtls/mbedtls/mbedtls-2.16.2/library\x509_crt.c ****     if( ns_cert_type & (type) )                 \
1442:C:/Users/dtjld/workspace/AIoT/src/LiteOS_Lab/iot_link/network/dtls/mbedtls/mbedtls-2.16.2/library\x509_crt.c ****         PRINT_ITEM( name );
1443:C:/Users/dtjld/workspace/AIoT/src/LiteOS_Lab/iot_link/network/dtls/mbedtls/mbedtls-2.16.2/library\x509_crt.c **** 
1444:C:/Users/dtjld/workspace/AIoT/src/LiteOS_Lab/iot_link/network/dtls/mbedtls/mbedtls-2.16.2/library\x509_crt.c **** static int x509_info_cert_type( char **buf, size_t *size,
1445:C:/Users/dtjld/workspace/AIoT/src/LiteOS_Lab/iot_link/network/dtls/mbedtls/mbedtls-2.16.2/library\x509_crt.c ****                                 unsigned char ns_cert_type )
1446:C:/Users/dtjld/workspace/AIoT/src/LiteOS_Lab/iot_link/network/dtls/mbedtls/mbedtls-2.16.2/library\x509_crt.c **** {
 3564              		.loc 2 1446 0
 3565              		.cfi_startproc
 3566              		@ args = 0, pretend = 0, frame = 32
 3567              		@ frame_needed = 1, uses_anonymous_args = 0
 3568 0000 90B5     		push	{r4, r7, lr}
 3569              	.LCFI116:
 3570              		.cfi_def_cfa_offset 12
 3571              		.cfi_offset 4, -12
 3572              		.cfi_offset 7, -8
 3573              		.cfi_offset 14, -4
 3574 0002 89B0     		sub	sp, sp, #36
 3575              	.LCFI117:
 3576              		.cfi_def_cfa_offset 48
 3577 0004 00AF     		add	r7, sp, #0
 3578              	.LCFI118:
 3579              		.cfi_def_cfa_register 7
 3580 0006 F860     		str	r0, [r7, #12]
 3581 0008 B960     		str	r1, [r7, #8]
 3582 000a 1346     		mov	r3, r2
 3583 000c FB71     		strb	r3, [r7, #7]
1447:C:/Users/dtjld/workspace/AIoT/src/LiteOS_Lab/iot_link/network/dtls/mbedtls/mbedtls-2.16.2/library\x509_crt.c ****     int ret;
1448:C:/Users/dtjld/workspace/AIoT/src/LiteOS_Lab/iot_link/network/dtls/mbedtls/mbedtls-2.16.2/library\x509_crt.c ****     size_t n = *size;
 3584              		.loc 2 1448 0
 3585 000e BB68     		ldr	r3, [r7, #8]
 3586 0010 1B68     		ldr	r3, [r3]
 3587 0012 FB61     		str	r3, [r7, #28]
1449:C:/Users/dtjld/workspace/AIoT/src/LiteOS_Lab/iot_link/network/dtls/mbedtls/mbedtls-2.16.2/library\x509_crt.c ****     char *p = *buf;
 3588              		.loc 2 1449 0
ARM GAS  C:\Users\dtjld\AppData\Local\Temp\ccTXdst3.s 			page 93


 3589 0014 FB68     		ldr	r3, [r7, #12]
 3590 0016 1B68     		ldr	r3, [r3]
 3591 0018 BB61     		str	r3, [r7, #24]
1450:C:/Users/dtjld/workspace/AIoT/src/LiteOS_Lab/iot_link/network/dtls/mbedtls/mbedtls-2.16.2/library\x509_crt.c ****     const char *sep = "";
 3592              		.loc 2 1450 0
 3593 001a 864B     		ldr	r3, .L285
 3594 001c 7B61     		str	r3, [r7, #20]
1451:C:/Users/dtjld/workspace/AIoT/src/LiteOS_Lab/iot_link/network/dtls/mbedtls/mbedtls-2.16.2/library\x509_crt.c **** 
1452:C:/Users/dtjld/workspace/AIoT/src/LiteOS_Lab/iot_link/network/dtls/mbedtls/mbedtls-2.16.2/library\x509_crt.c ****     CERT_TYPE( MBEDTLS_X509_NS_CERT_TYPE_SSL_CLIENT,         "SSL Client" );
 3595              		.loc 2 1452 0
 3596 001e 97F90730 		ldrsb	r3, [r7, #7]
 3597 0022 002B     		cmp	r3, #0
 3598 0024 1ADA     		bge	.L260
 3599              		.loc 2 1452 0 is_stmt 0 discriminator 1
 3600 0026 844B     		ldr	r3, .L285+4
 3601 0028 1C68     		ldr	r4, [r3]
 3602 002a 7B69     		ldr	r3, [r7, #20]
 3603 002c 834A     		ldr	r2, .L285+8
 3604 002e F969     		ldr	r1, [r7, #28]
 3605 0030 B869     		ldr	r0, [r7, #24]
 3606 0032 A047     		blx	r4
 3607              	.LVL0:
 3608 0034 3861     		str	r0, [r7, #16]
 3609 0036 3B69     		ldr	r3, [r7, #16]
 3610 0038 002B     		cmp	r3, #0
 3611 003a 03DB     		blt	.L261
 3612              		.loc 2 1452 0 discriminator 3
 3613 003c 3B69     		ldr	r3, [r7, #16]
 3614 003e FA69     		ldr	r2, [r7, #28]
 3615 0040 9A42     		cmp	r2, r3
 3616 0042 01D8     		bhi	.L262
 3617              	.L261:
 3618              		.loc 2 1452 0 discriminator 4
 3619 0044 7E4B     		ldr	r3, .L285+12
 3620 0046 F0E0     		b	.L263
 3621              	.L262:
 3622              		.loc 2 1452 0 discriminator 5
 3623 0048 3B69     		ldr	r3, [r7, #16]
 3624 004a FA69     		ldr	r2, [r7, #28]
 3625 004c D31A     		subs	r3, r2, r3
 3626 004e FB61     		str	r3, [r7, #28]
 3627 0050 3B69     		ldr	r3, [r7, #16]
 3628 0052 BA69     		ldr	r2, [r7, #24]
 3629 0054 1344     		add	r3, r3, r2
 3630 0056 BB61     		str	r3, [r7, #24]
 3631 0058 7A4B     		ldr	r3, .L285+16
 3632 005a 7B61     		str	r3, [r7, #20]
 3633              	.L260:
1453:C:/Users/dtjld/workspace/AIoT/src/LiteOS_Lab/iot_link/network/dtls/mbedtls/mbedtls-2.16.2/library\x509_crt.c ****     CERT_TYPE( MBEDTLS_X509_NS_CERT_TYPE_SSL_SERVER,         "SSL Server" );
 3634              		.loc 2 1453 0 is_stmt 1
 3635 005c FB79     		ldrb	r3, [r7, #7]	@ zero_extendqisi2
 3636 005e 03F04003 		and	r3, r3, #64
 3637 0062 002B     		cmp	r3, #0
 3638 0064 1AD0     		beq	.L264
 3639              		.loc 2 1453 0 is_stmt 0 discriminator 1
 3640 0066 744B     		ldr	r3, .L285+4
 3641 0068 1C68     		ldr	r4, [r3]
ARM GAS  C:\Users\dtjld\AppData\Local\Temp\ccTXdst3.s 			page 94


 3642 006a 7B69     		ldr	r3, [r7, #20]
 3643 006c 764A     		ldr	r2, .L285+20
 3644 006e F969     		ldr	r1, [r7, #28]
 3645 0070 B869     		ldr	r0, [r7, #24]
 3646 0072 A047     		blx	r4
 3647              	.LVL1:
 3648 0074 3861     		str	r0, [r7, #16]
 3649 0076 3B69     		ldr	r3, [r7, #16]
 3650 0078 002B     		cmp	r3, #0
 3651 007a 03DB     		blt	.L265
 3652              		.loc 2 1453 0 discriminator 3
 3653 007c 3B69     		ldr	r3, [r7, #16]
 3654 007e FA69     		ldr	r2, [r7, #28]
 3655 0080 9A42     		cmp	r2, r3
 3656 0082 01D8     		bhi	.L266
 3657              	.L265:
 3658              		.loc 2 1453 0 discriminator 4
 3659 0084 6E4B     		ldr	r3, .L285+12
 3660 0086 D0E0     		b	.L263
 3661              	.L266:
 3662              		.loc 2 1453 0 discriminator 5
 3663 0088 3B69     		ldr	r3, [r7, #16]
 3664 008a FA69     		ldr	r2, [r7, #28]
 3665 008c D31A     		subs	r3, r2, r3
 3666 008e FB61     		str	r3, [r7, #28]
 3667 0090 3B69     		ldr	r3, [r7, #16]
 3668 0092 BA69     		ldr	r2, [r7, #24]
 3669 0094 1344     		add	r3, r3, r2
 3670 0096 BB61     		str	r3, [r7, #24]
 3671 0098 6A4B     		ldr	r3, .L285+16
 3672 009a 7B61     		str	r3, [r7, #20]
 3673              	.L264:
1454:C:/Users/dtjld/workspace/AIoT/src/LiteOS_Lab/iot_link/network/dtls/mbedtls/mbedtls-2.16.2/library\x509_crt.c ****     CERT_TYPE( MBEDTLS_X509_NS_CERT_TYPE_EMAIL,              "Email" );
 3674              		.loc 2 1454 0 is_stmt 1
 3675 009c FB79     		ldrb	r3, [r7, #7]	@ zero_extendqisi2
 3676 009e 03F02003 		and	r3, r3, #32
 3677 00a2 002B     		cmp	r3, #0
 3678 00a4 1AD0     		beq	.L267
 3679              		.loc 2 1454 0 is_stmt 0 discriminator 1
 3680 00a6 644B     		ldr	r3, .L285+4
 3681 00a8 1C68     		ldr	r4, [r3]
 3682 00aa 7B69     		ldr	r3, [r7, #20]
 3683 00ac 674A     		ldr	r2, .L285+24
 3684 00ae F969     		ldr	r1, [r7, #28]
 3685 00b0 B869     		ldr	r0, [r7, #24]
 3686 00b2 A047     		blx	r4
 3687              	.LVL2:
 3688 00b4 3861     		str	r0, [r7, #16]
 3689 00b6 3B69     		ldr	r3, [r7, #16]
 3690 00b8 002B     		cmp	r3, #0
 3691 00ba 03DB     		blt	.L268
 3692              		.loc 2 1454 0 discriminator 3
 3693 00bc 3B69     		ldr	r3, [r7, #16]
 3694 00be FA69     		ldr	r2, [r7, #28]
 3695 00c0 9A42     		cmp	r2, r3
 3696 00c2 01D8     		bhi	.L269
 3697              	.L268:
ARM GAS  C:\Users\dtjld\AppData\Local\Temp\ccTXdst3.s 			page 95


 3698              		.loc 2 1454 0 discriminator 4
 3699 00c4 5E4B     		ldr	r3, .L285+12
 3700 00c6 B0E0     		b	.L263
 3701              	.L269:
 3702              		.loc 2 1454 0 discriminator 5
 3703 00c8 3B69     		ldr	r3, [r7, #16]
 3704 00ca FA69     		ldr	r2, [r7, #28]
 3705 00cc D31A     		subs	r3, r2, r3
 3706 00ce FB61     		str	r3, [r7, #28]
 3707 00d0 3B69     		ldr	r3, [r7, #16]
 3708 00d2 BA69     		ldr	r2, [r7, #24]
 3709 00d4 1344     		add	r3, r3, r2
 3710 00d6 BB61     		str	r3, [r7, #24]
 3711 00d8 5A4B     		ldr	r3, .L285+16
 3712 00da 7B61     		str	r3, [r7, #20]
 3713              	.L267:
1455:C:/Users/dtjld/workspace/AIoT/src/LiteOS_Lab/iot_link/network/dtls/mbedtls/mbedtls-2.16.2/library\x509_crt.c ****     CERT_TYPE( MBEDTLS_X509_NS_CERT_TYPE_OBJECT_SIGNING,     "Object Signing" );
 3714              		.loc 2 1455 0 is_stmt 1
 3715 00dc FB79     		ldrb	r3, [r7, #7]	@ zero_extendqisi2
 3716 00de 03F01003 		and	r3, r3, #16
 3717 00e2 002B     		cmp	r3, #0
 3718 00e4 1AD0     		beq	.L270
 3719              		.loc 2 1455 0 is_stmt 0 discriminator 1
 3720 00e6 544B     		ldr	r3, .L285+4
 3721 00e8 1C68     		ldr	r4, [r3]
 3722 00ea 7B69     		ldr	r3, [r7, #20]
 3723 00ec 584A     		ldr	r2, .L285+28
 3724 00ee F969     		ldr	r1, [r7, #28]
 3725 00f0 B869     		ldr	r0, [r7, #24]
 3726 00f2 A047     		blx	r4
 3727              	.LVL3:
 3728 00f4 3861     		str	r0, [r7, #16]
 3729 00f6 3B69     		ldr	r3, [r7, #16]
 3730 00f8 002B     		cmp	r3, #0
 3731 00fa 03DB     		blt	.L271
 3732              		.loc 2 1455 0 discriminator 3
 3733 00fc 3B69     		ldr	r3, [r7, #16]
 3734 00fe FA69     		ldr	r2, [r7, #28]
 3735 0100 9A42     		cmp	r2, r3
 3736 0102 01D8     		bhi	.L272
 3737              	.L271:
 3738              		.loc 2 1455 0 discriminator 4
 3739 0104 4E4B     		ldr	r3, .L285+12
 3740 0106 90E0     		b	.L263
 3741              	.L272:
 3742              		.loc 2 1455 0 discriminator 5
 3743 0108 3B69     		ldr	r3, [r7, #16]
 3744 010a FA69     		ldr	r2, [r7, #28]
 3745 010c D31A     		subs	r3, r2, r3
 3746 010e FB61     		str	r3, [r7, #28]
 3747 0110 3B69     		ldr	r3, [r7, #16]
 3748 0112 BA69     		ldr	r2, [r7, #24]
 3749 0114 1344     		add	r3, r3, r2
 3750 0116 BB61     		str	r3, [r7, #24]
 3751 0118 4A4B     		ldr	r3, .L285+16
 3752 011a 7B61     		str	r3, [r7, #20]
 3753              	.L270:
ARM GAS  C:\Users\dtjld\AppData\Local\Temp\ccTXdst3.s 			page 96


1456:C:/Users/dtjld/workspace/AIoT/src/LiteOS_Lab/iot_link/network/dtls/mbedtls/mbedtls-2.16.2/library\x509_crt.c ****     CERT_TYPE( MBEDTLS_X509_NS_CERT_TYPE_RESERVED,           "Reserved" );
 3754              		.loc 2 1456 0 is_stmt 1
 3755 011c FB79     		ldrb	r3, [r7, #7]	@ zero_extendqisi2
 3756 011e 03F00803 		and	r3, r3, #8
 3757 0122 002B     		cmp	r3, #0
 3758 0124 1AD0     		beq	.L273
 3759              		.loc 2 1456 0 is_stmt 0 discriminator 1
 3760 0126 444B     		ldr	r3, .L285+4
 3761 0128 1C68     		ldr	r4, [r3]
 3762 012a 7B69     		ldr	r3, [r7, #20]
 3763 012c 494A     		ldr	r2, .L285+32
 3764 012e F969     		ldr	r1, [r7, #28]
 3765 0130 B869     		ldr	r0, [r7, #24]
 3766 0132 A047     		blx	r4
 3767              	.LVL4:
 3768 0134 3861     		str	r0, [r7, #16]
 3769 0136 3B69     		ldr	r3, [r7, #16]
 3770 0138 002B     		cmp	r3, #0
 3771 013a 03DB     		blt	.L274
 3772              		.loc 2 1456 0 discriminator 3
 3773 013c 3B69     		ldr	r3, [r7, #16]
 3774 013e FA69     		ldr	r2, [r7, #28]
 3775 0140 9A42     		cmp	r2, r3
 3776 0142 01D8     		bhi	.L275
 3777              	.L274:
 3778              		.loc 2 1456 0 discriminator 4
 3779 0144 3E4B     		ldr	r3, .L285+12
 3780 0146 70E0     		b	.L263
 3781              	.L275:
 3782              		.loc 2 1456 0 discriminator 5
 3783 0148 3B69     		ldr	r3, [r7, #16]
 3784 014a FA69     		ldr	r2, [r7, #28]
 3785 014c D31A     		subs	r3, r2, r3
 3786 014e FB61     		str	r3, [r7, #28]
 3787 0150 3B69     		ldr	r3, [r7, #16]
 3788 0152 BA69     		ldr	r2, [r7, #24]
 3789 0154 1344     		add	r3, r3, r2
 3790 0156 BB61     		str	r3, [r7, #24]
 3791 0158 3A4B     		ldr	r3, .L285+16
 3792 015a 7B61     		str	r3, [r7, #20]
 3793              	.L273:
1457:C:/Users/dtjld/workspace/AIoT/src/LiteOS_Lab/iot_link/network/dtls/mbedtls/mbedtls-2.16.2/library\x509_crt.c ****     CERT_TYPE( MBEDTLS_X509_NS_CERT_TYPE_SSL_CA,             "SSL CA" );
 3794              		.loc 2 1457 0 is_stmt 1
 3795 015c FB79     		ldrb	r3, [r7, #7]	@ zero_extendqisi2
 3796 015e 03F00403 		and	r3, r3, #4
 3797 0162 002B     		cmp	r3, #0
 3798 0164 1AD0     		beq	.L276
 3799              		.loc 2 1457 0 is_stmt 0 discriminator 1
 3800 0166 344B     		ldr	r3, .L285+4
 3801 0168 1C68     		ldr	r4, [r3]
 3802 016a 7B69     		ldr	r3, [r7, #20]
 3803 016c 3A4A     		ldr	r2, .L285+36
 3804 016e F969     		ldr	r1, [r7, #28]
 3805 0170 B869     		ldr	r0, [r7, #24]
 3806 0172 A047     		blx	r4
 3807              	.LVL5:
 3808 0174 3861     		str	r0, [r7, #16]
ARM GAS  C:\Users\dtjld\AppData\Local\Temp\ccTXdst3.s 			page 97


 3809 0176 3B69     		ldr	r3, [r7, #16]
 3810 0178 002B     		cmp	r3, #0
 3811 017a 03DB     		blt	.L277
 3812              		.loc 2 1457 0 discriminator 3
 3813 017c 3B69     		ldr	r3, [r7, #16]
 3814 017e FA69     		ldr	r2, [r7, #28]
 3815 0180 9A42     		cmp	r2, r3
 3816 0182 01D8     		bhi	.L278
 3817              	.L277:
 3818              		.loc 2 1457 0 discriminator 4
 3819 0184 2E4B     		ldr	r3, .L285+12
 3820 0186 50E0     		b	.L263
 3821              	.L278:
 3822              		.loc 2 1457 0 discriminator 5
 3823 0188 3B69     		ldr	r3, [r7, #16]
 3824 018a FA69     		ldr	r2, [r7, #28]
 3825 018c D31A     		subs	r3, r2, r3
 3826 018e FB61     		str	r3, [r7, #28]
 3827 0190 3B69     		ldr	r3, [r7, #16]
 3828 0192 BA69     		ldr	r2, [r7, #24]
 3829 0194 1344     		add	r3, r3, r2
 3830 0196 BB61     		str	r3, [r7, #24]
 3831 0198 2A4B     		ldr	r3, .L285+16
 3832 019a 7B61     		str	r3, [r7, #20]
 3833              	.L276:
1458:C:/Users/dtjld/workspace/AIoT/src/LiteOS_Lab/iot_link/network/dtls/mbedtls/mbedtls-2.16.2/library\x509_crt.c ****     CERT_TYPE( MBEDTLS_X509_NS_CERT_TYPE_EMAIL_CA,           "Email CA" );
 3834              		.loc 2 1458 0 is_stmt 1
 3835 019c FB79     		ldrb	r3, [r7, #7]	@ zero_extendqisi2
 3836 019e 03F00203 		and	r3, r3, #2
 3837 01a2 002B     		cmp	r3, #0
 3838 01a4 1AD0     		beq	.L279
 3839              		.loc 2 1458 0 is_stmt 0 discriminator 1
 3840 01a6 244B     		ldr	r3, .L285+4
 3841 01a8 1C68     		ldr	r4, [r3]
 3842 01aa 7B69     		ldr	r3, [r7, #20]
 3843 01ac 2B4A     		ldr	r2, .L285+40
 3844 01ae F969     		ldr	r1, [r7, #28]
 3845 01b0 B869     		ldr	r0, [r7, #24]
 3846 01b2 A047     		blx	r4
 3847              	.LVL6:
 3848 01b4 3861     		str	r0, [r7, #16]
 3849 01b6 3B69     		ldr	r3, [r7, #16]
 3850 01b8 002B     		cmp	r3, #0
 3851 01ba 03DB     		blt	.L280
 3852              		.loc 2 1458 0 discriminator 3
 3853 01bc 3B69     		ldr	r3, [r7, #16]
 3854 01be FA69     		ldr	r2, [r7, #28]
 3855 01c0 9A42     		cmp	r2, r3
 3856 01c2 01D8     		bhi	.L281
 3857              	.L280:
 3858              		.loc 2 1458 0 discriminator 4
 3859 01c4 1E4B     		ldr	r3, .L285+12
 3860 01c6 30E0     		b	.L263
 3861              	.L281:
 3862              		.loc 2 1458 0 discriminator 5
 3863 01c8 3B69     		ldr	r3, [r7, #16]
 3864 01ca FA69     		ldr	r2, [r7, #28]
ARM GAS  C:\Users\dtjld\AppData\Local\Temp\ccTXdst3.s 			page 98


 3865 01cc D31A     		subs	r3, r2, r3
 3866 01ce FB61     		str	r3, [r7, #28]
 3867 01d0 3B69     		ldr	r3, [r7, #16]
 3868 01d2 BA69     		ldr	r2, [r7, #24]
 3869 01d4 1344     		add	r3, r3, r2
 3870 01d6 BB61     		str	r3, [r7, #24]
 3871 01d8 1A4B     		ldr	r3, .L285+16
 3872 01da 7B61     		str	r3, [r7, #20]
 3873              	.L279:
1459:C:/Users/dtjld/workspace/AIoT/src/LiteOS_Lab/iot_link/network/dtls/mbedtls/mbedtls-2.16.2/library\x509_crt.c ****     CERT_TYPE( MBEDTLS_X509_NS_CERT_TYPE_OBJECT_SIGNING_CA,  "Object Signing CA" );
 3874              		.loc 2 1459 0 is_stmt 1
 3875 01dc FB79     		ldrb	r3, [r7, #7]	@ zero_extendqisi2
 3876 01de 03F00103 		and	r3, r3, #1
 3877 01e2 002B     		cmp	r3, #0
 3878 01e4 1AD0     		beq	.L282
 3879              		.loc 2 1459 0 is_stmt 0 discriminator 1
 3880 01e6 144B     		ldr	r3, .L285+4
 3881 01e8 1C68     		ldr	r4, [r3]
 3882 01ea 7B69     		ldr	r3, [r7, #20]
 3883 01ec 1C4A     		ldr	r2, .L285+44
 3884 01ee F969     		ldr	r1, [r7, #28]
 3885 01f0 B869     		ldr	r0, [r7, #24]
 3886 01f2 A047     		blx	r4
 3887              	.LVL7:
 3888 01f4 3861     		str	r0, [r7, #16]
 3889 01f6 3B69     		ldr	r3, [r7, #16]
 3890 01f8 002B     		cmp	r3, #0
 3891 01fa 03DB     		blt	.L283
 3892              		.loc 2 1459 0 discriminator 3
 3893 01fc 3B69     		ldr	r3, [r7, #16]
 3894 01fe FA69     		ldr	r2, [r7, #28]
 3895 0200 9A42     		cmp	r2, r3
 3896 0202 01D8     		bhi	.L284
 3897              	.L283:
 3898              		.loc 2 1459 0 discriminator 4
 3899 0204 0E4B     		ldr	r3, .L285+12
 3900 0206 10E0     		b	.L263
 3901              	.L284:
 3902              		.loc 2 1459 0 discriminator 5
 3903 0208 3B69     		ldr	r3, [r7, #16]
 3904 020a FA69     		ldr	r2, [r7, #28]
 3905 020c D31A     		subs	r3, r2, r3
 3906 020e FB61     		str	r3, [r7, #28]
 3907 0210 3B69     		ldr	r3, [r7, #16]
 3908 0212 BA69     		ldr	r2, [r7, #24]
 3909 0214 1344     		add	r3, r3, r2
 3910 0216 BB61     		str	r3, [r7, #24]
 3911 0218 0A4B     		ldr	r3, .L285+16
 3912 021a 7B61     		str	r3, [r7, #20]
 3913              	.L282:
1460:C:/Users/dtjld/workspace/AIoT/src/LiteOS_Lab/iot_link/network/dtls/mbedtls/mbedtls-2.16.2/library\x509_crt.c **** 
1461:C:/Users/dtjld/workspace/AIoT/src/LiteOS_Lab/iot_link/network/dtls/mbedtls/mbedtls-2.16.2/library\x509_crt.c ****     *size = n;
 3914              		.loc 2 1461 0 is_stmt 1
 3915 021c BB68     		ldr	r3, [r7, #8]
 3916 021e FA69     		ldr	r2, [r7, #28]
 3917 0220 1A60     		str	r2, [r3]
1462:C:/Users/dtjld/workspace/AIoT/src/LiteOS_Lab/iot_link/network/dtls/mbedtls/mbedtls-2.16.2/library\x509_crt.c ****     *buf = p;
ARM GAS  C:\Users\dtjld\AppData\Local\Temp\ccTXdst3.s 			page 99


 3918              		.loc 2 1462 0
 3919 0222 FB68     		ldr	r3, [r7, #12]
 3920 0224 BA69     		ldr	r2, [r7, #24]
 3921 0226 1A60     		str	r2, [r3]
1463:C:/Users/dtjld/workspace/AIoT/src/LiteOS_Lab/iot_link/network/dtls/mbedtls/mbedtls-2.16.2/library\x509_crt.c **** 
1464:C:/Users/dtjld/workspace/AIoT/src/LiteOS_Lab/iot_link/network/dtls/mbedtls/mbedtls-2.16.2/library\x509_crt.c ****     return( 0 );
 3922              		.loc 2 1464 0
 3923 0228 0023     		movs	r3, #0
 3924              	.L263:
1465:C:/Users/dtjld/workspace/AIoT/src/LiteOS_Lab/iot_link/network/dtls/mbedtls/mbedtls-2.16.2/library\x509_crt.c **** }
 3925              		.loc 2 1465 0
 3926 022a 1846     		mov	r0, r3
 3927 022c 2437     		adds	r7, r7, #36
 3928              	.LCFI119:
 3929              		.cfi_def_cfa_offset 12
 3930 022e BD46     		mov	sp, r7
 3931              	.LCFI120:
 3932              		.cfi_def_cfa_register 13
 3933              		@ sp needed
 3934 0230 90BD     		pop	{r4, r7, pc}
 3935              	.L286:
 3936 0232 00BF     		.align	2
 3937              	.L285:
 3938 0234 38000000 		.word	.LC2
 3939 0238 00000000 		.word	mbedtls_snprintf
 3940 023c 40000000 		.word	.LC4
 3941 0240 80D6FFFF 		.word	-10624
 3942 0244 3C000000 		.word	.LC3
 3943 0248 50000000 		.word	.LC5
 3944 024c 60000000 		.word	.LC6
 3945 0250 68000000 		.word	.LC7
 3946 0254 7C000000 		.word	.LC8
 3947 0258 88000000 		.word	.LC9
 3948 025c 94000000 		.word	.LC10
 3949 0260 A0000000 		.word	.LC11
 3950              		.cfi_endproc
 3951              	.LFE34:
 3953              		.section	.rodata
 3954              		.align	2
 3955              	.LC12:
 3956 00b4 25734469 		.ascii	"%sDigital Signature\000"
 3956      67697461 
 3956      6C205369 
 3956      676E6174 
 3956      75726500 
 3957              		.align	2
 3958              	.LC13:
 3959 00c8 25734E6F 		.ascii	"%sNon Repudiation\000"
 3959      6E205265 
 3959      70756469 
 3959      6174696F 
 3959      6E00
 3960 00da 0000     		.align	2
 3961              	.LC14:
 3962 00dc 25734B65 		.ascii	"%sKey Encipherment\000"
 3962      7920456E 
 3962      63697068 
ARM GAS  C:\Users\dtjld\AppData\Local\Temp\ccTXdst3.s 			page 100


 3962      65726D65 
 3962      6E7400
 3963 00ef 00       		.align	2
 3964              	.LC15:
 3965 00f0 25734461 		.ascii	"%sData Encipherment\000"
 3965      74612045 
 3965      6E636970 
 3965      6865726D 
 3965      656E7400 
 3966              		.align	2
 3967              	.LC16:
 3968 0104 25734B65 		.ascii	"%sKey Agreement\000"
 3968      79204167 
 3968      7265656D 
 3968      656E7400 
 3969              		.align	2
 3970              	.LC17:
 3971 0114 25734B65 		.ascii	"%sKey Cert Sign\000"
 3971      79204365 
 3971      72742053 
 3971      69676E00 
 3972              		.align	2
 3973              	.LC18:
 3974 0124 25734352 		.ascii	"%sCRL Sign\000"
 3974      4C205369 
 3974      676E00
 3975 012f 00       		.align	2
 3976              	.LC19:
 3977 0130 2573456E 		.ascii	"%sEncipher Only\000"
 3977      63697068 
 3977      6572204F 
 3977      6E6C7900 
 3978              		.align	2
 3979              	.LC20:
 3980 0140 25734465 		.ascii	"%sDecipher Only\000"
 3980      63697068 
 3980      6572204F 
 3980      6E6C7900 
 3981              		.section	.text.x509_info_key_usage,"ax",%progbits
 3982              		.align	1
 3983              		.syntax unified
 3984              		.thumb
 3985              		.thumb_func
 3986              		.fpu fpv4-sp-d16
 3988              	x509_info_key_usage:
 3989              	.LFB35:
1466:C:/Users/dtjld/workspace/AIoT/src/LiteOS_Lab/iot_link/network/dtls/mbedtls/mbedtls-2.16.2/library\x509_crt.c **** 
1467:C:/Users/dtjld/workspace/AIoT/src/LiteOS_Lab/iot_link/network/dtls/mbedtls/mbedtls-2.16.2/library\x509_crt.c **** #define KEY_USAGE(code,name)    \
1468:C:/Users/dtjld/workspace/AIoT/src/LiteOS_Lab/iot_link/network/dtls/mbedtls/mbedtls-2.16.2/library\x509_crt.c ****     if( key_usage & (code) )    \
1469:C:/Users/dtjld/workspace/AIoT/src/LiteOS_Lab/iot_link/network/dtls/mbedtls/mbedtls-2.16.2/library\x509_crt.c ****         PRINT_ITEM( name );
1470:C:/Users/dtjld/workspace/AIoT/src/LiteOS_Lab/iot_link/network/dtls/mbedtls/mbedtls-2.16.2/library\x509_crt.c **** 
1471:C:/Users/dtjld/workspace/AIoT/src/LiteOS_Lab/iot_link/network/dtls/mbedtls/mbedtls-2.16.2/library\x509_crt.c **** static int x509_info_key_usage( char **buf, size_t *size,
1472:C:/Users/dtjld/workspace/AIoT/src/LiteOS_Lab/iot_link/network/dtls/mbedtls/mbedtls-2.16.2/library\x509_crt.c ****                                 unsigned int key_usage )
1473:C:/Users/dtjld/workspace/AIoT/src/LiteOS_Lab/iot_link/network/dtls/mbedtls/mbedtls-2.16.2/library\x509_crt.c **** {
 3990              		.loc 2 1473 0
 3991              		.cfi_startproc
 3992              		@ args = 0, pretend = 0, frame = 32
ARM GAS  C:\Users\dtjld\AppData\Local\Temp\ccTXdst3.s 			page 101


 3993              		@ frame_needed = 1, uses_anonymous_args = 0
 3994 0000 90B5     		push	{r4, r7, lr}
 3995              	.LCFI121:
 3996              		.cfi_def_cfa_offset 12
 3997              		.cfi_offset 4, -12
 3998              		.cfi_offset 7, -8
 3999              		.cfi_offset 14, -4
 4000 0002 89B0     		sub	sp, sp, #36
 4001              	.LCFI122:
 4002              		.cfi_def_cfa_offset 48
 4003 0004 00AF     		add	r7, sp, #0
 4004              	.LCFI123:
 4005              		.cfi_def_cfa_register 7
 4006 0006 F860     		str	r0, [r7, #12]
 4007 0008 B960     		str	r1, [r7, #8]
 4008 000a 7A60     		str	r2, [r7, #4]
1474:C:/Users/dtjld/workspace/AIoT/src/LiteOS_Lab/iot_link/network/dtls/mbedtls/mbedtls-2.16.2/library\x509_crt.c ****     int ret;
1475:C:/Users/dtjld/workspace/AIoT/src/LiteOS_Lab/iot_link/network/dtls/mbedtls/mbedtls-2.16.2/library\x509_crt.c ****     size_t n = *size;
 4009              		.loc 2 1475 0
 4010 000c BB68     		ldr	r3, [r7, #8]
 4011 000e 1B68     		ldr	r3, [r3]
 4012 0010 FB61     		str	r3, [r7, #28]
1476:C:/Users/dtjld/workspace/AIoT/src/LiteOS_Lab/iot_link/network/dtls/mbedtls/mbedtls-2.16.2/library\x509_crt.c ****     char *p = *buf;
 4013              		.loc 2 1476 0
 4014 0012 FB68     		ldr	r3, [r7, #12]
 4015 0014 1B68     		ldr	r3, [r3]
 4016 0016 BB61     		str	r3, [r7, #24]
1477:C:/Users/dtjld/workspace/AIoT/src/LiteOS_Lab/iot_link/network/dtls/mbedtls/mbedtls-2.16.2/library\x509_crt.c ****     const char *sep = "";
 4017              		.loc 2 1477 0
 4018 0018 8B4B     		ldr	r3, .L316
 4019 001a 7B61     		str	r3, [r7, #20]
1478:C:/Users/dtjld/workspace/AIoT/src/LiteOS_Lab/iot_link/network/dtls/mbedtls/mbedtls-2.16.2/library\x509_crt.c **** 
1479:C:/Users/dtjld/workspace/AIoT/src/LiteOS_Lab/iot_link/network/dtls/mbedtls/mbedtls-2.16.2/library\x509_crt.c ****     KEY_USAGE( MBEDTLS_X509_KU_DIGITAL_SIGNATURE,    "Digital Signature" );
 4020              		.loc 2 1479 0
 4021 001c 7B68     		ldr	r3, [r7, #4]
 4022 001e 03F08003 		and	r3, r3, #128
 4023 0022 002B     		cmp	r3, #0
 4024 0024 1AD0     		beq	.L288
 4025              		.loc 2 1479 0 is_stmt 0 discriminator 1
 4026 0026 894B     		ldr	r3, .L316+4
 4027 0028 1C68     		ldr	r4, [r3]
 4028 002a 7B69     		ldr	r3, [r7, #20]
 4029 002c 884A     		ldr	r2, .L316+8
 4030 002e F969     		ldr	r1, [r7, #28]
 4031 0030 B869     		ldr	r0, [r7, #24]
 4032 0032 A047     		blx	r4
 4033              	.LVL8:
 4034 0034 3861     		str	r0, [r7, #16]
 4035 0036 3B69     		ldr	r3, [r7, #16]
 4036 0038 002B     		cmp	r3, #0
 4037 003a 03DB     		blt	.L289
 4038              		.loc 2 1479 0 discriminator 3
 4039 003c 3B69     		ldr	r3, [r7, #16]
 4040 003e FA69     		ldr	r2, [r7, #28]
 4041 0040 9A42     		cmp	r2, r3
 4042 0042 01D8     		bhi	.L290
 4043              	.L289:
ARM GAS  C:\Users\dtjld\AppData\Local\Temp\ccTXdst3.s 			page 102


 4044              		.loc 2 1479 0 discriminator 4
 4045 0044 834B     		ldr	r3, .L316+12
 4046 0046 2AE1     		b	.L291
 4047              	.L290:
 4048              		.loc 2 1479 0 discriminator 5
 4049 0048 3B69     		ldr	r3, [r7, #16]
 4050 004a FA69     		ldr	r2, [r7, #28]
 4051 004c D31A     		subs	r3, r2, r3
 4052 004e FB61     		str	r3, [r7, #28]
 4053 0050 3B69     		ldr	r3, [r7, #16]
 4054 0052 BA69     		ldr	r2, [r7, #24]
 4055 0054 1344     		add	r3, r3, r2
 4056 0056 BB61     		str	r3, [r7, #24]
 4057 0058 7F4B     		ldr	r3, .L316+16
 4058 005a 7B61     		str	r3, [r7, #20]
 4059              	.L288:
1480:C:/Users/dtjld/workspace/AIoT/src/LiteOS_Lab/iot_link/network/dtls/mbedtls/mbedtls-2.16.2/library\x509_crt.c ****     KEY_USAGE( MBEDTLS_X509_KU_NON_REPUDIATION,      "Non Repudiation" );
 4060              		.loc 2 1480 0 is_stmt 1
 4061 005c 7B68     		ldr	r3, [r7, #4]
 4062 005e 03F04003 		and	r3, r3, #64
 4063 0062 002B     		cmp	r3, #0
 4064 0064 1AD0     		beq	.L292
 4065              		.loc 2 1480 0 is_stmt 0 discriminator 1
 4066 0066 794B     		ldr	r3, .L316+4
 4067 0068 1C68     		ldr	r4, [r3]
 4068 006a 7B69     		ldr	r3, [r7, #20]
 4069 006c 7B4A     		ldr	r2, .L316+20
 4070 006e F969     		ldr	r1, [r7, #28]
 4071 0070 B869     		ldr	r0, [r7, #24]
 4072 0072 A047     		blx	r4
 4073              	.LVL9:
 4074 0074 3861     		str	r0, [r7, #16]
 4075 0076 3B69     		ldr	r3, [r7, #16]
 4076 0078 002B     		cmp	r3, #0
 4077 007a 03DB     		blt	.L293
 4078              		.loc 2 1480 0 discriminator 3
 4079 007c 3B69     		ldr	r3, [r7, #16]
 4080 007e FA69     		ldr	r2, [r7, #28]
 4081 0080 9A42     		cmp	r2, r3
 4082 0082 01D8     		bhi	.L294
 4083              	.L293:
 4084              		.loc 2 1480 0 discriminator 4
 4085 0084 734B     		ldr	r3, .L316+12
 4086 0086 0AE1     		b	.L291
 4087              	.L294:
 4088              		.loc 2 1480 0 discriminator 5
 4089 0088 3B69     		ldr	r3, [r7, #16]
 4090 008a FA69     		ldr	r2, [r7, #28]
 4091 008c D31A     		subs	r3, r2, r3
 4092 008e FB61     		str	r3, [r7, #28]
 4093 0090 3B69     		ldr	r3, [r7, #16]
 4094 0092 BA69     		ldr	r2, [r7, #24]
 4095 0094 1344     		add	r3, r3, r2
 4096 0096 BB61     		str	r3, [r7, #24]
 4097 0098 6F4B     		ldr	r3, .L316+16
 4098 009a 7B61     		str	r3, [r7, #20]
 4099              	.L292:
ARM GAS  C:\Users\dtjld\AppData\Local\Temp\ccTXdst3.s 			page 103


1481:C:/Users/dtjld/workspace/AIoT/src/LiteOS_Lab/iot_link/network/dtls/mbedtls/mbedtls-2.16.2/library\x509_crt.c ****     KEY_USAGE( MBEDTLS_X509_KU_KEY_ENCIPHERMENT,     "Key Encipherment" );
 4100              		.loc 2 1481 0 is_stmt 1
 4101 009c 7B68     		ldr	r3, [r7, #4]
 4102 009e 03F02003 		and	r3, r3, #32
 4103 00a2 002B     		cmp	r3, #0
 4104 00a4 1AD0     		beq	.L295
 4105              		.loc 2 1481 0 is_stmt 0 discriminator 1
 4106 00a6 694B     		ldr	r3, .L316+4
 4107 00a8 1C68     		ldr	r4, [r3]
 4108 00aa 7B69     		ldr	r3, [r7, #20]
 4109 00ac 6C4A     		ldr	r2, .L316+24
 4110 00ae F969     		ldr	r1, [r7, #28]
 4111 00b0 B869     		ldr	r0, [r7, #24]
 4112 00b2 A047     		blx	r4
 4113              	.LVL10:
 4114 00b4 3861     		str	r0, [r7, #16]
 4115 00b6 3B69     		ldr	r3, [r7, #16]
 4116 00b8 002B     		cmp	r3, #0
 4117 00ba 03DB     		blt	.L296
 4118              		.loc 2 1481 0 discriminator 3
 4119 00bc 3B69     		ldr	r3, [r7, #16]
 4120 00be FA69     		ldr	r2, [r7, #28]
 4121 00c0 9A42     		cmp	r2, r3
 4122 00c2 01D8     		bhi	.L297
 4123              	.L296:
 4124              		.loc 2 1481 0 discriminator 4
 4125 00c4 634B     		ldr	r3, .L316+12
 4126 00c6 EAE0     		b	.L291
 4127              	.L297:
 4128              		.loc 2 1481 0 discriminator 5
 4129 00c8 3B69     		ldr	r3, [r7, #16]
 4130 00ca FA69     		ldr	r2, [r7, #28]
 4131 00cc D31A     		subs	r3, r2, r3
 4132 00ce FB61     		str	r3, [r7, #28]
 4133 00d0 3B69     		ldr	r3, [r7, #16]
 4134 00d2 BA69     		ldr	r2, [r7, #24]
 4135 00d4 1344     		add	r3, r3, r2
 4136 00d6 BB61     		str	r3, [r7, #24]
 4137 00d8 5F4B     		ldr	r3, .L316+16
 4138 00da 7B61     		str	r3, [r7, #20]
 4139              	.L295:
1482:C:/Users/dtjld/workspace/AIoT/src/LiteOS_Lab/iot_link/network/dtls/mbedtls/mbedtls-2.16.2/library\x509_crt.c ****     KEY_USAGE( MBEDTLS_X509_KU_DATA_ENCIPHERMENT,    "Data Encipherment" );
 4140              		.loc 2 1482 0 is_stmt 1
 4141 00dc 7B68     		ldr	r3, [r7, #4]
 4142 00de 03F01003 		and	r3, r3, #16
 4143 00e2 002B     		cmp	r3, #0
 4144 00e4 1AD0     		beq	.L298
 4145              		.loc 2 1482 0 is_stmt 0 discriminator 1
 4146 00e6 594B     		ldr	r3, .L316+4
 4147 00e8 1C68     		ldr	r4, [r3]
 4148 00ea 7B69     		ldr	r3, [r7, #20]
 4149 00ec 5D4A     		ldr	r2, .L316+28
 4150 00ee F969     		ldr	r1, [r7, #28]
 4151 00f0 B869     		ldr	r0, [r7, #24]
 4152 00f2 A047     		blx	r4
 4153              	.LVL11:
 4154 00f4 3861     		str	r0, [r7, #16]
ARM GAS  C:\Users\dtjld\AppData\Local\Temp\ccTXdst3.s 			page 104


 4155 00f6 3B69     		ldr	r3, [r7, #16]
 4156 00f8 002B     		cmp	r3, #0
 4157 00fa 03DB     		blt	.L299
 4158              		.loc 2 1482 0 discriminator 3
 4159 00fc 3B69     		ldr	r3, [r7, #16]
 4160 00fe FA69     		ldr	r2, [r7, #28]
 4161 0100 9A42     		cmp	r2, r3
 4162 0102 01D8     		bhi	.L300
 4163              	.L299:
 4164              		.loc 2 1482 0 discriminator 4
 4165 0104 534B     		ldr	r3, .L316+12
 4166 0106 CAE0     		b	.L291
 4167              	.L300:
 4168              		.loc 2 1482 0 discriminator 5
 4169 0108 3B69     		ldr	r3, [r7, #16]
 4170 010a FA69     		ldr	r2, [r7, #28]
 4171 010c D31A     		subs	r3, r2, r3
 4172 010e FB61     		str	r3, [r7, #28]
 4173 0110 3B69     		ldr	r3, [r7, #16]
 4174 0112 BA69     		ldr	r2, [r7, #24]
 4175 0114 1344     		add	r3, r3, r2
 4176 0116 BB61     		str	r3, [r7, #24]
 4177 0118 4F4B     		ldr	r3, .L316+16
 4178 011a 7B61     		str	r3, [r7, #20]
 4179              	.L298:
1483:C:/Users/dtjld/workspace/AIoT/src/LiteOS_Lab/iot_link/network/dtls/mbedtls/mbedtls-2.16.2/library\x509_crt.c ****     KEY_USAGE( MBEDTLS_X509_KU_KEY_AGREEMENT,        "Key Agreement" );
 4180              		.loc 2 1483 0 is_stmt 1
 4181 011c 7B68     		ldr	r3, [r7, #4]
 4182 011e 03F00803 		and	r3, r3, #8
 4183 0122 002B     		cmp	r3, #0
 4184 0124 1AD0     		beq	.L301
 4185              		.loc 2 1483 0 is_stmt 0 discriminator 1
 4186 0126 494B     		ldr	r3, .L316+4
 4187 0128 1C68     		ldr	r4, [r3]
 4188 012a 7B69     		ldr	r3, [r7, #20]
 4189 012c 4E4A     		ldr	r2, .L316+32
 4190 012e F969     		ldr	r1, [r7, #28]
 4191 0130 B869     		ldr	r0, [r7, #24]
 4192 0132 A047     		blx	r4
 4193              	.LVL12:
 4194 0134 3861     		str	r0, [r7, #16]
 4195 0136 3B69     		ldr	r3, [r7, #16]
 4196 0138 002B     		cmp	r3, #0
 4197 013a 03DB     		blt	.L302
 4198              		.loc 2 1483 0 discriminator 3
 4199 013c 3B69     		ldr	r3, [r7, #16]
 4200 013e FA69     		ldr	r2, [r7, #28]
 4201 0140 9A42     		cmp	r2, r3
 4202 0142 01D8     		bhi	.L303
 4203              	.L302:
 4204              		.loc 2 1483 0 discriminator 4
 4205 0144 434B     		ldr	r3, .L316+12
 4206 0146 AAE0     		b	.L291
 4207              	.L303:
 4208              		.loc 2 1483 0 discriminator 5
 4209 0148 3B69     		ldr	r3, [r7, #16]
 4210 014a FA69     		ldr	r2, [r7, #28]
ARM GAS  C:\Users\dtjld\AppData\Local\Temp\ccTXdst3.s 			page 105


 4211 014c D31A     		subs	r3, r2, r3
 4212 014e FB61     		str	r3, [r7, #28]
 4213 0150 3B69     		ldr	r3, [r7, #16]
 4214 0152 BA69     		ldr	r2, [r7, #24]
 4215 0154 1344     		add	r3, r3, r2
 4216 0156 BB61     		str	r3, [r7, #24]
 4217 0158 3F4B     		ldr	r3, .L316+16
 4218 015a 7B61     		str	r3, [r7, #20]
 4219              	.L301:
1484:C:/Users/dtjld/workspace/AIoT/src/LiteOS_Lab/iot_link/network/dtls/mbedtls/mbedtls-2.16.2/library\x509_crt.c ****     KEY_USAGE( MBEDTLS_X509_KU_KEY_CERT_SIGN,        "Key Cert Sign" );
 4220              		.loc 2 1484 0 is_stmt 1
 4221 015c 7B68     		ldr	r3, [r7, #4]
 4222 015e 03F00403 		and	r3, r3, #4
 4223 0162 002B     		cmp	r3, #0
 4224 0164 1AD0     		beq	.L304
 4225              		.loc 2 1484 0 is_stmt 0 discriminator 1
 4226 0166 394B     		ldr	r3, .L316+4
 4227 0168 1C68     		ldr	r4, [r3]
 4228 016a 7B69     		ldr	r3, [r7, #20]
 4229 016c 3F4A     		ldr	r2, .L316+36
 4230 016e F969     		ldr	r1, [r7, #28]
 4231 0170 B869     		ldr	r0, [r7, #24]
 4232 0172 A047     		blx	r4
 4233              	.LVL13:
 4234 0174 3861     		str	r0, [r7, #16]
 4235 0176 3B69     		ldr	r3, [r7, #16]
 4236 0178 002B     		cmp	r3, #0
 4237 017a 03DB     		blt	.L305
 4238              		.loc 2 1484 0 discriminator 3
 4239 017c 3B69     		ldr	r3, [r7, #16]
 4240 017e FA69     		ldr	r2, [r7, #28]
 4241 0180 9A42     		cmp	r2, r3
 4242 0182 01D8     		bhi	.L306
 4243              	.L305:
 4244              		.loc 2 1484 0 discriminator 4
 4245 0184 334B     		ldr	r3, .L316+12
 4246 0186 8AE0     		b	.L291
 4247              	.L306:
 4248              		.loc 2 1484 0 discriminator 5
 4249 0188 3B69     		ldr	r3, [r7, #16]
 4250 018a FA69     		ldr	r2, [r7, #28]
 4251 018c D31A     		subs	r3, r2, r3
 4252 018e FB61     		str	r3, [r7, #28]
 4253 0190 3B69     		ldr	r3, [r7, #16]
 4254 0192 BA69     		ldr	r2, [r7, #24]
 4255 0194 1344     		add	r3, r3, r2
 4256 0196 BB61     		str	r3, [r7, #24]
 4257 0198 2F4B     		ldr	r3, .L316+16
 4258 019a 7B61     		str	r3, [r7, #20]
 4259              	.L304:
1485:C:/Users/dtjld/workspace/AIoT/src/LiteOS_Lab/iot_link/network/dtls/mbedtls/mbedtls-2.16.2/library\x509_crt.c ****     KEY_USAGE( MBEDTLS_X509_KU_CRL_SIGN,             "CRL Sign" );
 4260              		.loc 2 1485 0 is_stmt 1
 4261 019c 7B68     		ldr	r3, [r7, #4]
 4262 019e 03F00203 		and	r3, r3, #2
 4263 01a2 002B     		cmp	r3, #0
 4264 01a4 1AD0     		beq	.L307
 4265              		.loc 2 1485 0 is_stmt 0 discriminator 1
ARM GAS  C:\Users\dtjld\AppData\Local\Temp\ccTXdst3.s 			page 106


 4266 01a6 294B     		ldr	r3, .L316+4
 4267 01a8 1C68     		ldr	r4, [r3]
 4268 01aa 7B69     		ldr	r3, [r7, #20]
 4269 01ac 304A     		ldr	r2, .L316+40
 4270 01ae F969     		ldr	r1, [r7, #28]
 4271 01b0 B869     		ldr	r0, [r7, #24]
 4272 01b2 A047     		blx	r4
 4273              	.LVL14:
 4274 01b4 3861     		str	r0, [r7, #16]
 4275 01b6 3B69     		ldr	r3, [r7, #16]
 4276 01b8 002B     		cmp	r3, #0
 4277 01ba 03DB     		blt	.L308
 4278              		.loc 2 1485 0 discriminator 3
 4279 01bc 3B69     		ldr	r3, [r7, #16]
 4280 01be FA69     		ldr	r2, [r7, #28]
 4281 01c0 9A42     		cmp	r2, r3
 4282 01c2 01D8     		bhi	.L309
 4283              	.L308:
 4284              		.loc 2 1485 0 discriminator 4
 4285 01c4 234B     		ldr	r3, .L316+12
 4286 01c6 6AE0     		b	.L291
 4287              	.L309:
 4288              		.loc 2 1485 0 discriminator 5
 4289 01c8 3B69     		ldr	r3, [r7, #16]
 4290 01ca FA69     		ldr	r2, [r7, #28]
 4291 01cc D31A     		subs	r3, r2, r3
 4292 01ce FB61     		str	r3, [r7, #28]
 4293 01d0 3B69     		ldr	r3, [r7, #16]
 4294 01d2 BA69     		ldr	r2, [r7, #24]
 4295 01d4 1344     		add	r3, r3, r2
 4296 01d6 BB61     		str	r3, [r7, #24]
 4297 01d8 1F4B     		ldr	r3, .L316+16
 4298 01da 7B61     		str	r3, [r7, #20]
 4299              	.L307:
1486:C:/Users/dtjld/workspace/AIoT/src/LiteOS_Lab/iot_link/network/dtls/mbedtls/mbedtls-2.16.2/library\x509_crt.c ****     KEY_USAGE( MBEDTLS_X509_KU_ENCIPHER_ONLY,        "Encipher Only" );
 4300              		.loc 2 1486 0 is_stmt 1
 4301 01dc 7B68     		ldr	r3, [r7, #4]
 4302 01de 03F00103 		and	r3, r3, #1
 4303 01e2 002B     		cmp	r3, #0
 4304 01e4 1AD0     		beq	.L310
 4305              		.loc 2 1486 0 is_stmt 0 discriminator 1
 4306 01e6 194B     		ldr	r3, .L316+4
 4307 01e8 1C68     		ldr	r4, [r3]
 4308 01ea 7B69     		ldr	r3, [r7, #20]
 4309 01ec 214A     		ldr	r2, .L316+44
 4310 01ee F969     		ldr	r1, [r7, #28]
 4311 01f0 B869     		ldr	r0, [r7, #24]
 4312 01f2 A047     		blx	r4
 4313              	.LVL15:
 4314 01f4 3861     		str	r0, [r7, #16]
 4315 01f6 3B69     		ldr	r3, [r7, #16]
 4316 01f8 002B     		cmp	r3, #0
 4317 01fa 03DB     		blt	.L311
 4318              		.loc 2 1486 0 discriminator 3
 4319 01fc 3B69     		ldr	r3, [r7, #16]
 4320 01fe FA69     		ldr	r2, [r7, #28]
 4321 0200 9A42     		cmp	r2, r3
ARM GAS  C:\Users\dtjld\AppData\Local\Temp\ccTXdst3.s 			page 107


 4322 0202 01D8     		bhi	.L312
 4323              	.L311:
 4324              		.loc 2 1486 0 discriminator 4
 4325 0204 134B     		ldr	r3, .L316+12
 4326 0206 4AE0     		b	.L291
 4327              	.L312:
 4328              		.loc 2 1486 0 discriminator 5
 4329 0208 3B69     		ldr	r3, [r7, #16]
 4330 020a FA69     		ldr	r2, [r7, #28]
 4331 020c D31A     		subs	r3, r2, r3
 4332 020e FB61     		str	r3, [r7, #28]
 4333 0210 3B69     		ldr	r3, [r7, #16]
 4334 0212 BA69     		ldr	r2, [r7, #24]
 4335 0214 1344     		add	r3, r3, r2
 4336 0216 BB61     		str	r3, [r7, #24]
 4337 0218 0F4B     		ldr	r3, .L316+16
 4338 021a 7B61     		str	r3, [r7, #20]
 4339              	.L310:
1487:C:/Users/dtjld/workspace/AIoT/src/LiteOS_Lab/iot_link/network/dtls/mbedtls/mbedtls-2.16.2/library\x509_crt.c ****     KEY_USAGE( MBEDTLS_X509_KU_DECIPHER_ONLY,        "Decipher Only" );
 4340              		.loc 2 1487 0 is_stmt 1
 4341 021c 7B68     		ldr	r3, [r7, #4]
 4342 021e 03F40043 		and	r3, r3, #32768
 4343 0222 002B     		cmp	r3, #0
 4344 0224 34D0     		beq	.L313
 4345              		.loc 2 1487 0 is_stmt 0 discriminator 1
 4346 0226 094B     		ldr	r3, .L316+4
 4347 0228 1C68     		ldr	r4, [r3]
 4348 022a 7B69     		ldr	r3, [r7, #20]
 4349 022c 124A     		ldr	r2, .L316+48
 4350 022e F969     		ldr	r1, [r7, #28]
 4351 0230 B869     		ldr	r0, [r7, #24]
 4352 0232 A047     		blx	r4
 4353              	.LVL16:
 4354 0234 3861     		str	r0, [r7, #16]
 4355 0236 3B69     		ldr	r3, [r7, #16]
 4356 0238 002B     		cmp	r3, #0
 4357 023a 03DB     		blt	.L314
 4358              		.loc 2 1487 0 discriminator 3
 4359 023c 3B69     		ldr	r3, [r7, #16]
 4360 023e FA69     		ldr	r2, [r7, #28]
 4361 0240 9A42     		cmp	r2, r3
 4362 0242 1BD8     		bhi	.L315
 4363              	.L314:
 4364              		.loc 2 1487 0 discriminator 4
 4365 0244 034B     		ldr	r3, .L316+12
 4366 0246 2AE0     		b	.L291
 4367              	.L317:
 4368              		.align	2
 4369              	.L316:
 4370 0248 38000000 		.word	.LC2
 4371 024c 00000000 		.word	mbedtls_snprintf
 4372 0250 B4000000 		.word	.LC12
 4373 0254 80D6FFFF 		.word	-10624
 4374 0258 3C000000 		.word	.LC3
 4375 025c C8000000 		.word	.LC13
 4376 0260 DC000000 		.word	.LC14
 4377 0264 F0000000 		.word	.LC15
ARM GAS  C:\Users\dtjld\AppData\Local\Temp\ccTXdst3.s 			page 108


 4378 0268 04010000 		.word	.LC16
 4379 026c 14010000 		.word	.LC17
 4380 0270 24010000 		.word	.LC18
 4381 0274 30010000 		.word	.LC19
 4382 0278 40010000 		.word	.LC20
 4383              	.L315:
 4384              		.loc 2 1487 0 discriminator 5
 4385 027c 3B69     		ldr	r3, [r7, #16]
 4386 027e FA69     		ldr	r2, [r7, #28]
 4387 0280 D31A     		subs	r3, r2, r3
 4388 0282 FB61     		str	r3, [r7, #28]
 4389 0284 3B69     		ldr	r3, [r7, #16]
 4390 0286 BA69     		ldr	r2, [r7, #24]
 4391 0288 1344     		add	r3, r3, r2
 4392 028a BB61     		str	r3, [r7, #24]
 4393 028c 064B     		ldr	r3, .L318
 4394 028e 7B61     		str	r3, [r7, #20]
 4395              	.L313:
1488:C:/Users/dtjld/workspace/AIoT/src/LiteOS_Lab/iot_link/network/dtls/mbedtls/mbedtls-2.16.2/library\x509_crt.c **** 
1489:C:/Users/dtjld/workspace/AIoT/src/LiteOS_Lab/iot_link/network/dtls/mbedtls/mbedtls-2.16.2/library\x509_crt.c ****     *size = n;
 4396              		.loc 2 1489 0 is_stmt 1
 4397 0290 BB68     		ldr	r3, [r7, #8]
 4398 0292 FA69     		ldr	r2, [r7, #28]
 4399 0294 1A60     		str	r2, [r3]
1490:C:/Users/dtjld/workspace/AIoT/src/LiteOS_Lab/iot_link/network/dtls/mbedtls/mbedtls-2.16.2/library\x509_crt.c ****     *buf = p;
 4400              		.loc 2 1490 0
 4401 0296 FB68     		ldr	r3, [r7, #12]
 4402 0298 BA69     		ldr	r2, [r7, #24]
 4403 029a 1A60     		str	r2, [r3]
1491:C:/Users/dtjld/workspace/AIoT/src/LiteOS_Lab/iot_link/network/dtls/mbedtls/mbedtls-2.16.2/library\x509_crt.c **** 
1492:C:/Users/dtjld/workspace/AIoT/src/LiteOS_Lab/iot_link/network/dtls/mbedtls/mbedtls-2.16.2/library\x509_crt.c ****     return( 0 );
 4404              		.loc 2 1492 0
 4405 029c 0023     		movs	r3, #0
 4406              	.L291:
1493:C:/Users/dtjld/workspace/AIoT/src/LiteOS_Lab/iot_link/network/dtls/mbedtls/mbedtls-2.16.2/library\x509_crt.c **** }
 4407              		.loc 2 1493 0
 4408 029e 1846     		mov	r0, r3
 4409 02a0 2437     		adds	r7, r7, #36
 4410              	.LCFI124:
 4411              		.cfi_def_cfa_offset 12
 4412 02a2 BD46     		mov	sp, r7
 4413              	.LCFI125:
 4414              		.cfi_def_cfa_register 13
 4415              		@ sp needed
 4416 02a4 90BD     		pop	{r4, r7, pc}
 4417              	.L319:
 4418 02a6 00BF     		.align	2
 4419              	.L318:
 4420 02a8 3C000000 		.word	.LC3
 4421              		.cfi_endproc
 4422              	.LFE35:
 4424              		.section	.rodata
 4425              		.align	2
 4426              	.LC21:
 4427 0150 3F3F3F00 		.ascii	"???\000"
 4428              		.align	2
 4429              	.LC22:
ARM GAS  C:\Users\dtjld\AppData\Local\Temp\ccTXdst3.s 			page 109


 4430 0154 25732573 		.ascii	"%s%s\000"
 4430      00
 4431              		.section	.text.x509_info_ext_key_usage,"ax",%progbits
 4432              		.align	1
 4433              		.syntax unified
 4434              		.thumb
 4435              		.thumb_func
 4436              		.fpu fpv4-sp-d16
 4438              	x509_info_ext_key_usage:
 4439              	.LFB36:
1494:C:/Users/dtjld/workspace/AIoT/src/LiteOS_Lab/iot_link/network/dtls/mbedtls/mbedtls-2.16.2/library\x509_crt.c **** 
1495:C:/Users/dtjld/workspace/AIoT/src/LiteOS_Lab/iot_link/network/dtls/mbedtls/mbedtls-2.16.2/library\x509_crt.c **** static int x509_info_ext_key_usage( char **buf, size_t *size,
1496:C:/Users/dtjld/workspace/AIoT/src/LiteOS_Lab/iot_link/network/dtls/mbedtls/mbedtls-2.16.2/library\x509_crt.c ****                                     const mbedtls_x509_sequence *extended_key_usage )
1497:C:/Users/dtjld/workspace/AIoT/src/LiteOS_Lab/iot_link/network/dtls/mbedtls/mbedtls-2.16.2/library\x509_crt.c **** {
 4440              		.loc 2 1497 0
 4441              		.cfi_startproc
 4442              		@ args = 0, pretend = 0, frame = 40
 4443              		@ frame_needed = 1, uses_anonymous_args = 0
 4444 0000 90B5     		push	{r4, r7, lr}
 4445              	.LCFI126:
 4446              		.cfi_def_cfa_offset 12
 4447              		.cfi_offset 4, -12
 4448              		.cfi_offset 7, -8
 4449              		.cfi_offset 14, -4
 4450 0002 8DB0     		sub	sp, sp, #52
 4451              	.LCFI127:
 4452              		.cfi_def_cfa_offset 64
 4453 0004 02AF     		add	r7, sp, #8
 4454              	.LCFI128:
 4455              		.cfi_def_cfa 7, 56
 4456 0006 F860     		str	r0, [r7, #12]
 4457 0008 B960     		str	r1, [r7, #8]
 4458 000a 7A60     		str	r2, [r7, #4]
1498:C:/Users/dtjld/workspace/AIoT/src/LiteOS_Lab/iot_link/network/dtls/mbedtls/mbedtls-2.16.2/library\x509_crt.c ****     int ret;
1499:C:/Users/dtjld/workspace/AIoT/src/LiteOS_Lab/iot_link/network/dtls/mbedtls/mbedtls-2.16.2/library\x509_crt.c ****     const char *desc;
1500:C:/Users/dtjld/workspace/AIoT/src/LiteOS_Lab/iot_link/network/dtls/mbedtls/mbedtls-2.16.2/library\x509_crt.c ****     size_t n = *size;
 4459              		.loc 2 1500 0
 4460 000c BB68     		ldr	r3, [r7, #8]
 4461 000e 1B68     		ldr	r3, [r3]
 4462 0010 7B62     		str	r3, [r7, #36]
1501:C:/Users/dtjld/workspace/AIoT/src/LiteOS_Lab/iot_link/network/dtls/mbedtls/mbedtls-2.16.2/library\x509_crt.c ****     char *p = *buf;
 4463              		.loc 2 1501 0
 4464 0012 FB68     		ldr	r3, [r7, #12]
 4465 0014 1B68     		ldr	r3, [r3]
 4466 0016 3B62     		str	r3, [r7, #32]
1502:C:/Users/dtjld/workspace/AIoT/src/LiteOS_Lab/iot_link/network/dtls/mbedtls/mbedtls-2.16.2/library\x509_crt.c ****     const mbedtls_x509_sequence *cur = extended_key_usage;
 4467              		.loc 2 1502 0
 4468 0018 7B68     		ldr	r3, [r7, #4]
 4469 001a FB61     		str	r3, [r7, #28]
1503:C:/Users/dtjld/workspace/AIoT/src/LiteOS_Lab/iot_link/network/dtls/mbedtls/mbedtls-2.16.2/library\x509_crt.c ****     const char *sep = "";
 4470              		.loc 2 1503 0
 4471 001c 1E4B     		ldr	r3, .L328
 4472 001e BB61     		str	r3, [r7, #24]
1504:C:/Users/dtjld/workspace/AIoT/src/LiteOS_Lab/iot_link/network/dtls/mbedtls/mbedtls-2.16.2/library\x509_crt.c **** 
1505:C:/Users/dtjld/workspace/AIoT/src/LiteOS_Lab/iot_link/network/dtls/mbedtls/mbedtls-2.16.2/library\x509_crt.c ****     while( cur != NULL )
 4473              		.loc 2 1505 0
 4474 0020 2BE0     		b	.L321
ARM GAS  C:\Users\dtjld\AppData\Local\Temp\ccTXdst3.s 			page 110


 4475              	.L326:
1506:C:/Users/dtjld/workspace/AIoT/src/LiteOS_Lab/iot_link/network/dtls/mbedtls/mbedtls-2.16.2/library\x509_crt.c ****     {
1507:C:/Users/dtjld/workspace/AIoT/src/LiteOS_Lab/iot_link/network/dtls/mbedtls/mbedtls-2.16.2/library\x509_crt.c ****         if( mbedtls_oid_get_extended_key_usage( &cur->buf, &desc ) != 0 )
 4476              		.loc 2 1507 0
 4477 0022 FB69     		ldr	r3, [r7, #28]
 4478 0024 07F11002 		add	r2, r7, #16
 4479 0028 1146     		mov	r1, r2
 4480 002a 1846     		mov	r0, r3
 4481 002c FFF7FEFF 		bl	mbedtls_oid_get_extended_key_usage
 4482 0030 0346     		mov	r3, r0
 4483 0032 002B     		cmp	r3, #0
 4484 0034 01D0     		beq	.L322
1508:C:/Users/dtjld/workspace/AIoT/src/LiteOS_Lab/iot_link/network/dtls/mbedtls/mbedtls-2.16.2/library\x509_crt.c ****             desc = "???";
 4485              		.loc 2 1508 0
 4486 0036 194B     		ldr	r3, .L328+4
 4487 0038 3B61     		str	r3, [r7, #16]
 4488              	.L322:
1509:C:/Users/dtjld/workspace/AIoT/src/LiteOS_Lab/iot_link/network/dtls/mbedtls/mbedtls-2.16.2/library\x509_crt.c **** 
1510:C:/Users/dtjld/workspace/AIoT/src/LiteOS_Lab/iot_link/network/dtls/mbedtls/mbedtls-2.16.2/library\x509_crt.c ****         ret = mbedtls_snprintf( p, n, "%s%s", sep, desc );
 4489              		.loc 2 1510 0
 4490 003a 194B     		ldr	r3, .L328+8
 4491 003c 1C68     		ldr	r4, [r3]
 4492 003e 3B69     		ldr	r3, [r7, #16]
 4493 0040 0093     		str	r3, [sp]
 4494 0042 BB69     		ldr	r3, [r7, #24]
 4495 0044 174A     		ldr	r2, .L328+12
 4496 0046 796A     		ldr	r1, [r7, #36]
 4497 0048 386A     		ldr	r0, [r7, #32]
 4498 004a A047     		blx	r4
 4499              	.LVL17:
 4500 004c 7861     		str	r0, [r7, #20]
1511:C:/Users/dtjld/workspace/AIoT/src/LiteOS_Lab/iot_link/network/dtls/mbedtls/mbedtls-2.16.2/library\x509_crt.c ****         MBEDTLS_X509_SAFE_SNPRINTF;
 4501              		.loc 2 1511 0
 4502 004e 7B69     		ldr	r3, [r7, #20]
 4503 0050 002B     		cmp	r3, #0
 4504 0052 03DB     		blt	.L323
 4505              		.loc 2 1511 0 is_stmt 0 discriminator 2
 4506 0054 7B69     		ldr	r3, [r7, #20]
 4507 0056 7A6A     		ldr	r2, [r7, #36]
 4508 0058 9A42     		cmp	r2, r3
 4509 005a 01D8     		bhi	.L324
 4510              	.L323:
 4511              		.loc 2 1511 0 discriminator 3
 4512 005c 124B     		ldr	r3, .L328+16
 4513 005e 16E0     		b	.L327
 4514              	.L324:
 4515              		.loc 2 1511 0 discriminator 4
 4516 0060 7B69     		ldr	r3, [r7, #20]
 4517 0062 7A6A     		ldr	r2, [r7, #36]
 4518 0064 D31A     		subs	r3, r2, r3
 4519 0066 7B62     		str	r3, [r7, #36]
 4520 0068 7B69     		ldr	r3, [r7, #20]
 4521 006a 3A6A     		ldr	r2, [r7, #32]
 4522 006c 1344     		add	r3, r3, r2
 4523 006e 3B62     		str	r3, [r7, #32]
1512:C:/Users/dtjld/workspace/AIoT/src/LiteOS_Lab/iot_link/network/dtls/mbedtls/mbedtls-2.16.2/library\x509_crt.c **** 
1513:C:/Users/dtjld/workspace/AIoT/src/LiteOS_Lab/iot_link/network/dtls/mbedtls/mbedtls-2.16.2/library\x509_crt.c ****         sep = ", ";
ARM GAS  C:\Users\dtjld\AppData\Local\Temp\ccTXdst3.s 			page 111


 4524              		.loc 2 1513 0 is_stmt 1 discriminator 4
 4525 0070 0E4B     		ldr	r3, .L328+20
 4526 0072 BB61     		str	r3, [r7, #24]
1514:C:/Users/dtjld/workspace/AIoT/src/LiteOS_Lab/iot_link/network/dtls/mbedtls/mbedtls-2.16.2/library\x509_crt.c **** 
1515:C:/Users/dtjld/workspace/AIoT/src/LiteOS_Lab/iot_link/network/dtls/mbedtls/mbedtls-2.16.2/library\x509_crt.c ****         cur = cur->next;
 4527              		.loc 2 1515 0 discriminator 4
 4528 0074 FB69     		ldr	r3, [r7, #28]
 4529 0076 DB68     		ldr	r3, [r3, #12]
 4530 0078 FB61     		str	r3, [r7, #28]
 4531              	.L321:
1505:C:/Users/dtjld/workspace/AIoT/src/LiteOS_Lab/iot_link/network/dtls/mbedtls/mbedtls-2.16.2/library\x509_crt.c ****     {
 4532              		.loc 2 1505 0
 4533 007a FB69     		ldr	r3, [r7, #28]
 4534 007c 002B     		cmp	r3, #0
 4535 007e D0D1     		bne	.L326
1516:C:/Users/dtjld/workspace/AIoT/src/LiteOS_Lab/iot_link/network/dtls/mbedtls/mbedtls-2.16.2/library\x509_crt.c ****     }
1517:C:/Users/dtjld/workspace/AIoT/src/LiteOS_Lab/iot_link/network/dtls/mbedtls/mbedtls-2.16.2/library\x509_crt.c **** 
1518:C:/Users/dtjld/workspace/AIoT/src/LiteOS_Lab/iot_link/network/dtls/mbedtls/mbedtls-2.16.2/library\x509_crt.c ****     *size = n;
 4536              		.loc 2 1518 0
 4537 0080 BB68     		ldr	r3, [r7, #8]
 4538 0082 7A6A     		ldr	r2, [r7, #36]
 4539 0084 1A60     		str	r2, [r3]
1519:C:/Users/dtjld/workspace/AIoT/src/LiteOS_Lab/iot_link/network/dtls/mbedtls/mbedtls-2.16.2/library\x509_crt.c ****     *buf = p;
 4540              		.loc 2 1519 0
 4541 0086 FB68     		ldr	r3, [r7, #12]
 4542 0088 3A6A     		ldr	r2, [r7, #32]
 4543 008a 1A60     		str	r2, [r3]
1520:C:/Users/dtjld/workspace/AIoT/src/LiteOS_Lab/iot_link/network/dtls/mbedtls/mbedtls-2.16.2/library\x509_crt.c **** 
1521:C:/Users/dtjld/workspace/AIoT/src/LiteOS_Lab/iot_link/network/dtls/mbedtls/mbedtls-2.16.2/library\x509_crt.c ****     return( 0 );
 4544              		.loc 2 1521 0
 4545 008c 0023     		movs	r3, #0
 4546              	.L327:
1522:C:/Users/dtjld/workspace/AIoT/src/LiteOS_Lab/iot_link/network/dtls/mbedtls/mbedtls-2.16.2/library\x509_crt.c **** }
 4547              		.loc 2 1522 0 discriminator 1
 4548 008e 1846     		mov	r0, r3
 4549 0090 2C37     		adds	r7, r7, #44
 4550              	.LCFI129:
 4551              		.cfi_def_cfa_offset 12
 4552 0092 BD46     		mov	sp, r7
 4553              	.LCFI130:
 4554              		.cfi_def_cfa_register 13
 4555              		@ sp needed
 4556 0094 90BD     		pop	{r4, r7, pc}
 4557              	.L329:
 4558 0096 00BF     		.align	2
 4559              	.L328:
 4560 0098 38000000 		.word	.LC2
 4561 009c 50010000 		.word	.LC21
 4562 00a0 00000000 		.word	mbedtls_snprintf
 4563 00a4 54010000 		.word	.LC22
 4564 00a8 80D6FFFF 		.word	-10624
 4565 00ac 3C000000 		.word	.LC3
 4566              		.cfi_endproc
 4567              	.LFE36:
 4569              		.section	.rodata
 4570 0159 000000   		.align	2
 4571              	.LC23:
ARM GAS  C:\Users\dtjld\AppData\Local\Temp\ccTXdst3.s 			page 112


 4572 015c 0A436572 		.ascii	"\012Certificate is uninitialised!\012\000"
 4572      74696669 
 4572      63617465 
 4572      20697320 
 4572      756E696E 
 4573              		.align	2
 4574              	.LC24:
 4575 017c 25736365 		.ascii	"%scert. version     : %d\012\000"
 4575      72742E20 
 4575      76657273 
 4575      696F6E20 
 4575      20202020 
 4576 0196 0000     		.align	2
 4577              	.LC25:
 4578 0198 25737365 		.ascii	"%sserial number     : \000"
 4578      7269616C 
 4578      206E756D 
 4578      62657220 
 4578      20202020 
 4579 01af 00       		.align	2
 4580              	.LC26:
 4581 01b0 0A257369 		.ascii	"\012%sissuer name       : \000"
 4581      73737565 
 4581      72206E61 
 4581      6D652020 
 4581      20202020 
 4582              		.align	2
 4583              	.LC27:
 4584 01c8 0A257373 		.ascii	"\012%ssubject name      : \000"
 4584      75626A65 
 4584      6374206E 
 4584      616D6520 
 4584      20202020 
 4585              		.align	2
 4586              	.LC28:
 4587 01e0 0A257369 		.ascii	"\012%sissued  on        : %04d-%02d-%02d %02d:%02d:"
 4587      73737565 
 4587      6420206F 
 4587      6E202020 
 4587      20202020 
 4588 0210 25303264 		.ascii	"%02d\000"
 4588      00
 4589 0215 000000   		.align	2
 4590              	.LC29:
 4591 0218 0A257365 		.ascii	"\012%sexpires on        : %04d-%02d-%02d %02d:%02d:"
 4591      78706972 
 4591      6573206F 
 4591      6E202020 
 4591      20202020 
 4592 0248 25303264 		.ascii	"%02d\000"
 4592      00
 4593 024d 000000   		.align	2
 4594              	.LC30:
 4595 0250 0A257373 		.ascii	"\012%ssigned using      : \000"
 4595      69676E65 
 4595      64207573 
 4595      696E6720 
ARM GAS  C:\Users\dtjld\AppData\Local\Temp\ccTXdst3.s 			page 113


 4595      20202020 
 4596              		.align	2
 4597              	.LC31:
 4598 0268 0A257325 		.ascii	"\012%s%-18s: %d bits\000"
 4598      2D313873 
 4598      3A202564 
 4598      20626974 
 4598      7300
 4599 027a 0000     		.align	2
 4600              	.LC32:
 4601 027c 74727565 		.ascii	"true\000"
 4601      00
 4602 0281 000000   		.align	2
 4603              	.LC33:
 4604 0284 66616C73 		.ascii	"false\000"
 4604      6500
 4605 028a 0000     		.align	2
 4606              	.LC34:
 4607 028c 0A257362 		.ascii	"\012%sbasic constraints : CA=%s\000"
 4607      61736963 
 4607      20636F6E 
 4607      73747261 
 4607      696E7473 
 4608 02a9 000000   		.align	2
 4609              	.LC35:
 4610 02ac 2C206D61 		.ascii	", max_pathlen=%d\000"
 4610      785F7061 
 4610      74686C65 
 4610      6E3D2564 
 4610      00
 4611 02bd 000000   		.align	2
 4612              	.LC36:
 4613 02c0 0A257373 		.ascii	"\012%ssubject alt name  : \000"
 4613      75626A65 
 4613      63742061 
 4613      6C74206E 
 4613      616D6520 
 4614              		.align	2
 4615              	.LC37:
 4616 02d8 0A257363 		.ascii	"\012%scert. type        : \000"
 4616      6572742E 
 4616      20747970 
 4616      65202020 
 4616      20202020 
 4617              		.align	2
 4618              	.LC38:
 4619 02f0 0A25736B 		.ascii	"\012%skey usage         : \000"
 4619      65792075 
 4619      73616765 
 4619      20202020 
 4619      20202020 
 4620              		.align	2
 4621              	.LC39:
 4622 0308 0A257365 		.ascii	"\012%sext key usage     : \000"
 4622      7874206B 
 4622      65792075 
 4622      73616765 
ARM GAS  C:\Users\dtjld\AppData\Local\Temp\ccTXdst3.s 			page 114


 4622      20202020 
 4623              		.align	2
 4624              	.LC40:
 4625 0320 0A00     		.ascii	"\012\000"
 4626              		.section	.text.mbedtls_x509_crt_info,"ax",%progbits
 4627              		.align	1
 4628              		.global	mbedtls_x509_crt_info
 4629              		.syntax unified
 4630              		.thumb
 4631              		.thumb_func
 4632              		.fpu fpv4-sp-d16
 4634              	mbedtls_x509_crt_info:
 4635              	.LFB37:
1523:C:/Users/dtjld/workspace/AIoT/src/LiteOS_Lab/iot_link/network/dtls/mbedtls/mbedtls-2.16.2/library\x509_crt.c **** 
1524:C:/Users/dtjld/workspace/AIoT/src/LiteOS_Lab/iot_link/network/dtls/mbedtls/mbedtls-2.16.2/library\x509_crt.c **** /*
1525:C:/Users/dtjld/workspace/AIoT/src/LiteOS_Lab/iot_link/network/dtls/mbedtls/mbedtls-2.16.2/library\x509_crt.c ****  * Return an informational string about the certificate.
1526:C:/Users/dtjld/workspace/AIoT/src/LiteOS_Lab/iot_link/network/dtls/mbedtls/mbedtls-2.16.2/library\x509_crt.c ****  */
1527:C:/Users/dtjld/workspace/AIoT/src/LiteOS_Lab/iot_link/network/dtls/mbedtls/mbedtls-2.16.2/library\x509_crt.c **** #define BEFORE_COLON    18
1528:C:/Users/dtjld/workspace/AIoT/src/LiteOS_Lab/iot_link/network/dtls/mbedtls/mbedtls-2.16.2/library\x509_crt.c **** #define BC              "18"
1529:C:/Users/dtjld/workspace/AIoT/src/LiteOS_Lab/iot_link/network/dtls/mbedtls/mbedtls-2.16.2/library\x509_crt.c **** int mbedtls_x509_crt_info( char *buf, size_t size, const char *prefix,
1530:C:/Users/dtjld/workspace/AIoT/src/LiteOS_Lab/iot_link/network/dtls/mbedtls/mbedtls-2.16.2/library\x509_crt.c ****                    const mbedtls_x509_crt *crt )
1531:C:/Users/dtjld/workspace/AIoT/src/LiteOS_Lab/iot_link/network/dtls/mbedtls/mbedtls-2.16.2/library\x509_crt.c **** {
 4636              		.loc 2 1531 0
 4637              		.cfi_startproc
 4638              		@ args = 0, pretend = 0, frame = 56
 4639              		@ frame_needed = 1, uses_anonymous_args = 0
 4640 0000 F0B5     		push	{r4, r5, r6, r7, lr}
 4641              	.LCFI131:
 4642              		.cfi_def_cfa_offset 20
 4643              		.cfi_offset 4, -20
 4644              		.cfi_offset 5, -16
 4645              		.cfi_offset 6, -12
 4646              		.cfi_offset 7, -8
 4647              		.cfi_offset 14, -4
 4648 0002 95B0     		sub	sp, sp, #84
 4649              	.LCFI132:
 4650              		.cfi_def_cfa_offset 104
 4651 0004 06AF     		add	r7, sp, #24
 4652              	.LCFI133:
 4653              		.cfi_def_cfa 7, 80
 4654 0006 7861     		str	r0, [r7, #20]
 4655 0008 3961     		str	r1, [r7, #16]
 4656 000a FA60     		str	r2, [r7, #12]
 4657 000c BB60     		str	r3, [r7, #8]
1532:C:/Users/dtjld/workspace/AIoT/src/LiteOS_Lab/iot_link/network/dtls/mbedtls/mbedtls-2.16.2/library\x509_crt.c ****     int ret;
1533:C:/Users/dtjld/workspace/AIoT/src/LiteOS_Lab/iot_link/network/dtls/mbedtls/mbedtls-2.16.2/library\x509_crt.c ****     size_t n;
1534:C:/Users/dtjld/workspace/AIoT/src/LiteOS_Lab/iot_link/network/dtls/mbedtls/mbedtls-2.16.2/library\x509_crt.c ****     char *p;
1535:C:/Users/dtjld/workspace/AIoT/src/LiteOS_Lab/iot_link/network/dtls/mbedtls/mbedtls-2.16.2/library\x509_crt.c ****     char key_size_str[BEFORE_COLON];
1536:C:/Users/dtjld/workspace/AIoT/src/LiteOS_Lab/iot_link/network/dtls/mbedtls/mbedtls-2.16.2/library\x509_crt.c **** 
1537:C:/Users/dtjld/workspace/AIoT/src/LiteOS_Lab/iot_link/network/dtls/mbedtls/mbedtls-2.16.2/library\x509_crt.c ****     p = buf;
 4658              		.loc 2 1537 0
 4659 000e 7B69     		ldr	r3, [r7, #20]
 4660 0010 FB62     		str	r3, [r7, #44]
1538:C:/Users/dtjld/workspace/AIoT/src/LiteOS_Lab/iot_link/network/dtls/mbedtls/mbedtls-2.16.2/library\x509_crt.c ****     n = size;
 4661              		.loc 2 1538 0
 4662 0012 3B69     		ldr	r3, [r7, #16]
 4663 0014 3B63     		str	r3, [r7, #48]
ARM GAS  C:\Users\dtjld\AppData\Local\Temp\ccTXdst3.s 			page 115


1539:C:/Users/dtjld/workspace/AIoT/src/LiteOS_Lab/iot_link/network/dtls/mbedtls/mbedtls-2.16.2/library\x509_crt.c **** 
1540:C:/Users/dtjld/workspace/AIoT/src/LiteOS_Lab/iot_link/network/dtls/mbedtls/mbedtls-2.16.2/library\x509_crt.c ****     if( NULL == crt )
 4664              		.loc 2 1540 0
 4665 0016 BB68     		ldr	r3, [r7, #8]
 4666 0018 002B     		cmp	r3, #0
 4667 001a 1BD1     		bne	.L331
1541:C:/Users/dtjld/workspace/AIoT/src/LiteOS_Lab/iot_link/network/dtls/mbedtls/mbedtls-2.16.2/library\x509_crt.c ****     {
1542:C:/Users/dtjld/workspace/AIoT/src/LiteOS_Lab/iot_link/network/dtls/mbedtls/mbedtls-2.16.2/library\x509_crt.c ****         ret = mbedtls_snprintf( p, n, "\nCertificate is uninitialised!\n" );
 4668              		.loc 2 1542 0
 4669 001c 7D4B     		ldr	r3, .L382
 4670 001e 1B68     		ldr	r3, [r3]
 4671 0020 F86A     		ldr	r0, [r7, #44]
 4672 0022 396B     		ldr	r1, [r7, #48]
 4673 0024 7C4A     		ldr	r2, .L382+4
 4674 0026 9847     		blx	r3
 4675              	.LVL18:
 4676 0028 7863     		str	r0, [r7, #52]
1543:C:/Users/dtjld/workspace/AIoT/src/LiteOS_Lab/iot_link/network/dtls/mbedtls/mbedtls-2.16.2/library\x509_crt.c ****         MBEDTLS_X509_SAFE_SNPRINTF;
 4677              		.loc 2 1543 0
 4678 002a 7B6B     		ldr	r3, [r7, #52]
 4679 002c 002B     		cmp	r3, #0
 4680 002e 03DB     		blt	.L332
 4681              		.loc 2 1543 0 is_stmt 0 discriminator 2
 4682 0030 7A6B     		ldr	r2, [r7, #52]
 4683 0032 3B6B     		ldr	r3, [r7, #48]
 4684 0034 9A42     		cmp	r2, r3
 4685 0036 01D3     		bcc	.L333
 4686              	.L332:
 4687              		.loc 2 1543 0 discriminator 3
 4688 0038 784B     		ldr	r3, .L382+8
 4689 003a E8E2     		b	.L381
 4690              	.L333:
 4691              		.loc 2 1543 0 discriminator 4
 4692 003c 3A6B     		ldr	r2, [r7, #48]
 4693 003e 7B6B     		ldr	r3, [r7, #52]
 4694 0040 D31A     		subs	r3, r2, r3
 4695 0042 3B63     		str	r3, [r7, #48]
 4696 0044 FA6A     		ldr	r2, [r7, #44]
 4697 0046 7B6B     		ldr	r3, [r7, #52]
 4698 0048 1344     		add	r3, r3, r2
 4699 004a FB62     		str	r3, [r7, #44]
1544:C:/Users/dtjld/workspace/AIoT/src/LiteOS_Lab/iot_link/network/dtls/mbedtls/mbedtls-2.16.2/library\x509_crt.c **** 
1545:C:/Users/dtjld/workspace/AIoT/src/LiteOS_Lab/iot_link/network/dtls/mbedtls/mbedtls-2.16.2/library\x509_crt.c ****         return( (int) ( size - n ) );
 4700              		.loc 2 1545 0 is_stmt 1 discriminator 4
 4701 004c 3B6B     		ldr	r3, [r7, #48]
 4702 004e 3A69     		ldr	r2, [r7, #16]
 4703 0050 D31A     		subs	r3, r2, r3
 4704 0052 DCE2     		b	.L381
 4705              	.L331:
1546:C:/Users/dtjld/workspace/AIoT/src/LiteOS_Lab/iot_link/network/dtls/mbedtls/mbedtls-2.16.2/library\x509_crt.c ****     }
1547:C:/Users/dtjld/workspace/AIoT/src/LiteOS_Lab/iot_link/network/dtls/mbedtls/mbedtls-2.16.2/library\x509_crt.c **** 
1548:C:/Users/dtjld/workspace/AIoT/src/LiteOS_Lab/iot_link/network/dtls/mbedtls/mbedtls-2.16.2/library\x509_crt.c ****     ret = mbedtls_snprintf( p, n, "%scert. version     : %d\n",
 4706              		.loc 2 1548 0
 4707 0054 6F4B     		ldr	r3, .L382
 4708 0056 1C68     		ldr	r4, [r3]
 4709 0058 F86A     		ldr	r0, [r7, #44]
 4710 005a 396B     		ldr	r1, [r7, #48]
ARM GAS  C:\Users\dtjld\AppData\Local\Temp\ccTXdst3.s 			page 116


 4711 005c BB68     		ldr	r3, [r7, #8]
 4712 005e 9B69     		ldr	r3, [r3, #24]
 4713 0060 0093     		str	r3, [sp]
 4714 0062 FB68     		ldr	r3, [r7, #12]
 4715 0064 6E4A     		ldr	r2, .L382+12
 4716 0066 A047     		blx	r4
 4717              	.LVL19:
 4718 0068 7863     		str	r0, [r7, #52]
1549:C:/Users/dtjld/workspace/AIoT/src/LiteOS_Lab/iot_link/network/dtls/mbedtls/mbedtls-2.16.2/library\x509_crt.c ****                                prefix, crt->version );
1550:C:/Users/dtjld/workspace/AIoT/src/LiteOS_Lab/iot_link/network/dtls/mbedtls/mbedtls-2.16.2/library\x509_crt.c ****     MBEDTLS_X509_SAFE_SNPRINTF;
 4719              		.loc 2 1550 0
 4720 006a 7B6B     		ldr	r3, [r7, #52]
 4721 006c 002B     		cmp	r3, #0
 4722 006e 03DB     		blt	.L335
 4723              		.loc 2 1550 0 is_stmt 0 discriminator 2
 4724 0070 7A6B     		ldr	r2, [r7, #52]
 4725 0072 3B6B     		ldr	r3, [r7, #48]
 4726 0074 9A42     		cmp	r2, r3
 4727 0076 01D3     		bcc	.L336
 4728              	.L335:
 4729              		.loc 2 1550 0 discriminator 3
 4730 0078 684B     		ldr	r3, .L382+8
 4731 007a C8E2     		b	.L381
 4732              	.L336:
 4733              		.loc 2 1550 0 discriminator 4
 4734 007c 3A6B     		ldr	r2, [r7, #48]
 4735 007e 7B6B     		ldr	r3, [r7, #52]
 4736 0080 D31A     		subs	r3, r2, r3
 4737 0082 3B63     		str	r3, [r7, #48]
 4738 0084 FA6A     		ldr	r2, [r7, #44]
 4739 0086 7B6B     		ldr	r3, [r7, #52]
 4740 0088 1344     		add	r3, r3, r2
 4741 008a FB62     		str	r3, [r7, #44]
1551:C:/Users/dtjld/workspace/AIoT/src/LiteOS_Lab/iot_link/network/dtls/mbedtls/mbedtls-2.16.2/library\x509_crt.c ****     ret = mbedtls_snprintf( p, n, "%sserial number     : ",
 4742              		.loc 2 1551 0 is_stmt 1 discriminator 4
 4743 008c 614B     		ldr	r3, .L382
 4744 008e 1C68     		ldr	r4, [r3]
 4745 0090 F86A     		ldr	r0, [r7, #44]
 4746 0092 396B     		ldr	r1, [r7, #48]
 4747 0094 FB68     		ldr	r3, [r7, #12]
 4748 0096 634A     		ldr	r2, .L382+16
 4749 0098 A047     		blx	r4
 4750              	.LVL20:
 4751 009a 7863     		str	r0, [r7, #52]
1552:C:/Users/dtjld/workspace/AIoT/src/LiteOS_Lab/iot_link/network/dtls/mbedtls/mbedtls-2.16.2/library\x509_crt.c ****                                prefix );
1553:C:/Users/dtjld/workspace/AIoT/src/LiteOS_Lab/iot_link/network/dtls/mbedtls/mbedtls-2.16.2/library\x509_crt.c ****     MBEDTLS_X509_SAFE_SNPRINTF;
 4752              		.loc 2 1553 0 discriminator 4
 4753 009c 7B6B     		ldr	r3, [r7, #52]
 4754 009e 002B     		cmp	r3, #0
 4755 00a0 03DB     		blt	.L337
 4756              		.loc 2 1553 0 is_stmt 0 discriminator 2
 4757 00a2 7A6B     		ldr	r2, [r7, #52]
 4758 00a4 3B6B     		ldr	r3, [r7, #48]
 4759 00a6 9A42     		cmp	r2, r3
 4760 00a8 01D3     		bcc	.L338
 4761              	.L337:
 4762              		.loc 2 1553 0 discriminator 3
ARM GAS  C:\Users\dtjld\AppData\Local\Temp\ccTXdst3.s 			page 117


 4763 00aa 5C4B     		ldr	r3, .L382+8
 4764 00ac AFE2     		b	.L381
 4765              	.L338:
 4766              		.loc 2 1553 0 discriminator 4
 4767 00ae 3A6B     		ldr	r2, [r7, #48]
 4768 00b0 7B6B     		ldr	r3, [r7, #52]
 4769 00b2 D31A     		subs	r3, r2, r3
 4770 00b4 3B63     		str	r3, [r7, #48]
 4771 00b6 FA6A     		ldr	r2, [r7, #44]
 4772 00b8 7B6B     		ldr	r3, [r7, #52]
 4773 00ba 1344     		add	r3, r3, r2
 4774 00bc FB62     		str	r3, [r7, #44]
1554:C:/Users/dtjld/workspace/AIoT/src/LiteOS_Lab/iot_link/network/dtls/mbedtls/mbedtls-2.16.2/library\x509_crt.c **** 
1555:C:/Users/dtjld/workspace/AIoT/src/LiteOS_Lab/iot_link/network/dtls/mbedtls/mbedtls-2.16.2/library\x509_crt.c ****     ret = mbedtls_x509_serial_gets( p, n, &crt->serial );
 4775              		.loc 2 1555 0 is_stmt 1 discriminator 4
 4776 00be F86A     		ldr	r0, [r7, #44]
 4777 00c0 396B     		ldr	r1, [r7, #48]
 4778 00c2 BB68     		ldr	r3, [r7, #8]
 4779 00c4 1C33     		adds	r3, r3, #28
 4780 00c6 1A46     		mov	r2, r3
 4781 00c8 FFF7FEFF 		bl	mbedtls_x509_serial_gets
 4782 00cc 7863     		str	r0, [r7, #52]
1556:C:/Users/dtjld/workspace/AIoT/src/LiteOS_Lab/iot_link/network/dtls/mbedtls/mbedtls-2.16.2/library\x509_crt.c ****     MBEDTLS_X509_SAFE_SNPRINTF;
 4783              		.loc 2 1556 0 discriminator 4
 4784 00ce 7B6B     		ldr	r3, [r7, #52]
 4785 00d0 002B     		cmp	r3, #0
 4786 00d2 03DB     		blt	.L339
 4787              		.loc 2 1556 0 is_stmt 0 discriminator 2
 4788 00d4 7A6B     		ldr	r2, [r7, #52]
 4789 00d6 3B6B     		ldr	r3, [r7, #48]
 4790 00d8 9A42     		cmp	r2, r3
 4791 00da 01D3     		bcc	.L340
 4792              	.L339:
 4793              		.loc 2 1556 0 discriminator 3
 4794 00dc 4F4B     		ldr	r3, .L382+8
 4795 00de 96E2     		b	.L381
 4796              	.L340:
 4797              		.loc 2 1556 0 discriminator 4
 4798 00e0 3A6B     		ldr	r2, [r7, #48]
 4799 00e2 7B6B     		ldr	r3, [r7, #52]
 4800 00e4 D31A     		subs	r3, r2, r3
 4801 00e6 3B63     		str	r3, [r7, #48]
 4802 00e8 FA6A     		ldr	r2, [r7, #44]
 4803 00ea 7B6B     		ldr	r3, [r7, #52]
 4804 00ec 1344     		add	r3, r3, r2
 4805 00ee FB62     		str	r3, [r7, #44]
1557:C:/Users/dtjld/workspace/AIoT/src/LiteOS_Lab/iot_link/network/dtls/mbedtls/mbedtls-2.16.2/library\x509_crt.c **** 
1558:C:/Users/dtjld/workspace/AIoT/src/LiteOS_Lab/iot_link/network/dtls/mbedtls/mbedtls-2.16.2/library\x509_crt.c ****     ret = mbedtls_snprintf( p, n, "\n%sissuer name       : ", prefix );
 4806              		.loc 2 1558 0 is_stmt 1 discriminator 4
 4807 00f0 484B     		ldr	r3, .L382
 4808 00f2 1C68     		ldr	r4, [r3]
 4809 00f4 F86A     		ldr	r0, [r7, #44]
 4810 00f6 396B     		ldr	r1, [r7, #48]
 4811 00f8 FB68     		ldr	r3, [r7, #12]
 4812 00fa 4B4A     		ldr	r2, .L382+20
 4813 00fc A047     		blx	r4
 4814              	.LVL21:
ARM GAS  C:\Users\dtjld\AppData\Local\Temp\ccTXdst3.s 			page 118


 4815 00fe 7863     		str	r0, [r7, #52]
1559:C:/Users/dtjld/workspace/AIoT/src/LiteOS_Lab/iot_link/network/dtls/mbedtls/mbedtls-2.16.2/library\x509_crt.c ****     MBEDTLS_X509_SAFE_SNPRINTF;
 4816              		.loc 2 1559 0 discriminator 4
 4817 0100 7B6B     		ldr	r3, [r7, #52]
 4818 0102 002B     		cmp	r3, #0
 4819 0104 03DB     		blt	.L341
 4820              		.loc 2 1559 0 is_stmt 0 discriminator 2
 4821 0106 7A6B     		ldr	r2, [r7, #52]
 4822 0108 3B6B     		ldr	r3, [r7, #48]
 4823 010a 9A42     		cmp	r2, r3
 4824 010c 01D3     		bcc	.L342
 4825              	.L341:
 4826              		.loc 2 1559 0 discriminator 3
 4827 010e 434B     		ldr	r3, .L382+8
 4828 0110 7DE2     		b	.L381
 4829              	.L342:
 4830              		.loc 2 1559 0 discriminator 4
 4831 0112 3A6B     		ldr	r2, [r7, #48]
 4832 0114 7B6B     		ldr	r3, [r7, #52]
 4833 0116 D31A     		subs	r3, r2, r3
 4834 0118 3B63     		str	r3, [r7, #48]
 4835 011a FA6A     		ldr	r2, [r7, #44]
 4836 011c 7B6B     		ldr	r3, [r7, #52]
 4837 011e 1344     		add	r3, r3, r2
 4838 0120 FB62     		str	r3, [r7, #44]
1560:C:/Users/dtjld/workspace/AIoT/src/LiteOS_Lab/iot_link/network/dtls/mbedtls/mbedtls-2.16.2/library\x509_crt.c ****     ret = mbedtls_x509_dn_gets( p, n, &crt->issuer  );
 4839              		.loc 2 1560 0 is_stmt 1 discriminator 4
 4840 0122 F86A     		ldr	r0, [r7, #44]
 4841 0124 396B     		ldr	r1, [r7, #48]
 4842 0126 BB68     		ldr	r3, [r7, #8]
 4843 0128 4C33     		adds	r3, r3, #76
 4844 012a 1A46     		mov	r2, r3
 4845 012c FFF7FEFF 		bl	mbedtls_x509_dn_gets
 4846 0130 7863     		str	r0, [r7, #52]
1561:C:/Users/dtjld/workspace/AIoT/src/LiteOS_Lab/iot_link/network/dtls/mbedtls/mbedtls-2.16.2/library\x509_crt.c ****     MBEDTLS_X509_SAFE_SNPRINTF;
 4847              		.loc 2 1561 0 discriminator 4
 4848 0132 7B6B     		ldr	r3, [r7, #52]
 4849 0134 002B     		cmp	r3, #0
 4850 0136 03DB     		blt	.L343
 4851              		.loc 2 1561 0 is_stmt 0 discriminator 2
 4852 0138 7A6B     		ldr	r2, [r7, #52]
 4853 013a 3B6B     		ldr	r3, [r7, #48]
 4854 013c 9A42     		cmp	r2, r3
 4855 013e 01D3     		bcc	.L344
 4856              	.L343:
 4857              		.loc 2 1561 0 discriminator 3
 4858 0140 364B     		ldr	r3, .L382+8
 4859 0142 64E2     		b	.L381
 4860              	.L344:
 4861              		.loc 2 1561 0 discriminator 4
 4862 0144 3A6B     		ldr	r2, [r7, #48]
 4863 0146 7B6B     		ldr	r3, [r7, #52]
 4864 0148 D31A     		subs	r3, r2, r3
 4865 014a 3B63     		str	r3, [r7, #48]
 4866 014c FA6A     		ldr	r2, [r7, #44]
 4867 014e 7B6B     		ldr	r3, [r7, #52]
 4868 0150 1344     		add	r3, r3, r2
ARM GAS  C:\Users\dtjld\AppData\Local\Temp\ccTXdst3.s 			page 119


 4869 0152 FB62     		str	r3, [r7, #44]
1562:C:/Users/dtjld/workspace/AIoT/src/LiteOS_Lab/iot_link/network/dtls/mbedtls/mbedtls-2.16.2/library\x509_crt.c **** 
1563:C:/Users/dtjld/workspace/AIoT/src/LiteOS_Lab/iot_link/network/dtls/mbedtls/mbedtls-2.16.2/library\x509_crt.c ****     ret = mbedtls_snprintf( p, n, "\n%ssubject name      : ", prefix );
 4870              		.loc 2 1563 0 is_stmt 1 discriminator 4
 4871 0154 2F4B     		ldr	r3, .L382
 4872 0156 1C68     		ldr	r4, [r3]
 4873 0158 F86A     		ldr	r0, [r7, #44]
 4874 015a 396B     		ldr	r1, [r7, #48]
 4875 015c FB68     		ldr	r3, [r7, #12]
 4876 015e 334A     		ldr	r2, .L382+24
 4877 0160 A047     		blx	r4
 4878              	.LVL22:
 4879 0162 7863     		str	r0, [r7, #52]
1564:C:/Users/dtjld/workspace/AIoT/src/LiteOS_Lab/iot_link/network/dtls/mbedtls/mbedtls-2.16.2/library\x509_crt.c ****     MBEDTLS_X509_SAFE_SNPRINTF;
 4880              		.loc 2 1564 0 discriminator 4
 4881 0164 7B6B     		ldr	r3, [r7, #52]
 4882 0166 002B     		cmp	r3, #0
 4883 0168 03DB     		blt	.L345
 4884              		.loc 2 1564 0 is_stmt 0 discriminator 2
 4885 016a 7A6B     		ldr	r2, [r7, #52]
 4886 016c 3B6B     		ldr	r3, [r7, #48]
 4887 016e 9A42     		cmp	r2, r3
 4888 0170 01D3     		bcc	.L346
 4889              	.L345:
 4890              		.loc 2 1564 0 discriminator 3
 4891 0172 2A4B     		ldr	r3, .L382+8
 4892 0174 4BE2     		b	.L381
 4893              	.L346:
 4894              		.loc 2 1564 0 discriminator 4
 4895 0176 3A6B     		ldr	r2, [r7, #48]
 4896 0178 7B6B     		ldr	r3, [r7, #52]
 4897 017a D31A     		subs	r3, r2, r3
 4898 017c 3B63     		str	r3, [r7, #48]
 4899 017e FA6A     		ldr	r2, [r7, #44]
 4900 0180 7B6B     		ldr	r3, [r7, #52]
 4901 0182 1344     		add	r3, r3, r2
 4902 0184 FB62     		str	r3, [r7, #44]
1565:C:/Users/dtjld/workspace/AIoT/src/LiteOS_Lab/iot_link/network/dtls/mbedtls/mbedtls-2.16.2/library\x509_crt.c ****     ret = mbedtls_x509_dn_gets( p, n, &crt->subject );
 4903              		.loc 2 1565 0 is_stmt 1 discriminator 4
 4904 0186 F86A     		ldr	r0, [r7, #44]
 4905 0188 396B     		ldr	r1, [r7, #48]
 4906 018a BB68     		ldr	r3, [r7, #8]
 4907 018c 6C33     		adds	r3, r3, #108
 4908 018e 1A46     		mov	r2, r3
 4909 0190 FFF7FEFF 		bl	mbedtls_x509_dn_gets
 4910 0194 7863     		str	r0, [r7, #52]
1566:C:/Users/dtjld/workspace/AIoT/src/LiteOS_Lab/iot_link/network/dtls/mbedtls/mbedtls-2.16.2/library\x509_crt.c ****     MBEDTLS_X509_SAFE_SNPRINTF;
 4911              		.loc 2 1566 0 discriminator 4
 4912 0196 7B6B     		ldr	r3, [r7, #52]
 4913 0198 002B     		cmp	r3, #0
 4914 019a 03DB     		blt	.L347
 4915              		.loc 2 1566 0 is_stmt 0 discriminator 2
 4916 019c 7A6B     		ldr	r2, [r7, #52]
 4917 019e 3B6B     		ldr	r3, [r7, #48]
 4918 01a0 9A42     		cmp	r2, r3
 4919 01a2 01D3     		bcc	.L348
 4920              	.L347:
ARM GAS  C:\Users\dtjld\AppData\Local\Temp\ccTXdst3.s 			page 120


 4921              		.loc 2 1566 0 discriminator 3
 4922 01a4 1D4B     		ldr	r3, .L382+8
 4923 01a6 32E2     		b	.L381
 4924              	.L348:
 4925              		.loc 2 1566 0 discriminator 4
 4926 01a8 3A6B     		ldr	r2, [r7, #48]
 4927 01aa 7B6B     		ldr	r3, [r7, #52]
 4928 01ac D31A     		subs	r3, r2, r3
 4929 01ae 3B63     		str	r3, [r7, #48]
 4930 01b0 FA6A     		ldr	r2, [r7, #44]
 4931 01b2 7B6B     		ldr	r3, [r7, #52]
 4932 01b4 1344     		add	r3, r3, r2
 4933 01b6 FB62     		str	r3, [r7, #44]
1567:C:/Users/dtjld/workspace/AIoT/src/LiteOS_Lab/iot_link/network/dtls/mbedtls/mbedtls-2.16.2/library\x509_crt.c **** 
1568:C:/Users/dtjld/workspace/AIoT/src/LiteOS_Lab/iot_link/network/dtls/mbedtls/mbedtls-2.16.2/library\x509_crt.c ****     ret = mbedtls_snprintf( p, n, "\n%sissued  on        : " \
 4934              		.loc 2 1568 0 is_stmt 1 discriminator 4
 4935 01b8 164B     		ldr	r3, .L382
 4936 01ba 1C68     		ldr	r4, [r3]
 4937 01bc FB6A     		ldr	r3, [r7, #44]
 4938 01be 7B60     		str	r3, [r7, #4]
 4939 01c0 3A6B     		ldr	r2, [r7, #48]
 4940 01c2 3A60     		str	r2, [r7]
 4941 01c4 BB68     		ldr	r3, [r7, #8]
 4942 01c6 D3F88C30 		ldr	r3, [r3, #140]
 4943 01ca BA68     		ldr	r2, [r7, #8]
 4944 01cc D2F89020 		ldr	r2, [r2, #144]
 4945 01d0 B968     		ldr	r1, [r7, #8]
 4946 01d2 D1F89410 		ldr	r1, [r1, #148]
 4947 01d6 B868     		ldr	r0, [r7, #8]
 4948 01d8 D0F89800 		ldr	r0, [r0, #152]
 4949 01dc BD68     		ldr	r5, [r7, #8]
 4950 01de D5F89C50 		ldr	r5, [r5, #156]
 4951 01e2 BE68     		ldr	r6, [r7, #8]
 4952 01e4 D6F8A060 		ldr	r6, [r6, #160]
 4953 01e8 0596     		str	r6, [sp, #20]
 4954 01ea 0495     		str	r5, [sp, #16]
 4955 01ec 0390     		str	r0, [sp, #12]
 4956 01ee 0291     		str	r1, [sp, #8]
 4957 01f0 0192     		str	r2, [sp, #4]
 4958 01f2 0093     		str	r3, [sp]
 4959 01f4 FB68     		ldr	r3, [r7, #12]
 4960 01f6 0E4A     		ldr	r2, .L382+28
 4961 01f8 3968     		ldr	r1, [r7]
 4962 01fa 7868     		ldr	r0, [r7, #4]
 4963 01fc A047     		blx	r4
 4964              	.LVL23:
 4965 01fe 7863     		str	r0, [r7, #52]
1569:C:/Users/dtjld/workspace/AIoT/src/LiteOS_Lab/iot_link/network/dtls/mbedtls/mbedtls-2.16.2/library\x509_crt.c ****                    "%04d-%02d-%02d %02d:%02d:%02d", prefix,
1570:C:/Users/dtjld/workspace/AIoT/src/LiteOS_Lab/iot_link/network/dtls/mbedtls/mbedtls-2.16.2/library\x509_crt.c ****                    crt->valid_from.year, crt->valid_from.mon,
1571:C:/Users/dtjld/workspace/AIoT/src/LiteOS_Lab/iot_link/network/dtls/mbedtls/mbedtls-2.16.2/library\x509_crt.c ****                    crt->valid_from.day,  crt->valid_from.hour,
1572:C:/Users/dtjld/workspace/AIoT/src/LiteOS_Lab/iot_link/network/dtls/mbedtls/mbedtls-2.16.2/library\x509_crt.c ****                    crt->valid_from.min,  crt->valid_from.sec );
1573:C:/Users/dtjld/workspace/AIoT/src/LiteOS_Lab/iot_link/network/dtls/mbedtls/mbedtls-2.16.2/library\x509_crt.c ****     MBEDTLS_X509_SAFE_SNPRINTF;
 4966              		.loc 2 1573 0 discriminator 4
 4967 0200 7B6B     		ldr	r3, [r7, #52]
 4968 0202 002B     		cmp	r3, #0
 4969 0204 03DB     		blt	.L349
 4970              		.loc 2 1573 0 is_stmt 0 discriminator 2
ARM GAS  C:\Users\dtjld\AppData\Local\Temp\ccTXdst3.s 			page 121


 4971 0206 7A6B     		ldr	r2, [r7, #52]
 4972 0208 3B6B     		ldr	r3, [r7, #48]
 4973 020a 9A42     		cmp	r2, r3
 4974 020c 12D3     		bcc	.L350
 4975              	.L349:
 4976              		.loc 2 1573 0 discriminator 3
 4977 020e 034B     		ldr	r3, .L382+8
 4978 0210 FDE1     		b	.L381
 4979              	.L383:
 4980 0212 00BF     		.align	2
 4981              	.L382:
 4982 0214 00000000 		.word	mbedtls_snprintf
 4983 0218 5C010000 		.word	.LC23
 4984 021c 80D6FFFF 		.word	-10624
 4985 0220 7C010000 		.word	.LC24
 4986 0224 98010000 		.word	.LC25
 4987 0228 B0010000 		.word	.LC26
 4988 022c C8010000 		.word	.LC27
 4989 0230 E0010000 		.word	.LC28
 4990              	.L350:
 4991              		.loc 2 1573 0 discriminator 4
 4992 0234 3A6B     		ldr	r2, [r7, #48]
 4993 0236 7B6B     		ldr	r3, [r7, #52]
 4994 0238 D31A     		subs	r3, r2, r3
 4995 023a 3B63     		str	r3, [r7, #48]
 4996 023c FA6A     		ldr	r2, [r7, #44]
 4997 023e 7B6B     		ldr	r3, [r7, #52]
 4998 0240 1344     		add	r3, r3, r2
 4999 0242 FB62     		str	r3, [r7, #44]
1574:C:/Users/dtjld/workspace/AIoT/src/LiteOS_Lab/iot_link/network/dtls/mbedtls/mbedtls-2.16.2/library\x509_crt.c **** 
1575:C:/Users/dtjld/workspace/AIoT/src/LiteOS_Lab/iot_link/network/dtls/mbedtls/mbedtls-2.16.2/library\x509_crt.c ****     ret = mbedtls_snprintf( p, n, "\n%sexpires on        : " \
 5000              		.loc 2 1575 0 is_stmt 1 discriminator 4
 5001 0244 924B     		ldr	r3, .L384
 5002 0246 1C68     		ldr	r4, [r3]
 5003 0248 FB6A     		ldr	r3, [r7, #44]
 5004 024a 7B60     		str	r3, [r7, #4]
 5005 024c 3A6B     		ldr	r2, [r7, #48]
 5006 024e 3A60     		str	r2, [r7]
 5007 0250 BB68     		ldr	r3, [r7, #8]
 5008 0252 D3F8A430 		ldr	r3, [r3, #164]
 5009 0256 BA68     		ldr	r2, [r7, #8]
 5010 0258 D2F8A820 		ldr	r2, [r2, #168]
 5011 025c B968     		ldr	r1, [r7, #8]
 5012 025e D1F8AC10 		ldr	r1, [r1, #172]
 5013 0262 B868     		ldr	r0, [r7, #8]
 5014 0264 D0F8B000 		ldr	r0, [r0, #176]
 5015 0268 BD68     		ldr	r5, [r7, #8]
 5016 026a D5F8B450 		ldr	r5, [r5, #180]
 5017 026e BE68     		ldr	r6, [r7, #8]
 5018 0270 D6F8B860 		ldr	r6, [r6, #184]
 5019 0274 0596     		str	r6, [sp, #20]
 5020 0276 0495     		str	r5, [sp, #16]
 5021 0278 0390     		str	r0, [sp, #12]
 5022 027a 0291     		str	r1, [sp, #8]
 5023 027c 0192     		str	r2, [sp, #4]
 5024 027e 0093     		str	r3, [sp]
 5025 0280 FB68     		ldr	r3, [r7, #12]
ARM GAS  C:\Users\dtjld\AppData\Local\Temp\ccTXdst3.s 			page 122


 5026 0282 844A     		ldr	r2, .L384+4
 5027 0284 3968     		ldr	r1, [r7]
 5028 0286 7868     		ldr	r0, [r7, #4]
 5029 0288 A047     		blx	r4
 5030              	.LVL24:
 5031 028a 7863     		str	r0, [r7, #52]
1576:C:/Users/dtjld/workspace/AIoT/src/LiteOS_Lab/iot_link/network/dtls/mbedtls/mbedtls-2.16.2/library\x509_crt.c ****                    "%04d-%02d-%02d %02d:%02d:%02d", prefix,
1577:C:/Users/dtjld/workspace/AIoT/src/LiteOS_Lab/iot_link/network/dtls/mbedtls/mbedtls-2.16.2/library\x509_crt.c ****                    crt->valid_to.year, crt->valid_to.mon,
1578:C:/Users/dtjld/workspace/AIoT/src/LiteOS_Lab/iot_link/network/dtls/mbedtls/mbedtls-2.16.2/library\x509_crt.c ****                    crt->valid_to.day,  crt->valid_to.hour,
1579:C:/Users/dtjld/workspace/AIoT/src/LiteOS_Lab/iot_link/network/dtls/mbedtls/mbedtls-2.16.2/library\x509_crt.c ****                    crt->valid_to.min,  crt->valid_to.sec );
1580:C:/Users/dtjld/workspace/AIoT/src/LiteOS_Lab/iot_link/network/dtls/mbedtls/mbedtls-2.16.2/library\x509_crt.c ****     MBEDTLS_X509_SAFE_SNPRINTF;
 5032              		.loc 2 1580 0 discriminator 4
 5033 028c 7B6B     		ldr	r3, [r7, #52]
 5034 028e 002B     		cmp	r3, #0
 5035 0290 03DB     		blt	.L351
 5036              		.loc 2 1580 0 is_stmt 0 discriminator 2
 5037 0292 7A6B     		ldr	r2, [r7, #52]
 5038 0294 3B6B     		ldr	r3, [r7, #48]
 5039 0296 9A42     		cmp	r2, r3
 5040 0298 01D3     		bcc	.L352
 5041              	.L351:
 5042              		.loc 2 1580 0 discriminator 3
 5043 029a 7F4B     		ldr	r3, .L384+8
 5044 029c B7E1     		b	.L381
 5045              	.L352:
 5046              		.loc 2 1580 0 discriminator 4
 5047 029e 3A6B     		ldr	r2, [r7, #48]
 5048 02a0 7B6B     		ldr	r3, [r7, #52]
 5049 02a2 D31A     		subs	r3, r2, r3
 5050 02a4 3B63     		str	r3, [r7, #48]
 5051 02a6 FA6A     		ldr	r2, [r7, #44]
 5052 02a8 7B6B     		ldr	r3, [r7, #52]
 5053 02aa 1344     		add	r3, r3, r2
 5054 02ac FB62     		str	r3, [r7, #44]
1581:C:/Users/dtjld/workspace/AIoT/src/LiteOS_Lab/iot_link/network/dtls/mbedtls/mbedtls-2.16.2/library\x509_crt.c **** 
1582:C:/Users/dtjld/workspace/AIoT/src/LiteOS_Lab/iot_link/network/dtls/mbedtls/mbedtls-2.16.2/library\x509_crt.c ****     ret = mbedtls_snprintf( p, n, "\n%ssigned using      : ", prefix );
 5055              		.loc 2 1582 0 is_stmt 1 discriminator 4
 5056 02ae 784B     		ldr	r3, .L384
 5057 02b0 1C68     		ldr	r4, [r3]
 5058 02b2 F86A     		ldr	r0, [r7, #44]
 5059 02b4 396B     		ldr	r1, [r7, #48]
 5060 02b6 FB68     		ldr	r3, [r7, #12]
 5061 02b8 784A     		ldr	r2, .L384+12
 5062 02ba A047     		blx	r4
 5063              	.LVL25:
 5064 02bc 7863     		str	r0, [r7, #52]
1583:C:/Users/dtjld/workspace/AIoT/src/LiteOS_Lab/iot_link/network/dtls/mbedtls/mbedtls-2.16.2/library\x509_crt.c ****     MBEDTLS_X509_SAFE_SNPRINTF;
 5065              		.loc 2 1583 0 discriminator 4
 5066 02be 7B6B     		ldr	r3, [r7, #52]
 5067 02c0 002B     		cmp	r3, #0
 5068 02c2 03DB     		blt	.L353
 5069              		.loc 2 1583 0 is_stmt 0 discriminator 2
 5070 02c4 7A6B     		ldr	r2, [r7, #52]
 5071 02c6 3B6B     		ldr	r3, [r7, #48]
 5072 02c8 9A42     		cmp	r2, r3
 5073 02ca 01D3     		bcc	.L354
 5074              	.L353:
ARM GAS  C:\Users\dtjld\AppData\Local\Temp\ccTXdst3.s 			page 123


 5075              		.loc 2 1583 0 discriminator 3
 5076 02cc 724B     		ldr	r3, .L384+8
 5077 02ce 9EE1     		b	.L381
 5078              	.L354:
 5079              		.loc 2 1583 0 discriminator 4
 5080 02d0 3A6B     		ldr	r2, [r7, #48]
 5081 02d2 7B6B     		ldr	r3, [r7, #52]
 5082 02d4 D31A     		subs	r3, r2, r3
 5083 02d6 3B63     		str	r3, [r7, #48]
 5084 02d8 FA6A     		ldr	r2, [r7, #44]
 5085 02da 7B6B     		ldr	r3, [r7, #52]
 5086 02dc 1344     		add	r3, r3, r2
 5087 02de FB62     		str	r3, [r7, #44]
1584:C:/Users/dtjld/workspace/AIoT/src/LiteOS_Lab/iot_link/network/dtls/mbedtls/mbedtls-2.16.2/library\x509_crt.c **** 
1585:C:/Users/dtjld/workspace/AIoT/src/LiteOS_Lab/iot_link/network/dtls/mbedtls/mbedtls-2.16.2/library\x509_crt.c ****     ret = mbedtls_x509_sig_alg_gets( p, n, &crt->sig_oid, crt->sig_pk,
 5088              		.loc 2 1585 0 is_stmt 1 discriminator 4
 5089 02e0 F86A     		ldr	r0, [r7, #44]
 5090 02e2 396B     		ldr	r1, [r7, #48]
 5091 02e4 BB68     		ldr	r3, [r7, #8]
 5092 02e6 03F12804 		add	r4, r3, #40
 5093 02ea BB68     		ldr	r3, [r7, #8]
 5094 02ec 93F82951 		ldrb	r5, [r3, #297]	@ zero_extendqisi2
 5095 02f0 BB68     		ldr	r3, [r7, #8]
 5096 02f2 93F82831 		ldrb	r3, [r3, #296]	@ zero_extendqisi2
1586:C:/Users/dtjld/workspace/AIoT/src/LiteOS_Lab/iot_link/network/dtls/mbedtls/mbedtls-2.16.2/library\x509_crt.c ****                              crt->sig_md, crt->sig_opts );
 5097              		.loc 2 1586 0 discriminator 4
 5098 02f6 BA68     		ldr	r2, [r7, #8]
 5099 02f8 D2F82C21 		ldr	r2, [r2, #300]
1585:C:/Users/dtjld/workspace/AIoT/src/LiteOS_Lab/iot_link/network/dtls/mbedtls/mbedtls-2.16.2/library\x509_crt.c ****                              crt->sig_md, crt->sig_opts );
 5100              		.loc 2 1585 0 discriminator 4
 5101 02fc 0192     		str	r2, [sp, #4]
 5102 02fe 0093     		str	r3, [sp]
 5103 0300 2B46     		mov	r3, r5
 5104 0302 2246     		mov	r2, r4
 5105 0304 FFF7FEFF 		bl	mbedtls_x509_sig_alg_gets
 5106 0308 7863     		str	r0, [r7, #52]
1587:C:/Users/dtjld/workspace/AIoT/src/LiteOS_Lab/iot_link/network/dtls/mbedtls/mbedtls-2.16.2/library\x509_crt.c ****     MBEDTLS_X509_SAFE_SNPRINTF;
 5107              		.loc 2 1587 0 discriminator 4
 5108 030a 7B6B     		ldr	r3, [r7, #52]
 5109 030c 002B     		cmp	r3, #0
 5110 030e 03DB     		blt	.L355
 5111              		.loc 2 1587 0 is_stmt 0 discriminator 2
 5112 0310 7A6B     		ldr	r2, [r7, #52]
 5113 0312 3B6B     		ldr	r3, [r7, #48]
 5114 0314 9A42     		cmp	r2, r3
 5115 0316 01D3     		bcc	.L356
 5116              	.L355:
 5117              		.loc 2 1587 0 discriminator 3
 5118 0318 5F4B     		ldr	r3, .L384+8
 5119 031a 78E1     		b	.L381
 5120              	.L356:
 5121              		.loc 2 1587 0 discriminator 4
 5122 031c 3A6B     		ldr	r2, [r7, #48]
 5123 031e 7B6B     		ldr	r3, [r7, #52]
 5124 0320 D31A     		subs	r3, r2, r3
 5125 0322 3B63     		str	r3, [r7, #48]
 5126 0324 FA6A     		ldr	r2, [r7, #44]
ARM GAS  C:\Users\dtjld\AppData\Local\Temp\ccTXdst3.s 			page 124


 5127 0326 7B6B     		ldr	r3, [r7, #52]
 5128 0328 1344     		add	r3, r3, r2
 5129 032a FB62     		str	r3, [r7, #44]
1588:C:/Users/dtjld/workspace/AIoT/src/LiteOS_Lab/iot_link/network/dtls/mbedtls/mbedtls-2.16.2/library\x509_crt.c **** 
1589:C:/Users/dtjld/workspace/AIoT/src/LiteOS_Lab/iot_link/network/dtls/mbedtls/mbedtls-2.16.2/library\x509_crt.c ****     /* Key size */
1590:C:/Users/dtjld/workspace/AIoT/src/LiteOS_Lab/iot_link/network/dtls/mbedtls/mbedtls-2.16.2/library\x509_crt.c ****     if( ( ret = mbedtls_x509_key_size_helper( key_size_str, BEFORE_COLON,
 5130              		.loc 2 1590 0 is_stmt 1 discriminator 4
 5131 032c BB68     		ldr	r3, [r7, #8]
 5132 032e BC33     		adds	r3, r3, #188
 5133 0330 1846     		mov	r0, r3
 5134 0332 FFF7FEFF 		bl	mbedtls_pk_get_name
 5135 0336 0246     		mov	r2, r0
 5136 0338 07F11803 		add	r3, r7, #24
 5137 033c 1221     		movs	r1, #18
 5138 033e 1846     		mov	r0, r3
 5139 0340 FFF7FEFF 		bl	mbedtls_x509_key_size_helper
 5140 0344 7863     		str	r0, [r7, #52]
 5141 0346 7B6B     		ldr	r3, [r7, #52]
 5142 0348 002B     		cmp	r3, #0
 5143 034a 01D0     		beq	.L357
1591:C:/Users/dtjld/workspace/AIoT/src/LiteOS_Lab/iot_link/network/dtls/mbedtls/mbedtls-2.16.2/library\x509_crt.c ****                                       mbedtls_pk_get_name( &crt->pk ) ) ) != 0 )
1592:C:/Users/dtjld/workspace/AIoT/src/LiteOS_Lab/iot_link/network/dtls/mbedtls/mbedtls-2.16.2/library\x509_crt.c ****     {
1593:C:/Users/dtjld/workspace/AIoT/src/LiteOS_Lab/iot_link/network/dtls/mbedtls/mbedtls-2.16.2/library\x509_crt.c ****         return( ret );
 5144              		.loc 2 1593 0
 5145 034c 7B6B     		ldr	r3, [r7, #52]
 5146 034e 5EE1     		b	.L381
 5147              	.L357:
1594:C:/Users/dtjld/workspace/AIoT/src/LiteOS_Lab/iot_link/network/dtls/mbedtls/mbedtls-2.16.2/library\x509_crt.c ****     }
1595:C:/Users/dtjld/workspace/AIoT/src/LiteOS_Lab/iot_link/network/dtls/mbedtls/mbedtls-2.16.2/library\x509_crt.c **** 
1596:C:/Users/dtjld/workspace/AIoT/src/LiteOS_Lab/iot_link/network/dtls/mbedtls/mbedtls-2.16.2/library\x509_crt.c ****     ret = mbedtls_snprintf( p, n, "\n%s%-" BC "s: %d bits", prefix, key_size_str,
 5148              		.loc 2 1596 0
 5149 0350 4F4B     		ldr	r3, .L384
 5150 0352 1C68     		ldr	r4, [r3]
 5151 0354 FD6A     		ldr	r5, [r7, #44]
 5152 0356 3E6B     		ldr	r6, [r7, #48]
1597:C:/Users/dtjld/workspace/AIoT/src/LiteOS_Lab/iot_link/network/dtls/mbedtls/mbedtls-2.16.2/library\x509_crt.c ****                           (int) mbedtls_pk_get_bitlen( &crt->pk ) );
 5153              		.loc 2 1597 0
 5154 0358 BB68     		ldr	r3, [r7, #8]
 5155 035a BC33     		adds	r3, r3, #188
 5156 035c 1846     		mov	r0, r3
 5157 035e FFF7FEFF 		bl	mbedtls_pk_get_bitlen
 5158 0362 0346     		mov	r3, r0
1596:C:/Users/dtjld/workspace/AIoT/src/LiteOS_Lab/iot_link/network/dtls/mbedtls/mbedtls-2.16.2/library\x509_crt.c ****                           (int) mbedtls_pk_get_bitlen( &crt->pk ) );
 5159              		.loc 2 1596 0
 5160 0364 0193     		str	r3, [sp, #4]
 5161 0366 07F11803 		add	r3, r7, #24
 5162 036a 0093     		str	r3, [sp]
 5163 036c FB68     		ldr	r3, [r7, #12]
 5164 036e 4C4A     		ldr	r2, .L384+16
 5165 0370 3146     		mov	r1, r6
 5166 0372 2846     		mov	r0, r5
 5167 0374 A047     		blx	r4
 5168              	.LVL26:
 5169 0376 7863     		str	r0, [r7, #52]
1598:C:/Users/dtjld/workspace/AIoT/src/LiteOS_Lab/iot_link/network/dtls/mbedtls/mbedtls-2.16.2/library\x509_crt.c ****     MBEDTLS_X509_SAFE_SNPRINTF;
 5170              		.loc 2 1598 0
 5171 0378 7B6B     		ldr	r3, [r7, #52]
ARM GAS  C:\Users\dtjld\AppData\Local\Temp\ccTXdst3.s 			page 125


 5172 037a 002B     		cmp	r3, #0
 5173 037c 03DB     		blt	.L358
 5174              		.loc 2 1598 0 is_stmt 0 discriminator 2
 5175 037e 7A6B     		ldr	r2, [r7, #52]
 5176 0380 3B6B     		ldr	r3, [r7, #48]
 5177 0382 9A42     		cmp	r2, r3
 5178 0384 01D3     		bcc	.L359
 5179              	.L358:
 5180              		.loc 2 1598 0 discriminator 3
 5181 0386 444B     		ldr	r3, .L384+8
 5182 0388 41E1     		b	.L381
 5183              	.L359:
 5184              		.loc 2 1598 0 discriminator 4
 5185 038a 3A6B     		ldr	r2, [r7, #48]
 5186 038c 7B6B     		ldr	r3, [r7, #52]
 5187 038e D31A     		subs	r3, r2, r3
 5188 0390 3B63     		str	r3, [r7, #48]
 5189 0392 FA6A     		ldr	r2, [r7, #44]
 5190 0394 7B6B     		ldr	r3, [r7, #52]
 5191 0396 1344     		add	r3, r3, r2
 5192 0398 FB62     		str	r3, [r7, #44]
1599:C:/Users/dtjld/workspace/AIoT/src/LiteOS_Lab/iot_link/network/dtls/mbedtls/mbedtls-2.16.2/library\x509_crt.c **** 
1600:C:/Users/dtjld/workspace/AIoT/src/LiteOS_Lab/iot_link/network/dtls/mbedtls/mbedtls-2.16.2/library\x509_crt.c ****     /*
1601:C:/Users/dtjld/workspace/AIoT/src/LiteOS_Lab/iot_link/network/dtls/mbedtls/mbedtls-2.16.2/library\x509_crt.c ****      * Optional extensions
1602:C:/Users/dtjld/workspace/AIoT/src/LiteOS_Lab/iot_link/network/dtls/mbedtls/mbedtls-2.16.2/library\x509_crt.c ****      */
1603:C:/Users/dtjld/workspace/AIoT/src/LiteOS_Lab/iot_link/network/dtls/mbedtls/mbedtls-2.16.2/library\x509_crt.c **** 
1604:C:/Users/dtjld/workspace/AIoT/src/LiteOS_Lab/iot_link/network/dtls/mbedtls/mbedtls-2.16.2/library\x509_crt.c ****     if( crt->ext_types & MBEDTLS_X509_EXT_BASIC_CONSTRAINTS )
 5193              		.loc 2 1604 0 is_stmt 1 discriminator 4
 5194 039a BB68     		ldr	r3, [r7, #8]
 5195 039c D3F8F830 		ldr	r3, [r3, #248]
 5196 03a0 03F48073 		and	r3, r3, #256
 5197 03a4 002B     		cmp	r3, #0
 5198 03a6 42D0     		beq	.L360
1605:C:/Users/dtjld/workspace/AIoT/src/LiteOS_Lab/iot_link/network/dtls/mbedtls/mbedtls-2.16.2/library\x509_crt.c ****     {
1606:C:/Users/dtjld/workspace/AIoT/src/LiteOS_Lab/iot_link/network/dtls/mbedtls/mbedtls-2.16.2/library\x509_crt.c ****         ret = mbedtls_snprintf( p, n, "\n%sbasic constraints : CA=%s", prefix,
 5199              		.loc 2 1606 0
 5200 03a8 394B     		ldr	r3, .L384
 5201 03aa 1C68     		ldr	r4, [r3]
 5202 03ac F86A     		ldr	r0, [r7, #44]
 5203 03ae 396B     		ldr	r1, [r7, #48]
1607:C:/Users/dtjld/workspace/AIoT/src/LiteOS_Lab/iot_link/network/dtls/mbedtls/mbedtls-2.16.2/library\x509_crt.c ****                         crt->ca_istrue ? "true" : "false" );
 5204              		.loc 2 1607 0
 5205 03b0 BB68     		ldr	r3, [r7, #8]
 5206 03b2 D3F8FC30 		ldr	r3, [r3, #252]
1606:C:/Users/dtjld/workspace/AIoT/src/LiteOS_Lab/iot_link/network/dtls/mbedtls/mbedtls-2.16.2/library\x509_crt.c ****                         crt->ca_istrue ? "true" : "false" );
 5207              		.loc 2 1606 0
 5208 03b6 002B     		cmp	r3, #0
 5209 03b8 01D0     		beq	.L361
1606:C:/Users/dtjld/workspace/AIoT/src/LiteOS_Lab/iot_link/network/dtls/mbedtls/mbedtls-2.16.2/library\x509_crt.c ****                         crt->ca_istrue ? "true" : "false" );
 5210              		.loc 2 1606 0 is_stmt 0 discriminator 1
 5211 03ba 3A4B     		ldr	r3, .L384+20
 5212 03bc 00E0     		b	.L362
 5213              	.L361:
1606:C:/Users/dtjld/workspace/AIoT/src/LiteOS_Lab/iot_link/network/dtls/mbedtls/mbedtls-2.16.2/library\x509_crt.c ****                         crt->ca_istrue ? "true" : "false" );
 5214              		.loc 2 1606 0 discriminator 2
 5215 03be 3A4B     		ldr	r3, .L384+24
 5216              	.L362:
ARM GAS  C:\Users\dtjld\AppData\Local\Temp\ccTXdst3.s 			page 126


1606:C:/Users/dtjld/workspace/AIoT/src/LiteOS_Lab/iot_link/network/dtls/mbedtls/mbedtls-2.16.2/library\x509_crt.c ****                         crt->ca_istrue ? "true" : "false" );
 5217              		.loc 2 1606 0 discriminator 4
 5218 03c0 0093     		str	r3, [sp]
 5219 03c2 FB68     		ldr	r3, [r7, #12]
 5220 03c4 394A     		ldr	r2, .L384+28
 5221 03c6 A047     		blx	r4
 5222              	.LVL27:
 5223 03c8 7863     		str	r0, [r7, #52]
1608:C:/Users/dtjld/workspace/AIoT/src/LiteOS_Lab/iot_link/network/dtls/mbedtls/mbedtls-2.16.2/library\x509_crt.c ****         MBEDTLS_X509_SAFE_SNPRINTF;
 5224              		.loc 2 1608 0 is_stmt 1 discriminator 4
 5225 03ca 7B6B     		ldr	r3, [r7, #52]
 5226 03cc 002B     		cmp	r3, #0
 5227 03ce 03DB     		blt	.L363
 5228              		.loc 2 1608 0 is_stmt 0 discriminator 2
 5229 03d0 7A6B     		ldr	r2, [r7, #52]
 5230 03d2 3B6B     		ldr	r3, [r7, #48]
 5231 03d4 9A42     		cmp	r2, r3
 5232 03d6 01D3     		bcc	.L364
 5233              	.L363:
 5234              		.loc 2 1608 0 discriminator 3
 5235 03d8 2F4B     		ldr	r3, .L384+8
 5236 03da 18E1     		b	.L381
 5237              	.L364:
 5238              		.loc 2 1608 0 discriminator 4
 5239 03dc 3A6B     		ldr	r2, [r7, #48]
 5240 03de 7B6B     		ldr	r3, [r7, #52]
 5241 03e0 D31A     		subs	r3, r2, r3
 5242 03e2 3B63     		str	r3, [r7, #48]
 5243 03e4 FA6A     		ldr	r2, [r7, #44]
 5244 03e6 7B6B     		ldr	r3, [r7, #52]
 5245 03e8 1344     		add	r3, r3, r2
 5246 03ea FB62     		str	r3, [r7, #44]
1609:C:/Users/dtjld/workspace/AIoT/src/LiteOS_Lab/iot_link/network/dtls/mbedtls/mbedtls-2.16.2/library\x509_crt.c **** 
1610:C:/Users/dtjld/workspace/AIoT/src/LiteOS_Lab/iot_link/network/dtls/mbedtls/mbedtls-2.16.2/library\x509_crt.c ****         if( crt->max_pathlen > 0 )
 5247              		.loc 2 1610 0 is_stmt 1 discriminator 4
 5248 03ec BB68     		ldr	r3, [r7, #8]
 5249 03ee D3F80031 		ldr	r3, [r3, #256]
 5250 03f2 002B     		cmp	r3, #0
 5251 03f4 1BDD     		ble	.L360
1611:C:/Users/dtjld/workspace/AIoT/src/LiteOS_Lab/iot_link/network/dtls/mbedtls/mbedtls-2.16.2/library\x509_crt.c ****         {
1612:C:/Users/dtjld/workspace/AIoT/src/LiteOS_Lab/iot_link/network/dtls/mbedtls/mbedtls-2.16.2/library\x509_crt.c ****             ret = mbedtls_snprintf( p, n, ", max_pathlen=%d", crt->max_pathlen - 1 );
 5252              		.loc 2 1612 0
 5253 03f6 264B     		ldr	r3, .L384
 5254 03f8 1C68     		ldr	r4, [r3]
 5255 03fa F86A     		ldr	r0, [r7, #44]
 5256 03fc 396B     		ldr	r1, [r7, #48]
 5257 03fe BB68     		ldr	r3, [r7, #8]
 5258 0400 D3F80031 		ldr	r3, [r3, #256]
 5259 0404 013B     		subs	r3, r3, #1
 5260 0406 2A4A     		ldr	r2, .L384+32
 5261 0408 A047     		blx	r4
 5262              	.LVL28:
 5263 040a 7863     		str	r0, [r7, #52]
1613:C:/Users/dtjld/workspace/AIoT/src/LiteOS_Lab/iot_link/network/dtls/mbedtls/mbedtls-2.16.2/library\x509_crt.c ****             MBEDTLS_X509_SAFE_SNPRINTF;
 5264              		.loc 2 1613 0
 5265 040c 7B6B     		ldr	r3, [r7, #52]
 5266 040e 002B     		cmp	r3, #0
ARM GAS  C:\Users\dtjld\AppData\Local\Temp\ccTXdst3.s 			page 127


 5267 0410 03DB     		blt	.L365
 5268              		.loc 2 1613 0 is_stmt 0 discriminator 2
 5269 0412 7A6B     		ldr	r2, [r7, #52]
 5270 0414 3B6B     		ldr	r3, [r7, #48]
 5271 0416 9A42     		cmp	r2, r3
 5272 0418 01D3     		bcc	.L366
 5273              	.L365:
 5274              		.loc 2 1613 0 discriminator 3
 5275 041a 1F4B     		ldr	r3, .L384+8
 5276 041c F7E0     		b	.L381
 5277              	.L366:
 5278              		.loc 2 1613 0 discriminator 4
 5279 041e 3A6B     		ldr	r2, [r7, #48]
 5280 0420 7B6B     		ldr	r3, [r7, #52]
 5281 0422 D31A     		subs	r3, r2, r3
 5282 0424 3B63     		str	r3, [r7, #48]
 5283 0426 FA6A     		ldr	r2, [r7, #44]
 5284 0428 7B6B     		ldr	r3, [r7, #52]
 5285 042a 1344     		add	r3, r3, r2
 5286 042c FB62     		str	r3, [r7, #44]
 5287              	.L360:
1614:C:/Users/dtjld/workspace/AIoT/src/LiteOS_Lab/iot_link/network/dtls/mbedtls/mbedtls-2.16.2/library\x509_crt.c ****         }
1615:C:/Users/dtjld/workspace/AIoT/src/LiteOS_Lab/iot_link/network/dtls/mbedtls/mbedtls-2.16.2/library\x509_crt.c ****     }
1616:C:/Users/dtjld/workspace/AIoT/src/LiteOS_Lab/iot_link/network/dtls/mbedtls/mbedtls-2.16.2/library\x509_crt.c **** 
1617:C:/Users/dtjld/workspace/AIoT/src/LiteOS_Lab/iot_link/network/dtls/mbedtls/mbedtls-2.16.2/library\x509_crt.c ****     if( crt->ext_types & MBEDTLS_X509_EXT_SUBJECT_ALT_NAME )
 5288              		.loc 2 1617 0 is_stmt 1
 5289 042e BB68     		ldr	r3, [r7, #8]
 5290 0430 D3F8F830 		ldr	r3, [r3, #248]
 5291 0434 03F02003 		and	r3, r3, #32
 5292 0438 002B     		cmp	r3, #0
 5293 043a 3DD0     		beq	.L367
1618:C:/Users/dtjld/workspace/AIoT/src/LiteOS_Lab/iot_link/network/dtls/mbedtls/mbedtls-2.16.2/library\x509_crt.c ****     {
1619:C:/Users/dtjld/workspace/AIoT/src/LiteOS_Lab/iot_link/network/dtls/mbedtls/mbedtls-2.16.2/library\x509_crt.c ****         ret = mbedtls_snprintf( p, n, "\n%ssubject alt name  : ", prefix );
 5294              		.loc 2 1619 0
 5295 043c 144B     		ldr	r3, .L384
 5296 043e 1C68     		ldr	r4, [r3]
 5297 0440 F86A     		ldr	r0, [r7, #44]
 5298 0442 396B     		ldr	r1, [r7, #48]
 5299 0444 FB68     		ldr	r3, [r7, #12]
 5300 0446 1B4A     		ldr	r2, .L384+36
 5301 0448 A047     		blx	r4
 5302              	.LVL29:
 5303 044a 7863     		str	r0, [r7, #52]
1620:C:/Users/dtjld/workspace/AIoT/src/LiteOS_Lab/iot_link/network/dtls/mbedtls/mbedtls-2.16.2/library\x509_crt.c ****         MBEDTLS_X509_SAFE_SNPRINTF;
 5304              		.loc 2 1620 0
 5305 044c 7B6B     		ldr	r3, [r7, #52]
 5306 044e 002B     		cmp	r3, #0
 5307 0450 03DB     		blt	.L368
 5308              		.loc 2 1620 0 is_stmt 0 discriminator 2
 5309 0452 7A6B     		ldr	r2, [r7, #52]
 5310 0454 3B6B     		ldr	r3, [r7, #48]
 5311 0456 9A42     		cmp	r2, r3
 5312 0458 01D3     		bcc	.L369
 5313              	.L368:
 5314              		.loc 2 1620 0 discriminator 3
 5315 045a 0F4B     		ldr	r3, .L384+8
 5316 045c D7E0     		b	.L381
ARM GAS  C:\Users\dtjld\AppData\Local\Temp\ccTXdst3.s 			page 128


 5317              	.L369:
 5318              		.loc 2 1620 0 discriminator 4
 5319 045e 3A6B     		ldr	r2, [r7, #48]
 5320 0460 7B6B     		ldr	r3, [r7, #52]
 5321 0462 D31A     		subs	r3, r2, r3
 5322 0464 3B63     		str	r3, [r7, #48]
 5323 0466 FA6A     		ldr	r2, [r7, #44]
 5324 0468 7B6B     		ldr	r3, [r7, #52]
 5325 046a 1344     		add	r3, r3, r2
 5326 046c FB62     		str	r3, [r7, #44]
1621:C:/Users/dtjld/workspace/AIoT/src/LiteOS_Lab/iot_link/network/dtls/mbedtls/mbedtls-2.16.2/library\x509_crt.c **** 
1622:C:/Users/dtjld/workspace/AIoT/src/LiteOS_Lab/iot_link/network/dtls/mbedtls/mbedtls-2.16.2/library\x509_crt.c ****         if( ( ret = x509_info_subject_alt_name( &p, &n,
 5327              		.loc 2 1622 0 is_stmt 1 discriminator 4
 5328 046e BB68     		ldr	r3, [r7, #8]
 5329 0470 03F1E802 		add	r2, r3, #232
 5330 0474 07F13001 		add	r1, r7, #48
 5331 0478 07F12C03 		add	r3, r7, #44
 5332 047c 1846     		mov	r0, r3
 5333 047e FFF7FEFF 		bl	x509_info_subject_alt_name
 5334 0482 7863     		str	r0, [r7, #52]
 5335 0484 7B6B     		ldr	r3, [r7, #52]
 5336 0486 002B     		cmp	r3, #0
 5337 0488 16D0     		beq	.L367
1623:C:/Users/dtjld/workspace/AIoT/src/LiteOS_Lab/iot_link/network/dtls/mbedtls/mbedtls-2.16.2/library\x509_crt.c ****                                             &crt->subject_alt_names ) ) != 0 )
1624:C:/Users/dtjld/workspace/AIoT/src/LiteOS_Lab/iot_link/network/dtls/mbedtls/mbedtls-2.16.2/library\x509_crt.c ****             return( ret );
 5338              		.loc 2 1624 0
 5339 048a 7B6B     		ldr	r3, [r7, #52]
 5340 048c BFE0     		b	.L381
 5341              	.L385:
 5342 048e 00BF     		.align	2
 5343              	.L384:
 5344 0490 00000000 		.word	mbedtls_snprintf
 5345 0494 18020000 		.word	.LC29
 5346 0498 80D6FFFF 		.word	-10624
 5347 049c 50020000 		.word	.LC30
 5348 04a0 68020000 		.word	.LC31
 5349 04a4 7C020000 		.word	.LC32
 5350 04a8 84020000 		.word	.LC33
 5351 04ac 8C020000 		.word	.LC34
 5352 04b0 AC020000 		.word	.LC35
 5353 04b4 C0020000 		.word	.LC36
 5354              	.L367:
1625:C:/Users/dtjld/workspace/AIoT/src/LiteOS_Lab/iot_link/network/dtls/mbedtls/mbedtls-2.16.2/library\x509_crt.c ****     }
1626:C:/Users/dtjld/workspace/AIoT/src/LiteOS_Lab/iot_link/network/dtls/mbedtls/mbedtls-2.16.2/library\x509_crt.c **** 
1627:C:/Users/dtjld/workspace/AIoT/src/LiteOS_Lab/iot_link/network/dtls/mbedtls/mbedtls-2.16.2/library\x509_crt.c ****     if( crt->ext_types & MBEDTLS_X509_EXT_NS_CERT_TYPE )
 5355              		.loc 2 1627 0
 5356 04b8 BB68     		ldr	r3, [r7, #8]
 5357 04ba D3F8F830 		ldr	r3, [r3, #248]
 5358 04be 03F48033 		and	r3, r3, #65536
 5359 04c2 002B     		cmp	r3, #0
 5360 04c4 28D0     		beq	.L370
1628:C:/Users/dtjld/workspace/AIoT/src/LiteOS_Lab/iot_link/network/dtls/mbedtls/mbedtls-2.16.2/library\x509_crt.c ****     {
1629:C:/Users/dtjld/workspace/AIoT/src/LiteOS_Lab/iot_link/network/dtls/mbedtls/mbedtls-2.16.2/library\x509_crt.c ****         ret = mbedtls_snprintf( p, n, "\n%scert. type        : ", prefix );
 5361              		.loc 2 1629 0
 5362 04c6 544B     		ldr	r3, .L386
 5363 04c8 1C68     		ldr	r4, [r3]
 5364 04ca F86A     		ldr	r0, [r7, #44]
ARM GAS  C:\Users\dtjld\AppData\Local\Temp\ccTXdst3.s 			page 129


 5365 04cc 396B     		ldr	r1, [r7, #48]
 5366 04ce FB68     		ldr	r3, [r7, #12]
 5367 04d0 524A     		ldr	r2, .L386+4
 5368 04d2 A047     		blx	r4
 5369              	.LVL30:
 5370 04d4 7863     		str	r0, [r7, #52]
1630:C:/Users/dtjld/workspace/AIoT/src/LiteOS_Lab/iot_link/network/dtls/mbedtls/mbedtls-2.16.2/library\x509_crt.c ****         MBEDTLS_X509_SAFE_SNPRINTF;
 5371              		.loc 2 1630 0
 5372 04d6 7B6B     		ldr	r3, [r7, #52]
 5373 04d8 002B     		cmp	r3, #0
 5374 04da 03DB     		blt	.L371
 5375              		.loc 2 1630 0 is_stmt 0 discriminator 2
 5376 04dc 7A6B     		ldr	r2, [r7, #52]
 5377 04de 3B6B     		ldr	r3, [r7, #48]
 5378 04e0 9A42     		cmp	r2, r3
 5379 04e2 01D3     		bcc	.L372
 5380              	.L371:
 5381              		.loc 2 1630 0 discriminator 3
 5382 04e4 4E4B     		ldr	r3, .L386+8
 5383 04e6 92E0     		b	.L381
 5384              	.L372:
 5385              		.loc 2 1630 0 discriminator 4
 5386 04e8 3A6B     		ldr	r2, [r7, #48]
 5387 04ea 7B6B     		ldr	r3, [r7, #52]
 5388 04ec D31A     		subs	r3, r2, r3
 5389 04ee 3B63     		str	r3, [r7, #48]
 5390 04f0 FA6A     		ldr	r2, [r7, #44]
 5391 04f2 7B6B     		ldr	r3, [r7, #52]
 5392 04f4 1344     		add	r3, r3, r2
 5393 04f6 FB62     		str	r3, [r7, #44]
1631:C:/Users/dtjld/workspace/AIoT/src/LiteOS_Lab/iot_link/network/dtls/mbedtls/mbedtls-2.16.2/library\x509_crt.c **** 
1632:C:/Users/dtjld/workspace/AIoT/src/LiteOS_Lab/iot_link/network/dtls/mbedtls/mbedtls-2.16.2/library\x509_crt.c ****         if( ( ret = x509_info_cert_type( &p, &n, crt->ns_cert_type ) ) != 0 )
 5394              		.loc 2 1632 0 is_stmt 1 discriminator 4
 5395 04f8 BB68     		ldr	r3, [r7, #8]
 5396 04fa 93F81821 		ldrb	r2, [r3, #280]	@ zero_extendqisi2
 5397 04fe 07F13001 		add	r1, r7, #48
 5398 0502 07F12C03 		add	r3, r7, #44
 5399 0506 1846     		mov	r0, r3
 5400 0508 FFF7FEFF 		bl	x509_info_cert_type
 5401 050c 7863     		str	r0, [r7, #52]
 5402 050e 7B6B     		ldr	r3, [r7, #52]
 5403 0510 002B     		cmp	r3, #0
 5404 0512 01D0     		beq	.L370
1633:C:/Users/dtjld/workspace/AIoT/src/LiteOS_Lab/iot_link/network/dtls/mbedtls/mbedtls-2.16.2/library\x509_crt.c ****             return( ret );
 5405              		.loc 2 1633 0
 5406 0514 7B6B     		ldr	r3, [r7, #52]
 5407 0516 7AE0     		b	.L381
 5408              	.L370:
1634:C:/Users/dtjld/workspace/AIoT/src/LiteOS_Lab/iot_link/network/dtls/mbedtls/mbedtls-2.16.2/library\x509_crt.c ****     }
1635:C:/Users/dtjld/workspace/AIoT/src/LiteOS_Lab/iot_link/network/dtls/mbedtls/mbedtls-2.16.2/library\x509_crt.c **** 
1636:C:/Users/dtjld/workspace/AIoT/src/LiteOS_Lab/iot_link/network/dtls/mbedtls/mbedtls-2.16.2/library\x509_crt.c ****     if( crt->ext_types & MBEDTLS_X509_EXT_KEY_USAGE )
 5409              		.loc 2 1636 0
 5410 0518 BB68     		ldr	r3, [r7, #8]
 5411 051a D3F8F830 		ldr	r3, [r3, #248]
 5412 051e 03F00403 		and	r3, r3, #4
 5413 0522 002B     		cmp	r3, #0
 5414 0524 28D0     		beq	.L373
ARM GAS  C:\Users\dtjld\AppData\Local\Temp\ccTXdst3.s 			page 130


1637:C:/Users/dtjld/workspace/AIoT/src/LiteOS_Lab/iot_link/network/dtls/mbedtls/mbedtls-2.16.2/library\x509_crt.c ****     {
1638:C:/Users/dtjld/workspace/AIoT/src/LiteOS_Lab/iot_link/network/dtls/mbedtls/mbedtls-2.16.2/library\x509_crt.c ****         ret = mbedtls_snprintf( p, n, "\n%skey usage         : ", prefix );
 5415              		.loc 2 1638 0
 5416 0526 3C4B     		ldr	r3, .L386
 5417 0528 1C68     		ldr	r4, [r3]
 5418 052a F86A     		ldr	r0, [r7, #44]
 5419 052c 396B     		ldr	r1, [r7, #48]
 5420 052e FB68     		ldr	r3, [r7, #12]
 5421 0530 3C4A     		ldr	r2, .L386+12
 5422 0532 A047     		blx	r4
 5423              	.LVL31:
 5424 0534 7863     		str	r0, [r7, #52]
1639:C:/Users/dtjld/workspace/AIoT/src/LiteOS_Lab/iot_link/network/dtls/mbedtls/mbedtls-2.16.2/library\x509_crt.c ****         MBEDTLS_X509_SAFE_SNPRINTF;
 5425              		.loc 2 1639 0
 5426 0536 7B6B     		ldr	r3, [r7, #52]
 5427 0538 002B     		cmp	r3, #0
 5428 053a 03DB     		blt	.L374
 5429              		.loc 2 1639 0 is_stmt 0 discriminator 2
 5430 053c 7A6B     		ldr	r2, [r7, #52]
 5431 053e 3B6B     		ldr	r3, [r7, #48]
 5432 0540 9A42     		cmp	r2, r3
 5433 0542 01D3     		bcc	.L375
 5434              	.L374:
 5435              		.loc 2 1639 0 discriminator 3
 5436 0544 364B     		ldr	r3, .L386+8
 5437 0546 62E0     		b	.L381
 5438              	.L375:
 5439              		.loc 2 1639 0 discriminator 4
 5440 0548 3A6B     		ldr	r2, [r7, #48]
 5441 054a 7B6B     		ldr	r3, [r7, #52]
 5442 054c D31A     		subs	r3, r2, r3
 5443 054e 3B63     		str	r3, [r7, #48]
 5444 0550 FA6A     		ldr	r2, [r7, #44]
 5445 0552 7B6B     		ldr	r3, [r7, #52]
 5446 0554 1344     		add	r3, r3, r2
 5447 0556 FB62     		str	r3, [r7, #44]
1640:C:/Users/dtjld/workspace/AIoT/src/LiteOS_Lab/iot_link/network/dtls/mbedtls/mbedtls-2.16.2/library\x509_crt.c **** 
1641:C:/Users/dtjld/workspace/AIoT/src/LiteOS_Lab/iot_link/network/dtls/mbedtls/mbedtls-2.16.2/library\x509_crt.c ****         if( ( ret = x509_info_key_usage( &p, &n, crt->key_usage ) ) != 0 )
 5448              		.loc 2 1641 0 is_stmt 1 discriminator 4
 5449 0558 BB68     		ldr	r3, [r7, #8]
 5450 055a D3F80421 		ldr	r2, [r3, #260]
 5451 055e 07F13001 		add	r1, r7, #48
 5452 0562 07F12C03 		add	r3, r7, #44
 5453 0566 1846     		mov	r0, r3
 5454 0568 FFF7FEFF 		bl	x509_info_key_usage
 5455 056c 7863     		str	r0, [r7, #52]
 5456 056e 7B6B     		ldr	r3, [r7, #52]
 5457 0570 002B     		cmp	r3, #0
 5458 0572 01D0     		beq	.L373
1642:C:/Users/dtjld/workspace/AIoT/src/LiteOS_Lab/iot_link/network/dtls/mbedtls/mbedtls-2.16.2/library\x509_crt.c ****             return( ret );
 5459              		.loc 2 1642 0
 5460 0574 7B6B     		ldr	r3, [r7, #52]
 5461 0576 4AE0     		b	.L381
 5462              	.L373:
1643:C:/Users/dtjld/workspace/AIoT/src/LiteOS_Lab/iot_link/network/dtls/mbedtls/mbedtls-2.16.2/library\x509_crt.c ****     }
1644:C:/Users/dtjld/workspace/AIoT/src/LiteOS_Lab/iot_link/network/dtls/mbedtls/mbedtls-2.16.2/library\x509_crt.c **** 
1645:C:/Users/dtjld/workspace/AIoT/src/LiteOS_Lab/iot_link/network/dtls/mbedtls/mbedtls-2.16.2/library\x509_crt.c ****     if( crt->ext_types & MBEDTLS_X509_EXT_EXTENDED_KEY_USAGE )
ARM GAS  C:\Users\dtjld\AppData\Local\Temp\ccTXdst3.s 			page 131


 5463              		.loc 2 1645 0
 5464 0578 BB68     		ldr	r3, [r7, #8]
 5465 057a D3F8F830 		ldr	r3, [r3, #248]
 5466 057e 03F40063 		and	r3, r3, #2048
 5467 0582 002B     		cmp	r3, #0
 5468 0584 28D0     		beq	.L376
1646:C:/Users/dtjld/workspace/AIoT/src/LiteOS_Lab/iot_link/network/dtls/mbedtls/mbedtls-2.16.2/library\x509_crt.c ****     {
1647:C:/Users/dtjld/workspace/AIoT/src/LiteOS_Lab/iot_link/network/dtls/mbedtls/mbedtls-2.16.2/library\x509_crt.c ****         ret = mbedtls_snprintf( p, n, "\n%sext key usage     : ", prefix );
 5469              		.loc 2 1647 0
 5470 0586 244B     		ldr	r3, .L386
 5471 0588 1C68     		ldr	r4, [r3]
 5472 058a F86A     		ldr	r0, [r7, #44]
 5473 058c 396B     		ldr	r1, [r7, #48]
 5474 058e FB68     		ldr	r3, [r7, #12]
 5475 0590 254A     		ldr	r2, .L386+16
 5476 0592 A047     		blx	r4
 5477              	.LVL32:
 5478 0594 7863     		str	r0, [r7, #52]
1648:C:/Users/dtjld/workspace/AIoT/src/LiteOS_Lab/iot_link/network/dtls/mbedtls/mbedtls-2.16.2/library\x509_crt.c ****         MBEDTLS_X509_SAFE_SNPRINTF;
 5479              		.loc 2 1648 0
 5480 0596 7B6B     		ldr	r3, [r7, #52]
 5481 0598 002B     		cmp	r3, #0
 5482 059a 03DB     		blt	.L377
 5483              		.loc 2 1648 0 is_stmt 0 discriminator 2
 5484 059c 7A6B     		ldr	r2, [r7, #52]
 5485 059e 3B6B     		ldr	r3, [r7, #48]
 5486 05a0 9A42     		cmp	r2, r3
 5487 05a2 01D3     		bcc	.L378
 5488              	.L377:
 5489              		.loc 2 1648 0 discriminator 3
 5490 05a4 1E4B     		ldr	r3, .L386+8
 5491 05a6 32E0     		b	.L381
 5492              	.L378:
 5493              		.loc 2 1648 0 discriminator 4
 5494 05a8 3A6B     		ldr	r2, [r7, #48]
 5495 05aa 7B6B     		ldr	r3, [r7, #52]
 5496 05ac D31A     		subs	r3, r2, r3
 5497 05ae 3B63     		str	r3, [r7, #48]
 5498 05b0 FA6A     		ldr	r2, [r7, #44]
 5499 05b2 7B6B     		ldr	r3, [r7, #52]
 5500 05b4 1344     		add	r3, r3, r2
 5501 05b6 FB62     		str	r3, [r7, #44]
1649:C:/Users/dtjld/workspace/AIoT/src/LiteOS_Lab/iot_link/network/dtls/mbedtls/mbedtls-2.16.2/library\x509_crt.c **** 
1650:C:/Users/dtjld/workspace/AIoT/src/LiteOS_Lab/iot_link/network/dtls/mbedtls/mbedtls-2.16.2/library\x509_crt.c ****         if( ( ret = x509_info_ext_key_usage( &p, &n,
 5502              		.loc 2 1650 0 is_stmt 1 discriminator 4
 5503 05b8 BB68     		ldr	r3, [r7, #8]
 5504 05ba 03F58472 		add	r2, r3, #264
 5505 05be 07F13001 		add	r1, r7, #48
 5506 05c2 07F12C03 		add	r3, r7, #44
 5507 05c6 1846     		mov	r0, r3
 5508 05c8 FFF7FEFF 		bl	x509_info_ext_key_usage
 5509 05cc 7863     		str	r0, [r7, #52]
 5510 05ce 7B6B     		ldr	r3, [r7, #52]
 5511 05d0 002B     		cmp	r3, #0
 5512 05d2 01D0     		beq	.L376
1651:C:/Users/dtjld/workspace/AIoT/src/LiteOS_Lab/iot_link/network/dtls/mbedtls/mbedtls-2.16.2/library\x509_crt.c ****                                              &crt->ext_key_usage ) ) != 0 )
1652:C:/Users/dtjld/workspace/AIoT/src/LiteOS_Lab/iot_link/network/dtls/mbedtls/mbedtls-2.16.2/library\x509_crt.c ****             return( ret );
ARM GAS  C:\Users\dtjld\AppData\Local\Temp\ccTXdst3.s 			page 132


 5513              		.loc 2 1652 0
 5514 05d4 7B6B     		ldr	r3, [r7, #52]
 5515 05d6 1AE0     		b	.L381
 5516              	.L376:
1653:C:/Users/dtjld/workspace/AIoT/src/LiteOS_Lab/iot_link/network/dtls/mbedtls/mbedtls-2.16.2/library\x509_crt.c ****     }
1654:C:/Users/dtjld/workspace/AIoT/src/LiteOS_Lab/iot_link/network/dtls/mbedtls/mbedtls-2.16.2/library\x509_crt.c **** 
1655:C:/Users/dtjld/workspace/AIoT/src/LiteOS_Lab/iot_link/network/dtls/mbedtls/mbedtls-2.16.2/library\x509_crt.c ****     ret = mbedtls_snprintf( p, n, "\n" );
 5517              		.loc 2 1655 0
 5518 05d8 0F4B     		ldr	r3, .L386
 5519 05da 1B68     		ldr	r3, [r3]
 5520 05dc F86A     		ldr	r0, [r7, #44]
 5521 05de 396B     		ldr	r1, [r7, #48]
 5522 05e0 124A     		ldr	r2, .L386+20
 5523 05e2 9847     		blx	r3
 5524              	.LVL33:
 5525 05e4 7863     		str	r0, [r7, #52]
1656:C:/Users/dtjld/workspace/AIoT/src/LiteOS_Lab/iot_link/network/dtls/mbedtls/mbedtls-2.16.2/library\x509_crt.c ****     MBEDTLS_X509_SAFE_SNPRINTF;
 5526              		.loc 2 1656 0
 5527 05e6 7B6B     		ldr	r3, [r7, #52]
 5528 05e8 002B     		cmp	r3, #0
 5529 05ea 03DB     		blt	.L379
 5530              		.loc 2 1656 0 is_stmt 0 discriminator 2
 5531 05ec 7A6B     		ldr	r2, [r7, #52]
 5532 05ee 3B6B     		ldr	r3, [r7, #48]
 5533 05f0 9A42     		cmp	r2, r3
 5534 05f2 01D3     		bcc	.L380
 5535              	.L379:
 5536              		.loc 2 1656 0 discriminator 3
 5537 05f4 0A4B     		ldr	r3, .L386+8
 5538 05f6 0AE0     		b	.L381
 5539              	.L380:
 5540              		.loc 2 1656 0 discriminator 4
 5541 05f8 3A6B     		ldr	r2, [r7, #48]
 5542 05fa 7B6B     		ldr	r3, [r7, #52]
 5543 05fc D31A     		subs	r3, r2, r3
 5544 05fe 3B63     		str	r3, [r7, #48]
 5545 0600 FA6A     		ldr	r2, [r7, #44]
 5546 0602 7B6B     		ldr	r3, [r7, #52]
 5547 0604 1344     		add	r3, r3, r2
 5548 0606 FB62     		str	r3, [r7, #44]
1657:C:/Users/dtjld/workspace/AIoT/src/LiteOS_Lab/iot_link/network/dtls/mbedtls/mbedtls-2.16.2/library\x509_crt.c **** 
1658:C:/Users/dtjld/workspace/AIoT/src/LiteOS_Lab/iot_link/network/dtls/mbedtls/mbedtls-2.16.2/library\x509_crt.c ****     return( (int) ( size - n ) );
 5549              		.loc 2 1658 0 is_stmt 1 discriminator 4
 5550 0608 3B6B     		ldr	r3, [r7, #48]
 5551 060a 3A69     		ldr	r2, [r7, #16]
 5552 060c D31A     		subs	r3, r2, r3
 5553              	.L381:
1659:C:/Users/dtjld/workspace/AIoT/src/LiteOS_Lab/iot_link/network/dtls/mbedtls/mbedtls-2.16.2/library\x509_crt.c **** }
 5554              		.loc 2 1659 0 discriminator 1
 5555 060e 1846     		mov	r0, r3
 5556 0610 3C37     		adds	r7, r7, #60
 5557              	.LCFI134:
 5558              		.cfi_def_cfa_offset 20
 5559 0612 BD46     		mov	sp, r7
 5560              	.LCFI135:
 5561              		.cfi_def_cfa_register 13
 5562              		@ sp needed
ARM GAS  C:\Users\dtjld\AppData\Local\Temp\ccTXdst3.s 			page 133


 5563 0614 F0BD     		pop	{r4, r5, r6, r7, pc}
 5564              	.L387:
 5565 0616 00BF     		.align	2
 5566              	.L386:
 5567 0618 00000000 		.word	mbedtls_snprintf
 5568 061c D8020000 		.word	.LC37
 5569 0620 80D6FFFF 		.word	-10624
 5570 0624 F0020000 		.word	.LC38
 5571 0628 08030000 		.word	.LC39
 5572 062c 20030000 		.word	.LC40
 5573              		.cfi_endproc
 5574              	.LFE37:
 5576              		.section	.rodata
 5577 0322 0000     		.align	2
 5578              	.LC41:
 5579 0324 54686520 		.ascii	"The certificate validity has expired\000"
 5579      63657274 
 5579      69666963 
 5579      61746520 
 5579      76616C69 
 5580 0349 000000   		.align	2
 5581              	.LC42:
 5582 034c 54686520 		.ascii	"The certificate has been revoked (is on a CRL)\000"
 5582      63657274 
 5582      69666963 
 5582      61746520 
 5582      68617320 
 5583 037b 00       		.align	2
 5584              	.LC43:
 5585 037c 54686520 		.ascii	"The certificate Common Name (CN) does not match wit"
 5585      63657274 
 5585      69666963 
 5585      61746520 
 5585      436F6D6D 
 5586 03af 68207468 		.ascii	"h the expected CN\000"
 5586      65206578 
 5586      70656374 
 5586      65642043 
 5586      4E00
 5587 03c1 000000   		.align	2
 5588              	.LC44:
 5589 03c4 54686520 		.ascii	"The certificate is not correctly signed by the trus"
 5589      63657274 
 5589      69666963 
 5589      61746520 
 5589      6973206E 
 5590 03f7 74656420 		.ascii	"ted CA\000"
 5590      434100
 5591 03fe 0000     		.align	2
 5592              	.LC45:
 5593 0400 54686520 		.ascii	"The CRL is not correctly signed by the trusted CA\000"
 5593      43524C20 
 5593      6973206E 
 5593      6F742063 
 5593      6F727265 
 5594 0432 0000     		.align	2
 5595              	.LC46:
ARM GAS  C:\Users\dtjld\AppData\Local\Temp\ccTXdst3.s 			page 134


 5596 0434 54686520 		.ascii	"The CRL is expired\000"
 5596      43524C20 
 5596      69732065 
 5596      78706972 
 5596      656400
 5597 0447 00       		.align	2
 5598              	.LC47:
 5599 0448 43657274 		.ascii	"Certificate was missing\000"
 5599      69666963 
 5599      61746520 
 5599      77617320 
 5599      6D697373 
 5600              		.align	2
 5601              	.LC48:
 5602 0460 43657274 		.ascii	"Certificate verification was skipped\000"
 5602      69666963 
 5602      61746520 
 5602      76657269 
 5602      66696361 
 5603 0485 000000   		.align	2
 5604              	.LC49:
 5605 0488 4F746865 		.ascii	"Other reason (can be used by verify callback)\000"
 5605      72207265 
 5605      61736F6E 
 5605      20286361 
 5605      6E206265 
 5606 04b6 0000     		.align	2
 5607              	.LC50:
 5608 04b8 54686520 		.ascii	"The certificate validity starts in the future\000"
 5608      63657274 
 5608      69666963 
 5608      61746520 
 5608      76616C69 
 5609 04e6 0000     		.align	2
 5610              	.LC51:
 5611 04e8 54686520 		.ascii	"The CRL is from the future\000"
 5611      43524C20 
 5611      69732066 
 5611      726F6D20 
 5611      74686520 
 5612 0503 00       		.align	2
 5613              	.LC52:
 5614 0504 55736167 		.ascii	"Usage does not match the keyUsage extension\000"
 5614      6520646F 
 5614      6573206E 
 5614      6F74206D 
 5614      61746368 
 5615              		.align	2
 5616              	.LC53:
 5617 0530 55736167 		.ascii	"Usage does not match the extendedKeyUsage extension"
 5617      6520646F 
 5617      6573206E 
 5617      6F74206D 
 5617      61746368 
 5618 0563 00       		.ascii	"\000"
 5619              		.align	2
 5620              	.LC54:
ARM GAS  C:\Users\dtjld\AppData\Local\Temp\ccTXdst3.s 			page 135


 5621 0564 55736167 		.ascii	"Usage does not match the nsCertType extension\000"
 5621      6520646F 
 5621      6573206E 
 5621      6F74206D 
 5621      61746368 
 5622 0592 0000     		.align	2
 5623              	.LC55:
 5624 0594 54686520 		.ascii	"The certificate is signed with an unacceptable hash"
 5624      63657274 
 5624      69666963 
 5624      61746520 
 5624      69732073 
 5625 05c7 2E00     		.ascii	".\000"
 5626 05c9 000000   		.align	2
 5627              	.LC56:
 5628 05cc 54686520 		.ascii	"The certificate is signed with an unacceptable PK a"
 5628      63657274 
 5628      69666963 
 5628      61746520 
 5628      69732073 
 5629 05ff 6C672028 		.ascii	"lg (eg RSA vs ECDSA).\000"
 5629      65672052 
 5629      53412076 
 5629      73204543 
 5629      44534129 
 5630 0615 000000   		.align	2
 5631              	.LC57:
 5632 0618 54686520 		.ascii	"The certificate is signed with an unacceptable key "
 5632      63657274 
 5632      69666963 
 5632      61746520 
 5632      69732073 
 5633 064b 28656720 		.ascii	"(eg bad curve, RSA too short).\000"
 5633      62616420 
 5633      63757276 
 5633      652C2052 
 5633      53412074 
 5634 066a 0000     		.align	2
 5635              	.LC58:
 5636 066c 54686520 		.ascii	"The CRL is signed with an unacceptable hash.\000"
 5636      43524C20 
 5636      69732073 
 5636      69676E65 
 5636      64207769 
 5637 0699 000000   		.align	2
 5638              	.LC59:
 5639 069c 54686520 		.ascii	"The CRL is signed with an unacceptable PK alg (eg R"
 5639      43524C20 
 5639      69732073 
 5639      69676E65 
 5639      64207769 
 5640 06cf 53412076 		.ascii	"SA vs ECDSA).\000"
 5640      73204543 
 5640      44534129 
 5640      2E00
 5641 06dd 000000   		.align	2
 5642              	.LC60:
ARM GAS  C:\Users\dtjld\AppData\Local\Temp\ccTXdst3.s 			page 136


 5643 06e0 54686520 		.ascii	"The CRL is signed with an unacceptable key (eg bad "
 5643      43524C20 
 5643      69732073 
 5643      69676E65 
 5643      64207769 
 5644 0713 63757276 		.ascii	"curve, RSA too short).\000"
 5644      652C2052 
 5644      53412074 
 5644      6F6F2073 
 5644      686F7274 
 5645              		.section	.rodata.x509_crt_verify_strings,"a",%progbits
 5646              		.align	2
 5649              	x509_crt_verify_strings:
 5650 0000 01000000 		.word	1
 5651 0004 24030000 		.word	.LC41
 5652 0008 02000000 		.word	2
 5653 000c 4C030000 		.word	.LC42
 5654 0010 04000000 		.word	4
 5655 0014 7C030000 		.word	.LC43
 5656 0018 08000000 		.word	8
 5657 001c C4030000 		.word	.LC44
 5658 0020 10000000 		.word	16
 5659 0024 00040000 		.word	.LC45
 5660 0028 20000000 		.word	32
 5661 002c 34040000 		.word	.LC46
 5662 0030 40000000 		.word	64
 5663 0034 48040000 		.word	.LC47
 5664 0038 80000000 		.word	128
 5665 003c 60040000 		.word	.LC48
 5666 0040 00010000 		.word	256
 5667 0044 88040000 		.word	.LC49
 5668 0048 00020000 		.word	512
 5669 004c B8040000 		.word	.LC50
 5670 0050 00040000 		.word	1024
 5671 0054 E8040000 		.word	.LC51
 5672 0058 00080000 		.word	2048
 5673 005c 04050000 		.word	.LC52
 5674 0060 00100000 		.word	4096
 5675 0064 30050000 		.word	.LC53
 5676 0068 00200000 		.word	8192
 5677 006c 64050000 		.word	.LC54
 5678 0070 00400000 		.word	16384
 5679 0074 94050000 		.word	.LC55
 5680 0078 00800000 		.word	32768
 5681 007c CC050000 		.word	.LC56
 5682 0080 00000100 		.word	65536
 5683 0084 18060000 		.word	.LC57
 5684 0088 00000200 		.word	131072
 5685 008c 6C060000 		.word	.LC58
 5686 0090 00000400 		.word	262144
 5687 0094 9C060000 		.word	.LC59
 5688 0098 00000800 		.word	524288
 5689 009c E0060000 		.word	.LC60
 5690 00a0 00000000 		.word	0
 5691 00a4 00000000 		.word	0
 5692              		.section	.rodata
 5693 072a 0000     		.align	2
ARM GAS  C:\Users\dtjld\AppData\Local\Temp\ccTXdst3.s 			page 137


 5694              	.LC61:
 5695 072c 25732573 		.ascii	"%s%s\012\000"
 5695      0A00
 5696 0732 0000     		.align	2
 5697              	.LC62:
 5698 0734 2573556E 		.ascii	"%sUnknown reason (this should not happen)\012\000"
 5698      6B6E6F77 
 5698      6E207265 
 5698      61736F6E 
 5698      20287468 
 5699              		.section	.text.mbedtls_x509_crt_verify_info,"ax",%progbits
 5700              		.align	1
 5701              		.global	mbedtls_x509_crt_verify_info
 5702              		.syntax unified
 5703              		.thumb
 5704              		.thumb_func
 5705              		.fpu fpv4-sp-d16
 5707              	mbedtls_x509_crt_verify_info:
 5708              	.LFB38:
1660:C:/Users/dtjld/workspace/AIoT/src/LiteOS_Lab/iot_link/network/dtls/mbedtls/mbedtls-2.16.2/library\x509_crt.c **** 
1661:C:/Users/dtjld/workspace/AIoT/src/LiteOS_Lab/iot_link/network/dtls/mbedtls/mbedtls-2.16.2/library\x509_crt.c **** struct x509_crt_verify_string {
1662:C:/Users/dtjld/workspace/AIoT/src/LiteOS_Lab/iot_link/network/dtls/mbedtls/mbedtls-2.16.2/library\x509_crt.c ****     int code;
1663:C:/Users/dtjld/workspace/AIoT/src/LiteOS_Lab/iot_link/network/dtls/mbedtls/mbedtls-2.16.2/library\x509_crt.c ****     const char *string;
1664:C:/Users/dtjld/workspace/AIoT/src/LiteOS_Lab/iot_link/network/dtls/mbedtls/mbedtls-2.16.2/library\x509_crt.c **** };
1665:C:/Users/dtjld/workspace/AIoT/src/LiteOS_Lab/iot_link/network/dtls/mbedtls/mbedtls-2.16.2/library\x509_crt.c **** 
1666:C:/Users/dtjld/workspace/AIoT/src/LiteOS_Lab/iot_link/network/dtls/mbedtls/mbedtls-2.16.2/library\x509_crt.c **** static const struct x509_crt_verify_string x509_crt_verify_strings[] = {
1667:C:/Users/dtjld/workspace/AIoT/src/LiteOS_Lab/iot_link/network/dtls/mbedtls/mbedtls-2.16.2/library\x509_crt.c ****     { MBEDTLS_X509_BADCERT_EXPIRED,       "The certificate validity has expired" },
1668:C:/Users/dtjld/workspace/AIoT/src/LiteOS_Lab/iot_link/network/dtls/mbedtls/mbedtls-2.16.2/library\x509_crt.c ****     { MBEDTLS_X509_BADCERT_REVOKED,       "The certificate has been revoked (is on a CRL)" },
1669:C:/Users/dtjld/workspace/AIoT/src/LiteOS_Lab/iot_link/network/dtls/mbedtls/mbedtls-2.16.2/library\x509_crt.c ****     { MBEDTLS_X509_BADCERT_CN_MISMATCH,   "The certificate Common Name (CN) does not match with the
1670:C:/Users/dtjld/workspace/AIoT/src/LiteOS_Lab/iot_link/network/dtls/mbedtls/mbedtls-2.16.2/library\x509_crt.c ****     { MBEDTLS_X509_BADCERT_NOT_TRUSTED,   "The certificate is not correctly signed by the trusted C
1671:C:/Users/dtjld/workspace/AIoT/src/LiteOS_Lab/iot_link/network/dtls/mbedtls/mbedtls-2.16.2/library\x509_crt.c ****     { MBEDTLS_X509_BADCRL_NOT_TRUSTED,    "The CRL is not correctly signed by the trusted CA" },
1672:C:/Users/dtjld/workspace/AIoT/src/LiteOS_Lab/iot_link/network/dtls/mbedtls/mbedtls-2.16.2/library\x509_crt.c ****     { MBEDTLS_X509_BADCRL_EXPIRED,        "The CRL is expired" },
1673:C:/Users/dtjld/workspace/AIoT/src/LiteOS_Lab/iot_link/network/dtls/mbedtls/mbedtls-2.16.2/library\x509_crt.c ****     { MBEDTLS_X509_BADCERT_MISSING,       "Certificate was missing" },
1674:C:/Users/dtjld/workspace/AIoT/src/LiteOS_Lab/iot_link/network/dtls/mbedtls/mbedtls-2.16.2/library\x509_crt.c ****     { MBEDTLS_X509_BADCERT_SKIP_VERIFY,   "Certificate verification was skipped" },
1675:C:/Users/dtjld/workspace/AIoT/src/LiteOS_Lab/iot_link/network/dtls/mbedtls/mbedtls-2.16.2/library\x509_crt.c ****     { MBEDTLS_X509_BADCERT_OTHER,         "Other reason (can be used by verify callback)" },
1676:C:/Users/dtjld/workspace/AIoT/src/LiteOS_Lab/iot_link/network/dtls/mbedtls/mbedtls-2.16.2/library\x509_crt.c ****     { MBEDTLS_X509_BADCERT_FUTURE,        "The certificate validity starts in the future" },
1677:C:/Users/dtjld/workspace/AIoT/src/LiteOS_Lab/iot_link/network/dtls/mbedtls/mbedtls-2.16.2/library\x509_crt.c ****     { MBEDTLS_X509_BADCRL_FUTURE,         "The CRL is from the future" },
1678:C:/Users/dtjld/workspace/AIoT/src/LiteOS_Lab/iot_link/network/dtls/mbedtls/mbedtls-2.16.2/library\x509_crt.c ****     { MBEDTLS_X509_BADCERT_KEY_USAGE,     "Usage does not match the keyUsage extension" },
1679:C:/Users/dtjld/workspace/AIoT/src/LiteOS_Lab/iot_link/network/dtls/mbedtls/mbedtls-2.16.2/library\x509_crt.c ****     { MBEDTLS_X509_BADCERT_EXT_KEY_USAGE, "Usage does not match the extendedKeyUsage extension" },
1680:C:/Users/dtjld/workspace/AIoT/src/LiteOS_Lab/iot_link/network/dtls/mbedtls/mbedtls-2.16.2/library\x509_crt.c ****     { MBEDTLS_X509_BADCERT_NS_CERT_TYPE,  "Usage does not match the nsCertType extension" },
1681:C:/Users/dtjld/workspace/AIoT/src/LiteOS_Lab/iot_link/network/dtls/mbedtls/mbedtls-2.16.2/library\x509_crt.c ****     { MBEDTLS_X509_BADCERT_BAD_MD,        "The certificate is signed with an unacceptable hash." },
1682:C:/Users/dtjld/workspace/AIoT/src/LiteOS_Lab/iot_link/network/dtls/mbedtls/mbedtls-2.16.2/library\x509_crt.c ****     { MBEDTLS_X509_BADCERT_BAD_PK,        "The certificate is signed with an unacceptable PK alg (e
1683:C:/Users/dtjld/workspace/AIoT/src/LiteOS_Lab/iot_link/network/dtls/mbedtls/mbedtls-2.16.2/library\x509_crt.c ****     { MBEDTLS_X509_BADCERT_BAD_KEY,       "The certificate is signed with an unacceptable key (eg b
1684:C:/Users/dtjld/workspace/AIoT/src/LiteOS_Lab/iot_link/network/dtls/mbedtls/mbedtls-2.16.2/library\x509_crt.c ****     { MBEDTLS_X509_BADCRL_BAD_MD,         "The CRL is signed with an unacceptable hash." },
1685:C:/Users/dtjld/workspace/AIoT/src/LiteOS_Lab/iot_link/network/dtls/mbedtls/mbedtls-2.16.2/library\x509_crt.c ****     { MBEDTLS_X509_BADCRL_BAD_PK,         "The CRL is signed with an unacceptable PK alg (eg RSA vs
1686:C:/Users/dtjld/workspace/AIoT/src/LiteOS_Lab/iot_link/network/dtls/mbedtls/mbedtls-2.16.2/library\x509_crt.c ****     { MBEDTLS_X509_BADCRL_BAD_KEY,        "The CRL is signed with an unacceptable key (eg bad curve
1687:C:/Users/dtjld/workspace/AIoT/src/LiteOS_Lab/iot_link/network/dtls/mbedtls/mbedtls-2.16.2/library\x509_crt.c ****     { 0, NULL }
1688:C:/Users/dtjld/workspace/AIoT/src/LiteOS_Lab/iot_link/network/dtls/mbedtls/mbedtls-2.16.2/library\x509_crt.c **** };
1689:C:/Users/dtjld/workspace/AIoT/src/LiteOS_Lab/iot_link/network/dtls/mbedtls/mbedtls-2.16.2/library\x509_crt.c **** 
1690:C:/Users/dtjld/workspace/AIoT/src/LiteOS_Lab/iot_link/network/dtls/mbedtls/mbedtls-2.16.2/library\x509_crt.c **** int mbedtls_x509_crt_verify_info( char *buf, size_t size, const char *prefix,
1691:C:/Users/dtjld/workspace/AIoT/src/LiteOS_Lab/iot_link/network/dtls/mbedtls/mbedtls-2.16.2/library\x509_crt.c ****                           uint32_t flags )
1692:C:/Users/dtjld/workspace/AIoT/src/LiteOS_Lab/iot_link/network/dtls/mbedtls/mbedtls-2.16.2/library\x509_crt.c **** {
 5709              		.loc 2 1692 0
 5710              		.cfi_startproc
 5711              		@ args = 0, pretend = 0, frame = 32
 5712              		@ frame_needed = 1, uses_anonymous_args = 0
 5713 0000 90B5     		push	{r4, r7, lr}
ARM GAS  C:\Users\dtjld\AppData\Local\Temp\ccTXdst3.s 			page 138


 5714              	.LCFI136:
 5715              		.cfi_def_cfa_offset 12
 5716              		.cfi_offset 4, -12
 5717              		.cfi_offset 7, -8
 5718              		.cfi_offset 14, -4
 5719 0002 8BB0     		sub	sp, sp, #44
 5720              	.LCFI137:
 5721              		.cfi_def_cfa_offset 56
 5722 0004 02AF     		add	r7, sp, #8
 5723              	.LCFI138:
 5724              		.cfi_def_cfa 7, 48
 5725 0006 F860     		str	r0, [r7, #12]
 5726 0008 B960     		str	r1, [r7, #8]
 5727 000a 7A60     		str	r2, [r7, #4]
 5728 000c 3B60     		str	r3, [r7]
1693:C:/Users/dtjld/workspace/AIoT/src/LiteOS_Lab/iot_link/network/dtls/mbedtls/mbedtls-2.16.2/library\x509_crt.c ****     int ret;
1694:C:/Users/dtjld/workspace/AIoT/src/LiteOS_Lab/iot_link/network/dtls/mbedtls/mbedtls-2.16.2/library\x509_crt.c ****     const struct x509_crt_verify_string *cur;
1695:C:/Users/dtjld/workspace/AIoT/src/LiteOS_Lab/iot_link/network/dtls/mbedtls/mbedtls-2.16.2/library\x509_crt.c ****     char *p = buf;
 5729              		.loc 2 1695 0
 5730 000e FB68     		ldr	r3, [r7, #12]
 5731 0010 BB61     		str	r3, [r7, #24]
1696:C:/Users/dtjld/workspace/AIoT/src/LiteOS_Lab/iot_link/network/dtls/mbedtls/mbedtls-2.16.2/library\x509_crt.c ****     size_t n = size;
 5732              		.loc 2 1696 0
 5733 0012 BB68     		ldr	r3, [r7, #8]
 5734 0014 7B61     		str	r3, [r7, #20]
1697:C:/Users/dtjld/workspace/AIoT/src/LiteOS_Lab/iot_link/network/dtls/mbedtls/mbedtls-2.16.2/library\x509_crt.c **** 
1698:C:/Users/dtjld/workspace/AIoT/src/LiteOS_Lab/iot_link/network/dtls/mbedtls/mbedtls-2.16.2/library\x509_crt.c ****     for( cur = x509_crt_verify_strings; cur->string != NULL ; cur++ )
 5735              		.loc 2 1698 0
 5736 0016 2C4B     		ldr	r3, .L400
 5737 0018 FB61     		str	r3, [r7, #28]
 5738 001a 2DE0     		b	.L389
 5739              	.L395:
1699:C:/Users/dtjld/workspace/AIoT/src/LiteOS_Lab/iot_link/network/dtls/mbedtls/mbedtls-2.16.2/library\x509_crt.c ****     {
1700:C:/Users/dtjld/workspace/AIoT/src/LiteOS_Lab/iot_link/network/dtls/mbedtls/mbedtls-2.16.2/library\x509_crt.c ****         if( ( flags & cur->code ) == 0 )
 5740              		.loc 2 1700 0
 5741 001c FB69     		ldr	r3, [r7, #28]
 5742 001e 1B68     		ldr	r3, [r3]
 5743 0020 1A46     		mov	r2, r3
 5744 0022 3B68     		ldr	r3, [r7]
 5745 0024 1340     		ands	r3, r3, r2
 5746 0026 002B     		cmp	r3, #0
 5747 0028 22D0     		beq	.L399
1701:C:/Users/dtjld/workspace/AIoT/src/LiteOS_Lab/iot_link/network/dtls/mbedtls/mbedtls-2.16.2/library\x509_crt.c ****             continue;
1702:C:/Users/dtjld/workspace/AIoT/src/LiteOS_Lab/iot_link/network/dtls/mbedtls/mbedtls-2.16.2/library\x509_crt.c **** 
1703:C:/Users/dtjld/workspace/AIoT/src/LiteOS_Lab/iot_link/network/dtls/mbedtls/mbedtls-2.16.2/library\x509_crt.c ****         ret = mbedtls_snprintf( p, n, "%s%s\n", prefix, cur->string );
 5748              		.loc 2 1703 0
 5749 002a 284B     		ldr	r3, .L400+4
 5750 002c 1C68     		ldr	r4, [r3]
 5751 002e FB69     		ldr	r3, [r7, #28]
 5752 0030 5B68     		ldr	r3, [r3, #4]
 5753 0032 0093     		str	r3, [sp]
 5754 0034 7B68     		ldr	r3, [r7, #4]
 5755 0036 264A     		ldr	r2, .L400+8
 5756 0038 7969     		ldr	r1, [r7, #20]
 5757 003a B869     		ldr	r0, [r7, #24]
 5758 003c A047     		blx	r4
 5759              	.LVL34:
ARM GAS  C:\Users\dtjld\AppData\Local\Temp\ccTXdst3.s 			page 139


 5760 003e 3861     		str	r0, [r7, #16]
1704:C:/Users/dtjld/workspace/AIoT/src/LiteOS_Lab/iot_link/network/dtls/mbedtls/mbedtls-2.16.2/library\x509_crt.c ****         MBEDTLS_X509_SAFE_SNPRINTF;
 5761              		.loc 2 1704 0
 5762 0040 3B69     		ldr	r3, [r7, #16]
 5763 0042 002B     		cmp	r3, #0
 5764 0044 03DB     		blt	.L392
 5765              		.loc 2 1704 0 is_stmt 0 discriminator 2
 5766 0046 3B69     		ldr	r3, [r7, #16]
 5767 0048 7A69     		ldr	r2, [r7, #20]
 5768 004a 9A42     		cmp	r2, r3
 5769 004c 01D8     		bhi	.L393
 5770              	.L392:
 5771              		.loc 2 1704 0 discriminator 3
 5772 004e 214B     		ldr	r3, .L400+12
 5773 0050 35E0     		b	.L394
 5774              	.L393:
 5775              		.loc 2 1704 0 discriminator 4
 5776 0052 3B69     		ldr	r3, [r7, #16]
 5777 0054 7A69     		ldr	r2, [r7, #20]
 5778 0056 D31A     		subs	r3, r2, r3
 5779 0058 7B61     		str	r3, [r7, #20]
 5780 005a 3B69     		ldr	r3, [r7, #16]
 5781 005c BA69     		ldr	r2, [r7, #24]
 5782 005e 1344     		add	r3, r3, r2
 5783 0060 BB61     		str	r3, [r7, #24]
1705:C:/Users/dtjld/workspace/AIoT/src/LiteOS_Lab/iot_link/network/dtls/mbedtls/mbedtls-2.16.2/library\x509_crt.c ****         flags ^= cur->code;
 5784              		.loc 2 1705 0 is_stmt 1 discriminator 4
 5785 0062 FB69     		ldr	r3, [r7, #28]
 5786 0064 1B68     		ldr	r3, [r3]
 5787 0066 1A46     		mov	r2, r3
 5788 0068 3B68     		ldr	r3, [r7]
 5789 006a 5340     		eors	r3, r3, r2
 5790 006c 3B60     		str	r3, [r7]
 5791 006e 00E0     		b	.L391
 5792              	.L399:
1701:C:/Users/dtjld/workspace/AIoT/src/LiteOS_Lab/iot_link/network/dtls/mbedtls/mbedtls-2.16.2/library\x509_crt.c ****             continue;
 5793              		.loc 2 1701 0
 5794 0070 00BF     		nop
 5795              	.L391:
1698:C:/Users/dtjld/workspace/AIoT/src/LiteOS_Lab/iot_link/network/dtls/mbedtls/mbedtls-2.16.2/library\x509_crt.c ****     {
 5796              		.loc 2 1698 0 discriminator 2
 5797 0072 FB69     		ldr	r3, [r7, #28]
 5798 0074 0833     		adds	r3, r3, #8
 5799 0076 FB61     		str	r3, [r7, #28]
 5800              	.L389:
1698:C:/Users/dtjld/workspace/AIoT/src/LiteOS_Lab/iot_link/network/dtls/mbedtls/mbedtls-2.16.2/library\x509_crt.c ****     {
 5801              		.loc 2 1698 0 is_stmt 0 discriminator 1
 5802 0078 FB69     		ldr	r3, [r7, #28]
 5803 007a 5B68     		ldr	r3, [r3, #4]
 5804 007c 002B     		cmp	r3, #0
 5805 007e CDD1     		bne	.L395
1706:C:/Users/dtjld/workspace/AIoT/src/LiteOS_Lab/iot_link/network/dtls/mbedtls/mbedtls-2.16.2/library\x509_crt.c ****     }
1707:C:/Users/dtjld/workspace/AIoT/src/LiteOS_Lab/iot_link/network/dtls/mbedtls/mbedtls-2.16.2/library\x509_crt.c **** 
1708:C:/Users/dtjld/workspace/AIoT/src/LiteOS_Lab/iot_link/network/dtls/mbedtls/mbedtls-2.16.2/library\x509_crt.c ****     if( flags != 0 )
 5806              		.loc 2 1708 0 is_stmt 1
 5807 0080 3B68     		ldr	r3, [r7]
 5808 0082 002B     		cmp	r3, #0
ARM GAS  C:\Users\dtjld\AppData\Local\Temp\ccTXdst3.s 			page 140


 5809 0084 18D0     		beq	.L396
1709:C:/Users/dtjld/workspace/AIoT/src/LiteOS_Lab/iot_link/network/dtls/mbedtls/mbedtls-2.16.2/library\x509_crt.c ****     {
1710:C:/Users/dtjld/workspace/AIoT/src/LiteOS_Lab/iot_link/network/dtls/mbedtls/mbedtls-2.16.2/library\x509_crt.c ****         ret = mbedtls_snprintf( p, n, "%sUnknown reason "
 5810              		.loc 2 1710 0
 5811 0086 114B     		ldr	r3, .L400+4
 5812 0088 1C68     		ldr	r4, [r3]
 5813 008a 7B68     		ldr	r3, [r7, #4]
 5814 008c 124A     		ldr	r2, .L400+16
 5815 008e 7969     		ldr	r1, [r7, #20]
 5816 0090 B869     		ldr	r0, [r7, #24]
 5817 0092 A047     		blx	r4
 5818              	.LVL35:
 5819 0094 3861     		str	r0, [r7, #16]
1711:C:/Users/dtjld/workspace/AIoT/src/LiteOS_Lab/iot_link/network/dtls/mbedtls/mbedtls-2.16.2/library\x509_crt.c ****                                        "(this should not happen)\n", prefix );
1712:C:/Users/dtjld/workspace/AIoT/src/LiteOS_Lab/iot_link/network/dtls/mbedtls/mbedtls-2.16.2/library\x509_crt.c ****         MBEDTLS_X509_SAFE_SNPRINTF;
 5820              		.loc 2 1712 0
 5821 0096 3B69     		ldr	r3, [r7, #16]
 5822 0098 002B     		cmp	r3, #0
 5823 009a 03DB     		blt	.L397
 5824              		.loc 2 1712 0 is_stmt 0 discriminator 2
 5825 009c 3B69     		ldr	r3, [r7, #16]
 5826 009e 7A69     		ldr	r2, [r7, #20]
 5827 00a0 9A42     		cmp	r2, r3
 5828 00a2 01D8     		bhi	.L398
 5829              	.L397:
 5830              		.loc 2 1712 0 discriminator 3
 5831 00a4 0B4B     		ldr	r3, .L400+12
 5832 00a6 0AE0     		b	.L394
 5833              	.L398:
 5834              		.loc 2 1712 0 discriminator 4
 5835 00a8 3B69     		ldr	r3, [r7, #16]
 5836 00aa 7A69     		ldr	r2, [r7, #20]
 5837 00ac D31A     		subs	r3, r2, r3
 5838 00ae 7B61     		str	r3, [r7, #20]
 5839 00b0 3B69     		ldr	r3, [r7, #16]
 5840 00b2 BA69     		ldr	r2, [r7, #24]
 5841 00b4 1344     		add	r3, r3, r2
 5842 00b6 BB61     		str	r3, [r7, #24]
 5843              	.L396:
1713:C:/Users/dtjld/workspace/AIoT/src/LiteOS_Lab/iot_link/network/dtls/mbedtls/mbedtls-2.16.2/library\x509_crt.c ****     }
1714:C:/Users/dtjld/workspace/AIoT/src/LiteOS_Lab/iot_link/network/dtls/mbedtls/mbedtls-2.16.2/library\x509_crt.c **** 
1715:C:/Users/dtjld/workspace/AIoT/src/LiteOS_Lab/iot_link/network/dtls/mbedtls/mbedtls-2.16.2/library\x509_crt.c ****     return( (int) ( size - n ) );
 5844              		.loc 2 1715 0 is_stmt 1
 5845 00b8 BA68     		ldr	r2, [r7, #8]
 5846 00ba 7B69     		ldr	r3, [r7, #20]
 5847 00bc D31A     		subs	r3, r2, r3
 5848              	.L394:
1716:C:/Users/dtjld/workspace/AIoT/src/LiteOS_Lab/iot_link/network/dtls/mbedtls/mbedtls-2.16.2/library\x509_crt.c **** }
 5849              		.loc 2 1716 0
 5850 00be 1846     		mov	r0, r3
 5851 00c0 2437     		adds	r7, r7, #36
 5852              	.LCFI139:
 5853              		.cfi_def_cfa_offset 12
 5854 00c2 BD46     		mov	sp, r7
 5855              	.LCFI140:
 5856              		.cfi_def_cfa_register 13
 5857              		@ sp needed
ARM GAS  C:\Users\dtjld\AppData\Local\Temp\ccTXdst3.s 			page 141


 5858 00c4 90BD     		pop	{r4, r7, pc}
 5859              	.L401:
 5860 00c6 00BF     		.align	2
 5861              	.L400:
 5862 00c8 00000000 		.word	x509_crt_verify_strings
 5863 00cc 00000000 		.word	mbedtls_snprintf
 5864 00d0 2C070000 		.word	.LC61
 5865 00d4 80D6FFFF 		.word	-10624
 5866 00d8 34070000 		.word	.LC62
 5867              		.cfi_endproc
 5868              	.LFE38:
 5870              		.section	.text.mbedtls_x509_crt_check_key_usage,"ax",%progbits
 5871              		.align	1
 5872              		.global	mbedtls_x509_crt_check_key_usage
 5873              		.syntax unified
 5874              		.thumb
 5875              		.thumb_func
 5876              		.fpu fpv4-sp-d16
 5878              	mbedtls_x509_crt_check_key_usage:
 5879              	.LFB39:
1717:C:/Users/dtjld/workspace/AIoT/src/LiteOS_Lab/iot_link/network/dtls/mbedtls/mbedtls-2.16.2/library\x509_crt.c **** 
1718:C:/Users/dtjld/workspace/AIoT/src/LiteOS_Lab/iot_link/network/dtls/mbedtls/mbedtls-2.16.2/library\x509_crt.c **** #if defined(MBEDTLS_X509_CHECK_KEY_USAGE)
1719:C:/Users/dtjld/workspace/AIoT/src/LiteOS_Lab/iot_link/network/dtls/mbedtls/mbedtls-2.16.2/library\x509_crt.c **** int mbedtls_x509_crt_check_key_usage( const mbedtls_x509_crt *crt,
1720:C:/Users/dtjld/workspace/AIoT/src/LiteOS_Lab/iot_link/network/dtls/mbedtls/mbedtls-2.16.2/library\x509_crt.c ****                                       unsigned int usage )
1721:C:/Users/dtjld/workspace/AIoT/src/LiteOS_Lab/iot_link/network/dtls/mbedtls/mbedtls-2.16.2/library\x509_crt.c **** {
 5880              		.loc 2 1721 0
 5881              		.cfi_startproc
 5882              		@ args = 0, pretend = 0, frame = 24
 5883              		@ frame_needed = 1, uses_anonymous_args = 0
 5884              		@ link register save eliminated.
 5885 0000 80B4     		push	{r7}
 5886              	.LCFI141:
 5887              		.cfi_def_cfa_offset 4
 5888              		.cfi_offset 7, -4
 5889 0002 87B0     		sub	sp, sp, #28
 5890              	.LCFI142:
 5891              		.cfi_def_cfa_offset 32
 5892 0004 00AF     		add	r7, sp, #0
 5893              	.LCFI143:
 5894              		.cfi_def_cfa_register 7
 5895 0006 7860     		str	r0, [r7, #4]
 5896 0008 3960     		str	r1, [r7]
1722:C:/Users/dtjld/workspace/AIoT/src/LiteOS_Lab/iot_link/network/dtls/mbedtls/mbedtls-2.16.2/library\x509_crt.c ****     unsigned int usage_must, usage_may;
1723:C:/Users/dtjld/workspace/AIoT/src/LiteOS_Lab/iot_link/network/dtls/mbedtls/mbedtls-2.16.2/library\x509_crt.c ****     unsigned int may_mask = MBEDTLS_X509_KU_ENCIPHER_ONLY
 5897              		.loc 2 1723 0
 5898 000a 48F20103 		movw	r3, #32769
 5899 000e 7B61     		str	r3, [r7, #20]
1724:C:/Users/dtjld/workspace/AIoT/src/LiteOS_Lab/iot_link/network/dtls/mbedtls/mbedtls-2.16.2/library\x509_crt.c ****                           | MBEDTLS_X509_KU_DECIPHER_ONLY;
1725:C:/Users/dtjld/workspace/AIoT/src/LiteOS_Lab/iot_link/network/dtls/mbedtls/mbedtls-2.16.2/library\x509_crt.c **** 
1726:C:/Users/dtjld/workspace/AIoT/src/LiteOS_Lab/iot_link/network/dtls/mbedtls/mbedtls-2.16.2/library\x509_crt.c ****     if( ( crt->ext_types & MBEDTLS_X509_EXT_KEY_USAGE ) == 0 )
 5900              		.loc 2 1726 0
 5901 0010 7B68     		ldr	r3, [r7, #4]
 5902 0012 D3F8F830 		ldr	r3, [r3, #248]
 5903 0016 03F00403 		and	r3, r3, #4
 5904 001a 002B     		cmp	r3, #0
 5905 001c 01D1     		bne	.L403
1727:C:/Users/dtjld/workspace/AIoT/src/LiteOS_Lab/iot_link/network/dtls/mbedtls/mbedtls-2.16.2/library\x509_crt.c ****         return( 0 );
ARM GAS  C:\Users\dtjld\AppData\Local\Temp\ccTXdst3.s 			page 142


 5906              		.loc 2 1727 0
 5907 001e 0023     		movs	r3, #0
 5908 0020 22E0     		b	.L404
 5909              	.L403:
1728:C:/Users/dtjld/workspace/AIoT/src/LiteOS_Lab/iot_link/network/dtls/mbedtls/mbedtls-2.16.2/library\x509_crt.c **** 
1729:C:/Users/dtjld/workspace/AIoT/src/LiteOS_Lab/iot_link/network/dtls/mbedtls/mbedtls-2.16.2/library\x509_crt.c ****     usage_must = usage & ~may_mask;
 5910              		.loc 2 1729 0
 5911 0022 7B69     		ldr	r3, [r7, #20]
 5912 0024 DB43     		mvns	r3, r3
 5913 0026 3A68     		ldr	r2, [r7]
 5914 0028 1340     		ands	r3, r3, r2
 5915 002a 3B61     		str	r3, [r7, #16]
1730:C:/Users/dtjld/workspace/AIoT/src/LiteOS_Lab/iot_link/network/dtls/mbedtls/mbedtls-2.16.2/library\x509_crt.c **** 
1731:C:/Users/dtjld/workspace/AIoT/src/LiteOS_Lab/iot_link/network/dtls/mbedtls/mbedtls-2.16.2/library\x509_crt.c ****     if( ( ( crt->key_usage & ~may_mask ) & usage_must ) != usage_must )
 5916              		.loc 2 1731 0
 5917 002c 7B68     		ldr	r3, [r7, #4]
 5918 002e D3F80421 		ldr	r2, [r3, #260]
 5919 0032 7B69     		ldr	r3, [r7, #20]
 5920 0034 DB43     		mvns	r3, r3
 5921 0036 1A40     		ands	r2, r2, r3
 5922 0038 3B69     		ldr	r3, [r7, #16]
 5923 003a 1340     		ands	r3, r3, r2
 5924 003c 3A69     		ldr	r2, [r7, #16]
 5925 003e 9A42     		cmp	r2, r3
 5926 0040 01D0     		beq	.L405
1732:C:/Users/dtjld/workspace/AIoT/src/LiteOS_Lab/iot_link/network/dtls/mbedtls/mbedtls-2.16.2/library\x509_crt.c ****         return( MBEDTLS_ERR_X509_BAD_INPUT_DATA );
 5927              		.loc 2 1732 0
 5928 0042 0C4B     		ldr	r3, .L407
 5929 0044 10E0     		b	.L404
 5930              	.L405:
1733:C:/Users/dtjld/workspace/AIoT/src/LiteOS_Lab/iot_link/network/dtls/mbedtls/mbedtls-2.16.2/library\x509_crt.c **** 
1734:C:/Users/dtjld/workspace/AIoT/src/LiteOS_Lab/iot_link/network/dtls/mbedtls/mbedtls-2.16.2/library\x509_crt.c ****     usage_may = usage & may_mask;
 5931              		.loc 2 1734 0
 5932 0046 3A68     		ldr	r2, [r7]
 5933 0048 7B69     		ldr	r3, [r7, #20]
 5934 004a 1340     		ands	r3, r3, r2
 5935 004c FB60     		str	r3, [r7, #12]
1735:C:/Users/dtjld/workspace/AIoT/src/LiteOS_Lab/iot_link/network/dtls/mbedtls/mbedtls-2.16.2/library\x509_crt.c **** 
1736:C:/Users/dtjld/workspace/AIoT/src/LiteOS_Lab/iot_link/network/dtls/mbedtls/mbedtls-2.16.2/library\x509_crt.c ****     if( ( ( crt->key_usage & may_mask ) | usage_may ) != usage_may )
 5936              		.loc 2 1736 0
 5937 004e 7B68     		ldr	r3, [r7, #4]
 5938 0050 D3F80421 		ldr	r2, [r3, #260]
 5939 0054 7B69     		ldr	r3, [r7, #20]
 5940 0056 1A40     		ands	r2, r2, r3
 5941 0058 FB68     		ldr	r3, [r7, #12]
 5942 005a 1343     		orrs	r3, r3, r2
 5943 005c FA68     		ldr	r2, [r7, #12]
 5944 005e 9A42     		cmp	r2, r3
 5945 0060 01D0     		beq	.L406
1737:C:/Users/dtjld/workspace/AIoT/src/LiteOS_Lab/iot_link/network/dtls/mbedtls/mbedtls-2.16.2/library\x509_crt.c ****         return( MBEDTLS_ERR_X509_BAD_INPUT_DATA );
 5946              		.loc 2 1737 0
 5947 0062 044B     		ldr	r3, .L407
 5948 0064 00E0     		b	.L404
 5949              	.L406:
1738:C:/Users/dtjld/workspace/AIoT/src/LiteOS_Lab/iot_link/network/dtls/mbedtls/mbedtls-2.16.2/library\x509_crt.c **** 
1739:C:/Users/dtjld/workspace/AIoT/src/LiteOS_Lab/iot_link/network/dtls/mbedtls/mbedtls-2.16.2/library\x509_crt.c ****     return( 0 );
 5950              		.loc 2 1739 0
ARM GAS  C:\Users\dtjld\AppData\Local\Temp\ccTXdst3.s 			page 143


 5951 0066 0023     		movs	r3, #0
 5952              	.L404:
1740:C:/Users/dtjld/workspace/AIoT/src/LiteOS_Lab/iot_link/network/dtls/mbedtls/mbedtls-2.16.2/library\x509_crt.c **** }
 5953              		.loc 2 1740 0
 5954 0068 1846     		mov	r0, r3
 5955 006a 1C37     		adds	r7, r7, #28
 5956              	.LCFI144:
 5957              		.cfi_def_cfa_offset 4
 5958 006c BD46     		mov	sp, r7
 5959              	.LCFI145:
 5960              		.cfi_def_cfa_register 13
 5961              		@ sp needed
 5962 006e 5DF8047B 		ldr	r7, [sp], #4
 5963              	.LCFI146:
 5964              		.cfi_restore 7
 5965              		.cfi_def_cfa_offset 0
 5966 0072 7047     		bx	lr
 5967              	.L408:
 5968              		.align	2
 5969              	.L407:
 5970 0074 00D8FFFF 		.word	-10240
 5971              		.cfi_endproc
 5972              	.LFE39:
 5974              		.section	.rodata
 5975 075f 00       		.align	2
 5976              	.LC63:
 5977 0760 551D2500 		.ascii	"U\035%\000\000"
 5977      00
 5978              		.section	.text.mbedtls_x509_crt_check_extended_key_usage,"ax",%progbits
 5979              		.align	1
 5980              		.global	mbedtls_x509_crt_check_extended_key_usage
 5981              		.syntax unified
 5982              		.thumb
 5983              		.thumb_func
 5984              		.fpu fpv4-sp-d16
 5986              	mbedtls_x509_crt_check_extended_key_usage:
 5987              	.LFB40:
1741:C:/Users/dtjld/workspace/AIoT/src/LiteOS_Lab/iot_link/network/dtls/mbedtls/mbedtls-2.16.2/library\x509_crt.c **** #endif
1742:C:/Users/dtjld/workspace/AIoT/src/LiteOS_Lab/iot_link/network/dtls/mbedtls/mbedtls-2.16.2/library\x509_crt.c **** 
1743:C:/Users/dtjld/workspace/AIoT/src/LiteOS_Lab/iot_link/network/dtls/mbedtls/mbedtls-2.16.2/library\x509_crt.c **** #if defined(MBEDTLS_X509_CHECK_EXTENDED_KEY_USAGE)
1744:C:/Users/dtjld/workspace/AIoT/src/LiteOS_Lab/iot_link/network/dtls/mbedtls/mbedtls-2.16.2/library\x509_crt.c **** int mbedtls_x509_crt_check_extended_key_usage( const mbedtls_x509_crt *crt,
1745:C:/Users/dtjld/workspace/AIoT/src/LiteOS_Lab/iot_link/network/dtls/mbedtls/mbedtls-2.16.2/library\x509_crt.c ****                                        const char *usage_oid,
1746:C:/Users/dtjld/workspace/AIoT/src/LiteOS_Lab/iot_link/network/dtls/mbedtls/mbedtls-2.16.2/library\x509_crt.c ****                                        size_t usage_len )
1747:C:/Users/dtjld/workspace/AIoT/src/LiteOS_Lab/iot_link/network/dtls/mbedtls/mbedtls-2.16.2/library\x509_crt.c **** {
 5988              		.loc 2 1747 0
 5989              		.cfi_startproc
 5990              		@ args = 0, pretend = 0, frame = 24
 5991              		@ frame_needed = 1, uses_anonymous_args = 0
 5992 0000 80B5     		push	{r7, lr}
 5993              	.LCFI147:
 5994              		.cfi_def_cfa_offset 8
 5995              		.cfi_offset 7, -8
 5996              		.cfi_offset 14, -4
 5997 0002 86B0     		sub	sp, sp, #24
 5998              	.LCFI148:
 5999              		.cfi_def_cfa_offset 32
 6000 0004 00AF     		add	r7, sp, #0
ARM GAS  C:\Users\dtjld\AppData\Local\Temp\ccTXdst3.s 			page 144


 6001              	.LCFI149:
 6002              		.cfi_def_cfa_register 7
 6003 0006 F860     		str	r0, [r7, #12]
 6004 0008 B960     		str	r1, [r7, #8]
 6005 000a 7A60     		str	r2, [r7, #4]
1748:C:/Users/dtjld/workspace/AIoT/src/LiteOS_Lab/iot_link/network/dtls/mbedtls/mbedtls-2.16.2/library\x509_crt.c ****     const mbedtls_x509_sequence *cur;
1749:C:/Users/dtjld/workspace/AIoT/src/LiteOS_Lab/iot_link/network/dtls/mbedtls/mbedtls-2.16.2/library\x509_crt.c **** 
1750:C:/Users/dtjld/workspace/AIoT/src/LiteOS_Lab/iot_link/network/dtls/mbedtls/mbedtls-2.16.2/library\x509_crt.c ****     /* Extension is not mandatory, absent means no restriction */
1751:C:/Users/dtjld/workspace/AIoT/src/LiteOS_Lab/iot_link/network/dtls/mbedtls/mbedtls-2.16.2/library\x509_crt.c ****     if( ( crt->ext_types & MBEDTLS_X509_EXT_EXTENDED_KEY_USAGE ) == 0 )
 6006              		.loc 2 1751 0
 6007 000c FB68     		ldr	r3, [r7, #12]
 6008 000e D3F8F830 		ldr	r3, [r3, #248]
 6009 0012 03F40063 		and	r3, r3, #2048
 6010 0016 002B     		cmp	r3, #0
 6011 0018 01D1     		bne	.L410
1752:C:/Users/dtjld/workspace/AIoT/src/LiteOS_Lab/iot_link/network/dtls/mbedtls/mbedtls-2.16.2/library\x509_crt.c ****         return( 0 );
 6012              		.loc 2 1752 0
 6013 001a 0023     		movs	r3, #0
 6014 001c 34E0     		b	.L411
 6015              	.L410:
1753:C:/Users/dtjld/workspace/AIoT/src/LiteOS_Lab/iot_link/network/dtls/mbedtls/mbedtls-2.16.2/library\x509_crt.c **** 
1754:C:/Users/dtjld/workspace/AIoT/src/LiteOS_Lab/iot_link/network/dtls/mbedtls/mbedtls-2.16.2/library\x509_crt.c ****     /*
1755:C:/Users/dtjld/workspace/AIoT/src/LiteOS_Lab/iot_link/network/dtls/mbedtls/mbedtls-2.16.2/library\x509_crt.c ****      * Look for the requested usage (or wildcard ANY) in our list
1756:C:/Users/dtjld/workspace/AIoT/src/LiteOS_Lab/iot_link/network/dtls/mbedtls/mbedtls-2.16.2/library\x509_crt.c ****      */
1757:C:/Users/dtjld/workspace/AIoT/src/LiteOS_Lab/iot_link/network/dtls/mbedtls/mbedtls-2.16.2/library\x509_crt.c ****     for( cur = &crt->ext_key_usage; cur != NULL; cur = cur->next )
 6016              		.loc 2 1757 0
 6017 001e FB68     		ldr	r3, [r7, #12]
 6018 0020 03F58473 		add	r3, r3, #264
 6019 0024 7B61     		str	r3, [r7, #20]
 6020 0026 2BE0     		b	.L412
 6021              	.L418:
 6022              	.LBB7:
1758:C:/Users/dtjld/workspace/AIoT/src/LiteOS_Lab/iot_link/network/dtls/mbedtls/mbedtls-2.16.2/library\x509_crt.c ****     {
1759:C:/Users/dtjld/workspace/AIoT/src/LiteOS_Lab/iot_link/network/dtls/mbedtls/mbedtls-2.16.2/library\x509_crt.c ****         const mbedtls_x509_buf *cur_oid = &cur->buf;
 6023              		.loc 2 1759 0
 6024 0028 7B69     		ldr	r3, [r7, #20]
 6025 002a 3B61     		str	r3, [r7, #16]
1760:C:/Users/dtjld/workspace/AIoT/src/LiteOS_Lab/iot_link/network/dtls/mbedtls/mbedtls-2.16.2/library\x509_crt.c **** 
1761:C:/Users/dtjld/workspace/AIoT/src/LiteOS_Lab/iot_link/network/dtls/mbedtls/mbedtls-2.16.2/library\x509_crt.c ****         if( cur_oid->len == usage_len &&
 6026              		.loc 2 1761 0
 6027 002c 3B69     		ldr	r3, [r7, #16]
 6028 002e 5B68     		ldr	r3, [r3, #4]
 6029 0030 7A68     		ldr	r2, [r7, #4]
 6030 0032 9A42     		cmp	r2, r3
 6031 0034 0BD1     		bne	.L413
1762:C:/Users/dtjld/workspace/AIoT/src/LiteOS_Lab/iot_link/network/dtls/mbedtls/mbedtls-2.16.2/library\x509_crt.c ****             memcmp( cur_oid->p, usage_oid, usage_len ) == 0 )
 6032              		.loc 2 1762 0 discriminator 1
 6033 0036 3B69     		ldr	r3, [r7, #16]
 6034 0038 9B68     		ldr	r3, [r3, #8]
 6035 003a 7A68     		ldr	r2, [r7, #4]
 6036 003c B968     		ldr	r1, [r7, #8]
 6037 003e 1846     		mov	r0, r3
 6038 0040 FFF7FEFF 		bl	memcmp
 6039 0044 0346     		mov	r3, r0
1761:C:/Users/dtjld/workspace/AIoT/src/LiteOS_Lab/iot_link/network/dtls/mbedtls/mbedtls-2.16.2/library\x509_crt.c ****             memcmp( cur_oid->p, usage_oid, usage_len ) == 0 )
 6040              		.loc 2 1761 0 discriminator 1
 6041 0046 002B     		cmp	r3, #0
ARM GAS  C:\Users\dtjld\AppData\Local\Temp\ccTXdst3.s 			page 145


 6042 0048 01D1     		bne	.L413
1763:C:/Users/dtjld/workspace/AIoT/src/LiteOS_Lab/iot_link/network/dtls/mbedtls/mbedtls-2.16.2/library\x509_crt.c ****         {
1764:C:/Users/dtjld/workspace/AIoT/src/LiteOS_Lab/iot_link/network/dtls/mbedtls/mbedtls-2.16.2/library\x509_crt.c ****             return( 0 );
 6043              		.loc 2 1764 0
 6044 004a 0023     		movs	r3, #0
 6045 004c 1CE0     		b	.L411
 6046              	.L413:
1765:C:/Users/dtjld/workspace/AIoT/src/LiteOS_Lab/iot_link/network/dtls/mbedtls/mbedtls-2.16.2/library\x509_crt.c ****         }
1766:C:/Users/dtjld/workspace/AIoT/src/LiteOS_Lab/iot_link/network/dtls/mbedtls/mbedtls-2.16.2/library\x509_crt.c **** 
1767:C:/Users/dtjld/workspace/AIoT/src/LiteOS_Lab/iot_link/network/dtls/mbedtls/mbedtls-2.16.2/library\x509_crt.c ****         if( MBEDTLS_OID_CMP( MBEDTLS_OID_ANY_EXTENDED_KEY_USAGE, cur_oid ) == 0 )
 6047              		.loc 2 1767 0
 6048 004e 3B69     		ldr	r3, [r7, #16]
 6049 0050 5B68     		ldr	r3, [r3, #4]
 6050 0052 042B     		cmp	r3, #4
 6051 0054 0AD1     		bne	.L414
 6052              		.loc 2 1767 0 is_stmt 0 discriminator 2
 6053 0056 3B69     		ldr	r3, [r7, #16]
 6054 0058 9968     		ldr	r1, [r3, #8]
 6055 005a 3B69     		ldr	r3, [r7, #16]
 6056 005c 5B68     		ldr	r3, [r3, #4]
 6057 005e 1A46     		mov	r2, r3
 6058 0060 0B48     		ldr	r0, .L419
 6059 0062 FFF7FEFF 		bl	memcmp
 6060 0066 0346     		mov	r3, r0
 6061 0068 002B     		cmp	r3, #0
 6062 006a 01D0     		beq	.L415
 6063              	.L414:
 6064              		.loc 2 1767 0 discriminator 3
 6065 006c 0123     		movs	r3, #1
 6066 006e 00E0     		b	.L416
 6067              	.L415:
 6068              		.loc 2 1767 0 discriminator 4
 6069 0070 0023     		movs	r3, #0
 6070              	.L416:
 6071              		.loc 2 1767 0 discriminator 6
 6072 0072 002B     		cmp	r3, #0
 6073 0074 01D1     		bne	.L417
1768:C:/Users/dtjld/workspace/AIoT/src/LiteOS_Lab/iot_link/network/dtls/mbedtls/mbedtls-2.16.2/library\x509_crt.c ****             return( 0 );
 6074              		.loc 2 1768 0 is_stmt 1
 6075 0076 0023     		movs	r3, #0
 6076 0078 06E0     		b	.L411
 6077              	.L417:
 6078              	.LBE7:
1757:C:/Users/dtjld/workspace/AIoT/src/LiteOS_Lab/iot_link/network/dtls/mbedtls/mbedtls-2.16.2/library\x509_crt.c ****     {
 6079              		.loc 2 1757 0 discriminator 2
 6080 007a 7B69     		ldr	r3, [r7, #20]
 6081 007c DB68     		ldr	r3, [r3, #12]
 6082 007e 7B61     		str	r3, [r7, #20]
 6083              	.L412:
1757:C:/Users/dtjld/workspace/AIoT/src/LiteOS_Lab/iot_link/network/dtls/mbedtls/mbedtls-2.16.2/library\x509_crt.c ****     {
 6084              		.loc 2 1757 0 is_stmt 0 discriminator 1
 6085 0080 7B69     		ldr	r3, [r7, #20]
 6086 0082 002B     		cmp	r3, #0
 6087 0084 D0D1     		bne	.L418
1769:C:/Users/dtjld/workspace/AIoT/src/LiteOS_Lab/iot_link/network/dtls/mbedtls/mbedtls-2.16.2/library\x509_crt.c ****     }
1770:C:/Users/dtjld/workspace/AIoT/src/LiteOS_Lab/iot_link/network/dtls/mbedtls/mbedtls-2.16.2/library\x509_crt.c **** 
1771:C:/Users/dtjld/workspace/AIoT/src/LiteOS_Lab/iot_link/network/dtls/mbedtls/mbedtls-2.16.2/library\x509_crt.c ****     return( MBEDTLS_ERR_X509_BAD_INPUT_DATA );
ARM GAS  C:\Users\dtjld\AppData\Local\Temp\ccTXdst3.s 			page 146


 6088              		.loc 2 1771 0 is_stmt 1
 6089 0086 034B     		ldr	r3, .L419+4
 6090              	.L411:
1772:C:/Users/dtjld/workspace/AIoT/src/LiteOS_Lab/iot_link/network/dtls/mbedtls/mbedtls-2.16.2/library\x509_crt.c **** }
 6091              		.loc 2 1772 0
 6092 0088 1846     		mov	r0, r3
 6093 008a 1837     		adds	r7, r7, #24
 6094              	.LCFI150:
 6095              		.cfi_def_cfa_offset 8
 6096 008c BD46     		mov	sp, r7
 6097              	.LCFI151:
 6098              		.cfi_def_cfa_register 13
 6099              		@ sp needed
 6100 008e 80BD     		pop	{r7, pc}
 6101              	.L420:
 6102              		.align	2
 6103              	.L419:
 6104 0090 60070000 		.word	.LC63
 6105 0094 00D8FFFF 		.word	-10240
 6106              		.cfi_endproc
 6107              	.LFE40:
 6109              		.section	.text.mbedtls_x509_crt_is_revoked,"ax",%progbits
 6110              		.align	1
 6111              		.global	mbedtls_x509_crt_is_revoked
 6112              		.syntax unified
 6113              		.thumb
 6114              		.thumb_func
 6115              		.fpu fpv4-sp-d16
 6117              	mbedtls_x509_crt_is_revoked:
 6118              	.LFB41:
1773:C:/Users/dtjld/workspace/AIoT/src/LiteOS_Lab/iot_link/network/dtls/mbedtls/mbedtls-2.16.2/library\x509_crt.c **** #endif /* MBEDTLS_X509_CHECK_EXTENDED_KEY_USAGE */
1774:C:/Users/dtjld/workspace/AIoT/src/LiteOS_Lab/iot_link/network/dtls/mbedtls/mbedtls-2.16.2/library\x509_crt.c **** 
1775:C:/Users/dtjld/workspace/AIoT/src/LiteOS_Lab/iot_link/network/dtls/mbedtls/mbedtls-2.16.2/library\x509_crt.c **** #if defined(MBEDTLS_X509_CRL_PARSE_C)
1776:C:/Users/dtjld/workspace/AIoT/src/LiteOS_Lab/iot_link/network/dtls/mbedtls/mbedtls-2.16.2/library\x509_crt.c **** /*
1777:C:/Users/dtjld/workspace/AIoT/src/LiteOS_Lab/iot_link/network/dtls/mbedtls/mbedtls-2.16.2/library\x509_crt.c ****  * Return 1 if the certificate is revoked, or 0 otherwise.
1778:C:/Users/dtjld/workspace/AIoT/src/LiteOS_Lab/iot_link/network/dtls/mbedtls/mbedtls-2.16.2/library\x509_crt.c ****  */
1779:C:/Users/dtjld/workspace/AIoT/src/LiteOS_Lab/iot_link/network/dtls/mbedtls/mbedtls-2.16.2/library\x509_crt.c **** int mbedtls_x509_crt_is_revoked( const mbedtls_x509_crt *crt, const mbedtls_x509_crl *crl )
1780:C:/Users/dtjld/workspace/AIoT/src/LiteOS_Lab/iot_link/network/dtls/mbedtls/mbedtls-2.16.2/library\x509_crt.c **** {
 6119              		.loc 2 1780 0
 6120              		.cfi_startproc
 6121              		@ args = 0, pretend = 0, frame = 16
 6122              		@ frame_needed = 1, uses_anonymous_args = 0
 6123 0000 80B5     		push	{r7, lr}
 6124              	.LCFI152:
 6125              		.cfi_def_cfa_offset 8
 6126              		.cfi_offset 7, -8
 6127              		.cfi_offset 14, -4
 6128 0002 84B0     		sub	sp, sp, #16
 6129              	.LCFI153:
 6130              		.cfi_def_cfa_offset 24
 6131 0004 00AF     		add	r7, sp, #0
 6132              	.LCFI154:
 6133              		.cfi_def_cfa_register 7
 6134 0006 7860     		str	r0, [r7, #4]
 6135 0008 3960     		str	r1, [r7]
1781:C:/Users/dtjld/workspace/AIoT/src/LiteOS_Lab/iot_link/network/dtls/mbedtls/mbedtls-2.16.2/library\x509_crt.c ****     const mbedtls_x509_crl_entry *cur = &crl->entry;
 6136              		.loc 2 1781 0
ARM GAS  C:\Users\dtjld\AppData\Local\Temp\ccTXdst3.s 			page 147


 6137 000a 3B68     		ldr	r3, [r7]
 6138 000c 8433     		adds	r3, r3, #132
 6139 000e FB60     		str	r3, [r7, #12]
1782:C:/Users/dtjld/workspace/AIoT/src/LiteOS_Lab/iot_link/network/dtls/mbedtls/mbedtls-2.16.2/library\x509_crt.c **** 
1783:C:/Users/dtjld/workspace/AIoT/src/LiteOS_Lab/iot_link/network/dtls/mbedtls/mbedtls-2.16.2/library\x509_crt.c ****     while( cur != NULL && cur->serial.len != 0 )
 6140              		.loc 2 1783 0
 6141 0010 1EE0     		b	.L422
 6142              	.L426:
1784:C:/Users/dtjld/workspace/AIoT/src/LiteOS_Lab/iot_link/network/dtls/mbedtls/mbedtls-2.16.2/library\x509_crt.c ****     {
1785:C:/Users/dtjld/workspace/AIoT/src/LiteOS_Lab/iot_link/network/dtls/mbedtls/mbedtls-2.16.2/library\x509_crt.c ****         if( crt->serial.len == cur->serial.len &&
 6143              		.loc 2 1785 0
 6144 0012 7B68     		ldr	r3, [r7, #4]
 6145 0014 1A6A     		ldr	r2, [r3, #32]
 6146 0016 FB68     		ldr	r3, [r7, #12]
 6147 0018 1B69     		ldr	r3, [r3, #16]
 6148 001a 9A42     		cmp	r2, r3
 6149 001c 15D1     		bne	.L423
1786:C:/Users/dtjld/workspace/AIoT/src/LiteOS_Lab/iot_link/network/dtls/mbedtls/mbedtls-2.16.2/library\x509_crt.c ****             memcmp( crt->serial.p, cur->serial.p, crt->serial.len ) == 0 )
 6150              		.loc 2 1786 0 discriminator 1
 6151 001e 7B68     		ldr	r3, [r7, #4]
 6152 0020 586A     		ldr	r0, [r3, #36]
 6153 0022 FB68     		ldr	r3, [r7, #12]
 6154 0024 5969     		ldr	r1, [r3, #20]
 6155 0026 7B68     		ldr	r3, [r7, #4]
 6156 0028 1B6A     		ldr	r3, [r3, #32]
 6157 002a 1A46     		mov	r2, r3
 6158 002c FFF7FEFF 		bl	memcmp
 6159 0030 0346     		mov	r3, r0
1785:C:/Users/dtjld/workspace/AIoT/src/LiteOS_Lab/iot_link/network/dtls/mbedtls/mbedtls-2.16.2/library\x509_crt.c ****             memcmp( crt->serial.p, cur->serial.p, crt->serial.len ) == 0 )
 6160              		.loc 2 1785 0 discriminator 1
 6161 0032 002B     		cmp	r3, #0
 6162 0034 09D1     		bne	.L423
1787:C:/Users/dtjld/workspace/AIoT/src/LiteOS_Lab/iot_link/network/dtls/mbedtls/mbedtls-2.16.2/library\x509_crt.c ****         {
1788:C:/Users/dtjld/workspace/AIoT/src/LiteOS_Lab/iot_link/network/dtls/mbedtls/mbedtls-2.16.2/library\x509_crt.c ****             if( mbedtls_x509_time_is_past( &cur->revocation_date ) )
 6163              		.loc 2 1788 0
 6164 0036 FB68     		ldr	r3, [r7, #12]
 6165 0038 1833     		adds	r3, r3, #24
 6166 003a 1846     		mov	r0, r3
 6167 003c FFF7FEFF 		bl	mbedtls_x509_time_is_past
 6168 0040 0346     		mov	r3, r0
 6169 0042 002B     		cmp	r3, #0
 6170 0044 01D0     		beq	.L423
1789:C:/Users/dtjld/workspace/AIoT/src/LiteOS_Lab/iot_link/network/dtls/mbedtls/mbedtls-2.16.2/library\x509_crt.c ****                 return( 1 );
 6171              		.loc 2 1789 0
 6172 0046 0123     		movs	r3, #1
 6173 0048 0AE0     		b	.L424
 6174              	.L423:
1790:C:/Users/dtjld/workspace/AIoT/src/LiteOS_Lab/iot_link/network/dtls/mbedtls/mbedtls-2.16.2/library\x509_crt.c ****         }
1791:C:/Users/dtjld/workspace/AIoT/src/LiteOS_Lab/iot_link/network/dtls/mbedtls/mbedtls-2.16.2/library\x509_crt.c **** 
1792:C:/Users/dtjld/workspace/AIoT/src/LiteOS_Lab/iot_link/network/dtls/mbedtls/mbedtls-2.16.2/library\x509_crt.c ****         cur = cur->next;
 6175              		.loc 2 1792 0
 6176 004a FB68     		ldr	r3, [r7, #12]
 6177 004c DB6B     		ldr	r3, [r3, #60]
 6178 004e FB60     		str	r3, [r7, #12]
 6179              	.L422:
1783:C:/Users/dtjld/workspace/AIoT/src/LiteOS_Lab/iot_link/network/dtls/mbedtls/mbedtls-2.16.2/library\x509_crt.c ****     {
 6180              		.loc 2 1783 0
ARM GAS  C:\Users\dtjld\AppData\Local\Temp\ccTXdst3.s 			page 148


 6181 0050 FB68     		ldr	r3, [r7, #12]
 6182 0052 002B     		cmp	r3, #0
 6183 0054 03D0     		beq	.L425
1783:C:/Users/dtjld/workspace/AIoT/src/LiteOS_Lab/iot_link/network/dtls/mbedtls/mbedtls-2.16.2/library\x509_crt.c ****     {
 6184              		.loc 2 1783 0 is_stmt 0 discriminator 1
 6185 0056 FB68     		ldr	r3, [r7, #12]
 6186 0058 1B69     		ldr	r3, [r3, #16]
 6187 005a 002B     		cmp	r3, #0
 6188 005c D9D1     		bne	.L426
 6189              	.L425:
1793:C:/Users/dtjld/workspace/AIoT/src/LiteOS_Lab/iot_link/network/dtls/mbedtls/mbedtls-2.16.2/library\x509_crt.c ****     }
1794:C:/Users/dtjld/workspace/AIoT/src/LiteOS_Lab/iot_link/network/dtls/mbedtls/mbedtls-2.16.2/library\x509_crt.c **** 
1795:C:/Users/dtjld/workspace/AIoT/src/LiteOS_Lab/iot_link/network/dtls/mbedtls/mbedtls-2.16.2/library\x509_crt.c ****     return( 0 );
 6190              		.loc 2 1795 0 is_stmt 1
 6191 005e 0023     		movs	r3, #0
 6192              	.L424:
1796:C:/Users/dtjld/workspace/AIoT/src/LiteOS_Lab/iot_link/network/dtls/mbedtls/mbedtls-2.16.2/library\x509_crt.c **** }
 6193              		.loc 2 1796 0
 6194 0060 1846     		mov	r0, r3
 6195 0062 1037     		adds	r7, r7, #16
 6196              	.LCFI155:
 6197              		.cfi_def_cfa_offset 8
 6198 0064 BD46     		mov	sp, r7
 6199              	.LCFI156:
 6200              		.cfi_def_cfa_register 13
 6201              		@ sp needed
 6202 0066 80BD     		pop	{r7, pc}
 6203              		.cfi_endproc
 6204              	.LFE41:
 6206              		.section	.text.x509_crt_verifycrl,"ax",%progbits
 6207              		.align	1
 6208              		.syntax unified
 6209              		.thumb
 6210              		.thumb_func
 6211              		.fpu fpv4-sp-d16
 6213              	x509_crt_verifycrl:
 6214              	.LFB42:
1797:C:/Users/dtjld/workspace/AIoT/src/LiteOS_Lab/iot_link/network/dtls/mbedtls/mbedtls-2.16.2/library\x509_crt.c **** 
1798:C:/Users/dtjld/workspace/AIoT/src/LiteOS_Lab/iot_link/network/dtls/mbedtls/mbedtls-2.16.2/library\x509_crt.c **** /*
1799:C:/Users/dtjld/workspace/AIoT/src/LiteOS_Lab/iot_link/network/dtls/mbedtls/mbedtls-2.16.2/library\x509_crt.c ****  * Check that the given certificate is not revoked according to the CRL.
1800:C:/Users/dtjld/workspace/AIoT/src/LiteOS_Lab/iot_link/network/dtls/mbedtls/mbedtls-2.16.2/library\x509_crt.c ****  * Skip validation if no CRL for the given CA is present.
1801:C:/Users/dtjld/workspace/AIoT/src/LiteOS_Lab/iot_link/network/dtls/mbedtls/mbedtls-2.16.2/library\x509_crt.c ****  */
1802:C:/Users/dtjld/workspace/AIoT/src/LiteOS_Lab/iot_link/network/dtls/mbedtls/mbedtls-2.16.2/library\x509_crt.c **** static int x509_crt_verifycrl( mbedtls_x509_crt *crt, mbedtls_x509_crt *ca,
1803:C:/Users/dtjld/workspace/AIoT/src/LiteOS_Lab/iot_link/network/dtls/mbedtls/mbedtls-2.16.2/library\x509_crt.c ****                                mbedtls_x509_crl *crl_list,
1804:C:/Users/dtjld/workspace/AIoT/src/LiteOS_Lab/iot_link/network/dtls/mbedtls/mbedtls-2.16.2/library\x509_crt.c ****                                const mbedtls_x509_crt_profile *profile )
1805:C:/Users/dtjld/workspace/AIoT/src/LiteOS_Lab/iot_link/network/dtls/mbedtls/mbedtls-2.16.2/library\x509_crt.c **** {
 6215              		.loc 2 1805 0
 6216              		.cfi_startproc
 6217              		@ args = 0, pretend = 0, frame = 88
 6218              		@ frame_needed = 1, uses_anonymous_args = 0
 6219 0000 2DE9F041 		push	{r4, r5, r6, r7, r8, lr}
 6220              	.LCFI157:
 6221              		.cfi_def_cfa_offset 24
 6222              		.cfi_offset 4, -24
 6223              		.cfi_offset 5, -20
 6224              		.cfi_offset 6, -16
 6225              		.cfi_offset 7, -12
ARM GAS  C:\Users\dtjld\AppData\Local\Temp\ccTXdst3.s 			page 149


 6226              		.cfi_offset 8, -8
 6227              		.cfi_offset 14, -4
 6228 0004 9AB0     		sub	sp, sp, #104
 6229              	.LCFI158:
 6230              		.cfi_def_cfa_offset 128
 6231 0006 04AF     		add	r7, sp, #16
 6232              	.LCFI159:
 6233              		.cfi_def_cfa 7, 112
 6234 0008 F860     		str	r0, [r7, #12]
 6235 000a B960     		str	r1, [r7, #8]
 6236 000c 7A60     		str	r2, [r7, #4]
 6237 000e 3B60     		str	r3, [r7]
1806:C:/Users/dtjld/workspace/AIoT/src/LiteOS_Lab/iot_link/network/dtls/mbedtls/mbedtls-2.16.2/library\x509_crt.c ****     int flags = 0;
 6238              		.loc 2 1806 0
 6239 0010 0023     		movs	r3, #0
 6240 0012 7B65     		str	r3, [r7, #84]
1807:C:/Users/dtjld/workspace/AIoT/src/LiteOS_Lab/iot_link/network/dtls/mbedtls/mbedtls-2.16.2/library\x509_crt.c ****     unsigned char hash[MBEDTLS_MD_MAX_SIZE];
1808:C:/Users/dtjld/workspace/AIoT/src/LiteOS_Lab/iot_link/network/dtls/mbedtls/mbedtls-2.16.2/library\x509_crt.c ****     const mbedtls_md_info_t *md_info;
1809:C:/Users/dtjld/workspace/AIoT/src/LiteOS_Lab/iot_link/network/dtls/mbedtls/mbedtls-2.16.2/library\x509_crt.c **** 
1810:C:/Users/dtjld/workspace/AIoT/src/LiteOS_Lab/iot_link/network/dtls/mbedtls/mbedtls-2.16.2/library\x509_crt.c ****     if( ca == NULL )
 6241              		.loc 2 1810 0
 6242 0014 BB68     		ldr	r3, [r7, #8]
 6243 0016 002B     		cmp	r3, #0
 6244 0018 40F0B780 		bne	.L430
1811:C:/Users/dtjld/workspace/AIoT/src/LiteOS_Lab/iot_link/network/dtls/mbedtls/mbedtls-2.16.2/library\x509_crt.c ****         return( flags );
 6245              		.loc 2 1811 0
 6246 001c 7B6D     		ldr	r3, [r7, #84]
 6247 001e B9E0     		b	.L444
 6248              	.L443:
1812:C:/Users/dtjld/workspace/AIoT/src/LiteOS_Lab/iot_link/network/dtls/mbedtls/mbedtls-2.16.2/library\x509_crt.c **** 
1813:C:/Users/dtjld/workspace/AIoT/src/LiteOS_Lab/iot_link/network/dtls/mbedtls/mbedtls-2.16.2/library\x509_crt.c ****     while( crl_list != NULL )
1814:C:/Users/dtjld/workspace/AIoT/src/LiteOS_Lab/iot_link/network/dtls/mbedtls/mbedtls-2.16.2/library\x509_crt.c ****     {
1815:C:/Users/dtjld/workspace/AIoT/src/LiteOS_Lab/iot_link/network/dtls/mbedtls/mbedtls-2.16.2/library\x509_crt.c ****         if( crl_list->version == 0 ||
 6249              		.loc 2 1815 0
 6250 0020 7B68     		ldr	r3, [r7, #4]
 6251 0022 9B69     		ldr	r3, [r3, #24]
 6252 0024 002B     		cmp	r3, #0
 6253 0026 0BD0     		beq	.L431
1816:C:/Users/dtjld/workspace/AIoT/src/LiteOS_Lab/iot_link/network/dtls/mbedtls/mbedtls-2.16.2/library\x509_crt.c ****             x509_name_cmp( &crl_list->issuer, &ca->subject ) != 0 )
 6254              		.loc 2 1816 0 discriminator 1
 6255 0028 7B68     		ldr	r3, [r7, #4]
 6256 002a 03F13402 		add	r2, r3, #52
 6257 002e BB68     		ldr	r3, [r7, #8]
 6258 0030 6C33     		adds	r3, r3, #108
 6259 0032 1946     		mov	r1, r3
 6260 0034 1046     		mov	r0, r2
 6261 0036 FFF7FEFF 		bl	x509_name_cmp
 6262 003a 0346     		mov	r3, r0
1815:C:/Users/dtjld/workspace/AIoT/src/LiteOS_Lab/iot_link/network/dtls/mbedtls/mbedtls-2.16.2/library\x509_crt.c ****             x509_name_cmp( &crl_list->issuer, &ca->subject ) != 0 )
 6263              		.loc 2 1815 0 discriminator 1
 6264 003c 002B     		cmp	r3, #0
 6265 003e 04D0     		beq	.L432
 6266              	.L431:
1817:C:/Users/dtjld/workspace/AIoT/src/LiteOS_Lab/iot_link/network/dtls/mbedtls/mbedtls-2.16.2/library\x509_crt.c ****         {
1818:C:/Users/dtjld/workspace/AIoT/src/LiteOS_Lab/iot_link/network/dtls/mbedtls/mbedtls-2.16.2/library\x509_crt.c ****             crl_list = crl_list->next;
 6267              		.loc 2 1818 0
 6268 0040 7B68     		ldr	r3, [r7, #4]
ARM GAS  C:\Users\dtjld\AppData\Local\Temp\ccTXdst3.s 			page 150


 6269 0042 D3F8F030 		ldr	r3, [r3, #240]
 6270 0046 7B60     		str	r3, [r7, #4]
1819:C:/Users/dtjld/workspace/AIoT/src/LiteOS_Lab/iot_link/network/dtls/mbedtls/mbedtls-2.16.2/library\x509_crt.c ****             continue;
 6271              		.loc 2 1819 0
 6272 0048 9FE0     		b	.L430
 6273              	.L432:
1820:C:/Users/dtjld/workspace/AIoT/src/LiteOS_Lab/iot_link/network/dtls/mbedtls/mbedtls-2.16.2/library\x509_crt.c ****         }
1821:C:/Users/dtjld/workspace/AIoT/src/LiteOS_Lab/iot_link/network/dtls/mbedtls/mbedtls-2.16.2/library\x509_crt.c **** 
1822:C:/Users/dtjld/workspace/AIoT/src/LiteOS_Lab/iot_link/network/dtls/mbedtls/mbedtls-2.16.2/library\x509_crt.c ****         /*
1823:C:/Users/dtjld/workspace/AIoT/src/LiteOS_Lab/iot_link/network/dtls/mbedtls/mbedtls-2.16.2/library\x509_crt.c ****          * Check if the CA is configured to sign CRLs
1824:C:/Users/dtjld/workspace/AIoT/src/LiteOS_Lab/iot_link/network/dtls/mbedtls/mbedtls-2.16.2/library\x509_crt.c ****          */
1825:C:/Users/dtjld/workspace/AIoT/src/LiteOS_Lab/iot_link/network/dtls/mbedtls/mbedtls-2.16.2/library\x509_crt.c **** #if defined(MBEDTLS_X509_CHECK_KEY_USAGE)
1826:C:/Users/dtjld/workspace/AIoT/src/LiteOS_Lab/iot_link/network/dtls/mbedtls/mbedtls-2.16.2/library\x509_crt.c ****         if( mbedtls_x509_crt_check_key_usage( ca,
 6274              		.loc 2 1826 0
 6275 004a 0221     		movs	r1, #2
 6276 004c B868     		ldr	r0, [r7, #8]
 6277 004e FFF7FEFF 		bl	mbedtls_x509_crt_check_key_usage
 6278 0052 0346     		mov	r3, r0
 6279 0054 002B     		cmp	r3, #0
 6280 0056 04D0     		beq	.L433
1827:C:/Users/dtjld/workspace/AIoT/src/LiteOS_Lab/iot_link/network/dtls/mbedtls/mbedtls-2.16.2/library\x509_crt.c ****                                               MBEDTLS_X509_KU_CRL_SIGN ) != 0 )
1828:C:/Users/dtjld/workspace/AIoT/src/LiteOS_Lab/iot_link/network/dtls/mbedtls/mbedtls-2.16.2/library\x509_crt.c ****         {
1829:C:/Users/dtjld/workspace/AIoT/src/LiteOS_Lab/iot_link/network/dtls/mbedtls/mbedtls-2.16.2/library\x509_crt.c ****             flags |= MBEDTLS_X509_BADCRL_NOT_TRUSTED;
 6281              		.loc 2 1829 0
 6282 0058 7B6D     		ldr	r3, [r7, #84]
 6283 005a 43F01003 		orr	r3, r3, #16
 6284 005e 7B65     		str	r3, [r7, #84]
1830:C:/Users/dtjld/workspace/AIoT/src/LiteOS_Lab/iot_link/network/dtls/mbedtls/mbedtls-2.16.2/library\x509_crt.c ****             break;
 6285              		.loc 2 1830 0
 6286 0060 97E0     		b	.L434
 6287              	.L433:
1831:C:/Users/dtjld/workspace/AIoT/src/LiteOS_Lab/iot_link/network/dtls/mbedtls/mbedtls-2.16.2/library\x509_crt.c ****         }
1832:C:/Users/dtjld/workspace/AIoT/src/LiteOS_Lab/iot_link/network/dtls/mbedtls/mbedtls-2.16.2/library\x509_crt.c **** #endif
1833:C:/Users/dtjld/workspace/AIoT/src/LiteOS_Lab/iot_link/network/dtls/mbedtls/mbedtls-2.16.2/library\x509_crt.c **** 
1834:C:/Users/dtjld/workspace/AIoT/src/LiteOS_Lab/iot_link/network/dtls/mbedtls/mbedtls-2.16.2/library\x509_crt.c ****         /*
1835:C:/Users/dtjld/workspace/AIoT/src/LiteOS_Lab/iot_link/network/dtls/mbedtls/mbedtls-2.16.2/library\x509_crt.c ****          * Check if CRL is correctly signed by the trusted CA
1836:C:/Users/dtjld/workspace/AIoT/src/LiteOS_Lab/iot_link/network/dtls/mbedtls/mbedtls-2.16.2/library\x509_crt.c ****          */
1837:C:/Users/dtjld/workspace/AIoT/src/LiteOS_Lab/iot_link/network/dtls/mbedtls/mbedtls-2.16.2/library\x509_crt.c ****         if( x509_profile_check_md_alg( profile, crl_list->sig_md ) != 0 )
 6288              		.loc 2 1837 0
 6289 0062 7B68     		ldr	r3, [r7, #4]
 6290 0064 93F8E830 		ldrb	r3, [r3, #232]	@ zero_extendqisi2
 6291 0068 1946     		mov	r1, r3
 6292 006a 3868     		ldr	r0, [r7]
 6293 006c FFF7FEFF 		bl	x509_profile_check_md_alg
 6294 0070 0346     		mov	r3, r0
 6295 0072 002B     		cmp	r3, #0
 6296 0074 03D0     		beq	.L435
1838:C:/Users/dtjld/workspace/AIoT/src/LiteOS_Lab/iot_link/network/dtls/mbedtls/mbedtls-2.16.2/library\x509_crt.c ****             flags |= MBEDTLS_X509_BADCRL_BAD_MD;
 6297              		.loc 2 1838 0
 6298 0076 7B6D     		ldr	r3, [r7, #84]
 6299 0078 43F40033 		orr	r3, r3, #131072
 6300 007c 7B65     		str	r3, [r7, #84]
 6301              	.L435:
1839:C:/Users/dtjld/workspace/AIoT/src/LiteOS_Lab/iot_link/network/dtls/mbedtls/mbedtls-2.16.2/library\x509_crt.c **** 
1840:C:/Users/dtjld/workspace/AIoT/src/LiteOS_Lab/iot_link/network/dtls/mbedtls/mbedtls-2.16.2/library\x509_crt.c ****         if( x509_profile_check_pk_alg( profile, crl_list->sig_pk ) != 0 )
 6302              		.loc 2 1840 0
 6303 007e 7B68     		ldr	r3, [r7, #4]
ARM GAS  C:\Users\dtjld\AppData\Local\Temp\ccTXdst3.s 			page 151


 6304 0080 93F8E930 		ldrb	r3, [r3, #233]	@ zero_extendqisi2
 6305 0084 1946     		mov	r1, r3
 6306 0086 3868     		ldr	r0, [r7]
 6307 0088 FFF7FEFF 		bl	x509_profile_check_pk_alg
 6308 008c 0346     		mov	r3, r0
 6309 008e 002B     		cmp	r3, #0
 6310 0090 03D0     		beq	.L436
1841:C:/Users/dtjld/workspace/AIoT/src/LiteOS_Lab/iot_link/network/dtls/mbedtls/mbedtls-2.16.2/library\x509_crt.c ****             flags |= MBEDTLS_X509_BADCRL_BAD_PK;
 6311              		.loc 2 1841 0
 6312 0092 7B6D     		ldr	r3, [r7, #84]
 6313 0094 43F48023 		orr	r3, r3, #262144
 6314 0098 7B65     		str	r3, [r7, #84]
 6315              	.L436:
1842:C:/Users/dtjld/workspace/AIoT/src/LiteOS_Lab/iot_link/network/dtls/mbedtls/mbedtls-2.16.2/library\x509_crt.c **** 
1843:C:/Users/dtjld/workspace/AIoT/src/LiteOS_Lab/iot_link/network/dtls/mbedtls/mbedtls-2.16.2/library\x509_crt.c ****         md_info = mbedtls_md_info_from_type( crl_list->sig_md );
 6316              		.loc 2 1843 0
 6317 009a 7B68     		ldr	r3, [r7, #4]
 6318 009c 93F8E830 		ldrb	r3, [r3, #232]	@ zero_extendqisi2
 6319 00a0 1846     		mov	r0, r3
 6320 00a2 FFF7FEFF 		bl	mbedtls_md_info_from_type
 6321 00a6 3865     		str	r0, [r7, #80]
1844:C:/Users/dtjld/workspace/AIoT/src/LiteOS_Lab/iot_link/network/dtls/mbedtls/mbedtls-2.16.2/library\x509_crt.c ****         if( mbedtls_md( md_info, crl_list->tbs.p, crl_list->tbs.len, hash ) != 0 )
 6322              		.loc 2 1844 0
 6323 00a8 7B68     		ldr	r3, [r7, #4]
 6324 00aa 5969     		ldr	r1, [r3, #20]
 6325 00ac 7B68     		ldr	r3, [r7, #4]
 6326 00ae 1A69     		ldr	r2, [r3, #16]
 6327 00b0 07F11003 		add	r3, r7, #16
 6328 00b4 386D     		ldr	r0, [r7, #80]
 6329 00b6 FFF7FEFF 		bl	mbedtls_md
 6330 00ba 0346     		mov	r3, r0
 6331 00bc 002B     		cmp	r3, #0
 6332 00be 04D0     		beq	.L437
1845:C:/Users/dtjld/workspace/AIoT/src/LiteOS_Lab/iot_link/network/dtls/mbedtls/mbedtls-2.16.2/library\x509_crt.c ****         {
1846:C:/Users/dtjld/workspace/AIoT/src/LiteOS_Lab/iot_link/network/dtls/mbedtls/mbedtls-2.16.2/library\x509_crt.c ****             /* Note: this can't happen except after an internal error */
1847:C:/Users/dtjld/workspace/AIoT/src/LiteOS_Lab/iot_link/network/dtls/mbedtls/mbedtls-2.16.2/library\x509_crt.c ****             flags |= MBEDTLS_X509_BADCRL_NOT_TRUSTED;
 6333              		.loc 2 1847 0
 6334 00c0 7B6D     		ldr	r3, [r7, #84]
 6335 00c2 43F01003 		orr	r3, r3, #16
 6336 00c6 7B65     		str	r3, [r7, #84]
1848:C:/Users/dtjld/workspace/AIoT/src/LiteOS_Lab/iot_link/network/dtls/mbedtls/mbedtls-2.16.2/library\x509_crt.c ****             break;
 6337              		.loc 2 1848 0
 6338 00c8 63E0     		b	.L434
 6339              	.L437:
1849:C:/Users/dtjld/workspace/AIoT/src/LiteOS_Lab/iot_link/network/dtls/mbedtls/mbedtls-2.16.2/library\x509_crt.c ****         }
1850:C:/Users/dtjld/workspace/AIoT/src/LiteOS_Lab/iot_link/network/dtls/mbedtls/mbedtls-2.16.2/library\x509_crt.c **** 
1851:C:/Users/dtjld/workspace/AIoT/src/LiteOS_Lab/iot_link/network/dtls/mbedtls/mbedtls-2.16.2/library\x509_crt.c ****         if( x509_profile_check_key( profile, &ca->pk ) != 0 )
 6340              		.loc 2 1851 0
 6341 00ca BB68     		ldr	r3, [r7, #8]
 6342 00cc BC33     		adds	r3, r3, #188
 6343 00ce 1946     		mov	r1, r3
 6344 00d0 3868     		ldr	r0, [r7]
 6345 00d2 FFF7FEFF 		bl	x509_profile_check_key
 6346 00d6 0346     		mov	r3, r0
 6347 00d8 002B     		cmp	r3, #0
 6348 00da 03D0     		beq	.L438
1852:C:/Users/dtjld/workspace/AIoT/src/LiteOS_Lab/iot_link/network/dtls/mbedtls/mbedtls-2.16.2/library\x509_crt.c ****             flags |= MBEDTLS_X509_BADCERT_BAD_KEY;
ARM GAS  C:\Users\dtjld\AppData\Local\Temp\ccTXdst3.s 			page 152


 6349              		.loc 2 1852 0
 6350 00dc 7B6D     		ldr	r3, [r7, #84]
 6351 00de 43F48033 		orr	r3, r3, #65536
 6352 00e2 7B65     		str	r3, [r7, #84]
 6353              	.L438:
1853:C:/Users/dtjld/workspace/AIoT/src/LiteOS_Lab/iot_link/network/dtls/mbedtls/mbedtls-2.16.2/library\x509_crt.c **** 
1854:C:/Users/dtjld/workspace/AIoT/src/LiteOS_Lab/iot_link/network/dtls/mbedtls/mbedtls-2.16.2/library\x509_crt.c ****         if( mbedtls_pk_verify_ext( crl_list->sig_pk, crl_list->sig_opts, &ca->pk,
 6354              		.loc 2 1854 0
 6355 00e4 7B68     		ldr	r3, [r7, #4]
 6356 00e6 93F8E940 		ldrb	r4, [r3, #233]	@ zero_extendqisi2
 6357 00ea 7B68     		ldr	r3, [r7, #4]
 6358 00ec D3F8EC50 		ldr	r5, [r3, #236]
 6359 00f0 BB68     		ldr	r3, [r7, #8]
 6360 00f2 03F1BC06 		add	r6, r3, #188
 6361 00f6 7B68     		ldr	r3, [r7, #4]
 6362 00f8 93F8E880 		ldrb	r8, [r3, #232]	@ zero_extendqisi2
1855:C:/Users/dtjld/workspace/AIoT/src/LiteOS_Lab/iot_link/network/dtls/mbedtls/mbedtls-2.16.2/library\x509_crt.c ****                            crl_list->sig_md, hash, mbedtls_md_get_size( md_info ),
 6363              		.loc 2 1855 0
 6364 00fc 386D     		ldr	r0, [r7, #80]
 6365 00fe FFF7FEFF 		bl	mbedtls_md_get_size
 6366 0102 0346     		mov	r3, r0
1854:C:/Users/dtjld/workspace/AIoT/src/LiteOS_Lab/iot_link/network/dtls/mbedtls/mbedtls-2.16.2/library\x509_crt.c ****                            crl_list->sig_md, hash, mbedtls_md_get_size( md_info ),
 6367              		.loc 2 1854 0
 6368 0104 1946     		mov	r1, r3
1856:C:/Users/dtjld/workspace/AIoT/src/LiteOS_Lab/iot_link/network/dtls/mbedtls/mbedtls-2.16.2/library\x509_crt.c ****                            crl_list->sig.p, crl_list->sig.len ) != 0 )
 6369              		.loc 2 1856 0
 6370 0106 7B68     		ldr	r3, [r7, #4]
 6371 0108 D3F8E430 		ldr	r3, [r3, #228]
1854:C:/Users/dtjld/workspace/AIoT/src/LiteOS_Lab/iot_link/network/dtls/mbedtls/mbedtls-2.16.2/library\x509_crt.c ****                            crl_list->sig_md, hash, mbedtls_md_get_size( md_info ),
 6372              		.loc 2 1854 0
 6373 010c 7A68     		ldr	r2, [r7, #4]
 6374 010e D2F8E020 		ldr	r2, [r2, #224]
 6375 0112 0392     		str	r2, [sp, #12]
 6376 0114 0293     		str	r3, [sp, #8]
 6377 0116 0191     		str	r1, [sp, #4]
 6378 0118 07F11003 		add	r3, r7, #16
 6379 011c 0093     		str	r3, [sp]
 6380 011e 4346     		mov	r3, r8
 6381 0120 3246     		mov	r2, r6
 6382 0122 2946     		mov	r1, r5
 6383 0124 2046     		mov	r0, r4
 6384 0126 FFF7FEFF 		bl	mbedtls_pk_verify_ext
 6385 012a 0346     		mov	r3, r0
 6386 012c 002B     		cmp	r3, #0
 6387 012e 04D0     		beq	.L439
1857:C:/Users/dtjld/workspace/AIoT/src/LiteOS_Lab/iot_link/network/dtls/mbedtls/mbedtls-2.16.2/library\x509_crt.c ****         {
1858:C:/Users/dtjld/workspace/AIoT/src/LiteOS_Lab/iot_link/network/dtls/mbedtls/mbedtls-2.16.2/library\x509_crt.c ****             flags |= MBEDTLS_X509_BADCRL_NOT_TRUSTED;
 6388              		.loc 2 1858 0
 6389 0130 7B6D     		ldr	r3, [r7, #84]
 6390 0132 43F01003 		orr	r3, r3, #16
 6391 0136 7B65     		str	r3, [r7, #84]
1859:C:/Users/dtjld/workspace/AIoT/src/LiteOS_Lab/iot_link/network/dtls/mbedtls/mbedtls-2.16.2/library\x509_crt.c ****             break;
 6392              		.loc 2 1859 0
 6393 0138 2BE0     		b	.L434
 6394              	.L439:
1860:C:/Users/dtjld/workspace/AIoT/src/LiteOS_Lab/iot_link/network/dtls/mbedtls/mbedtls-2.16.2/library\x509_crt.c ****         }
1861:C:/Users/dtjld/workspace/AIoT/src/LiteOS_Lab/iot_link/network/dtls/mbedtls/mbedtls-2.16.2/library\x509_crt.c **** 
ARM GAS  C:\Users\dtjld\AppData\Local\Temp\ccTXdst3.s 			page 153


1862:C:/Users/dtjld/workspace/AIoT/src/LiteOS_Lab/iot_link/network/dtls/mbedtls/mbedtls-2.16.2/library\x509_crt.c ****         /*
1863:C:/Users/dtjld/workspace/AIoT/src/LiteOS_Lab/iot_link/network/dtls/mbedtls/mbedtls-2.16.2/library\x509_crt.c ****          * Check for validity of CRL (Do not drop out)
1864:C:/Users/dtjld/workspace/AIoT/src/LiteOS_Lab/iot_link/network/dtls/mbedtls/mbedtls-2.16.2/library\x509_crt.c ****          */
1865:C:/Users/dtjld/workspace/AIoT/src/LiteOS_Lab/iot_link/network/dtls/mbedtls/mbedtls-2.16.2/library\x509_crt.c ****         if( mbedtls_x509_time_is_past( &crl_list->next_update ) )
 6395              		.loc 2 1865 0
 6396 013a 7B68     		ldr	r3, [r7, #4]
 6397 013c 6C33     		adds	r3, r3, #108
 6398 013e 1846     		mov	r0, r3
 6399 0140 FFF7FEFF 		bl	mbedtls_x509_time_is_past
 6400 0144 0346     		mov	r3, r0
 6401 0146 002B     		cmp	r3, #0
 6402 0148 03D0     		beq	.L440
1866:C:/Users/dtjld/workspace/AIoT/src/LiteOS_Lab/iot_link/network/dtls/mbedtls/mbedtls-2.16.2/library\x509_crt.c ****             flags |= MBEDTLS_X509_BADCRL_EXPIRED;
 6403              		.loc 2 1866 0
 6404 014a 7B6D     		ldr	r3, [r7, #84]
 6405 014c 43F02003 		orr	r3, r3, #32
 6406 0150 7B65     		str	r3, [r7, #84]
 6407              	.L440:
1867:C:/Users/dtjld/workspace/AIoT/src/LiteOS_Lab/iot_link/network/dtls/mbedtls/mbedtls-2.16.2/library\x509_crt.c **** 
1868:C:/Users/dtjld/workspace/AIoT/src/LiteOS_Lab/iot_link/network/dtls/mbedtls/mbedtls-2.16.2/library\x509_crt.c ****         if( mbedtls_x509_time_is_future( &crl_list->this_update ) )
 6408              		.loc 2 1868 0
 6409 0152 7B68     		ldr	r3, [r7, #4]
 6410 0154 5433     		adds	r3, r3, #84
 6411 0156 1846     		mov	r0, r3
 6412 0158 FFF7FEFF 		bl	mbedtls_x509_time_is_future
 6413 015c 0346     		mov	r3, r0
 6414 015e 002B     		cmp	r3, #0
 6415 0160 03D0     		beq	.L441
1869:C:/Users/dtjld/workspace/AIoT/src/LiteOS_Lab/iot_link/network/dtls/mbedtls/mbedtls-2.16.2/library\x509_crt.c ****             flags |= MBEDTLS_X509_BADCRL_FUTURE;
 6416              		.loc 2 1869 0
 6417 0162 7B6D     		ldr	r3, [r7, #84]
 6418 0164 43F48063 		orr	r3, r3, #1024
 6419 0168 7B65     		str	r3, [r7, #84]
 6420              	.L441:
1870:C:/Users/dtjld/workspace/AIoT/src/LiteOS_Lab/iot_link/network/dtls/mbedtls/mbedtls-2.16.2/library\x509_crt.c **** 
1871:C:/Users/dtjld/workspace/AIoT/src/LiteOS_Lab/iot_link/network/dtls/mbedtls/mbedtls-2.16.2/library\x509_crt.c ****         /*
1872:C:/Users/dtjld/workspace/AIoT/src/LiteOS_Lab/iot_link/network/dtls/mbedtls/mbedtls-2.16.2/library\x509_crt.c ****          * Check if certificate is revoked
1873:C:/Users/dtjld/workspace/AIoT/src/LiteOS_Lab/iot_link/network/dtls/mbedtls/mbedtls-2.16.2/library\x509_crt.c ****          */
1874:C:/Users/dtjld/workspace/AIoT/src/LiteOS_Lab/iot_link/network/dtls/mbedtls/mbedtls-2.16.2/library\x509_crt.c ****         if( mbedtls_x509_crt_is_revoked( crt, crl_list ) )
 6421              		.loc 2 1874 0
 6422 016a 7968     		ldr	r1, [r7, #4]
 6423 016c F868     		ldr	r0, [r7, #12]
 6424 016e FFF7FEFF 		bl	mbedtls_x509_crt_is_revoked
 6425 0172 0346     		mov	r3, r0
 6426 0174 002B     		cmp	r3, #0
 6427 0176 04D0     		beq	.L442
1875:C:/Users/dtjld/workspace/AIoT/src/LiteOS_Lab/iot_link/network/dtls/mbedtls/mbedtls-2.16.2/library\x509_crt.c ****         {
1876:C:/Users/dtjld/workspace/AIoT/src/LiteOS_Lab/iot_link/network/dtls/mbedtls/mbedtls-2.16.2/library\x509_crt.c ****             flags |= MBEDTLS_X509_BADCERT_REVOKED;
 6428              		.loc 2 1876 0
 6429 0178 7B6D     		ldr	r3, [r7, #84]
 6430 017a 43F00203 		orr	r3, r3, #2
 6431 017e 7B65     		str	r3, [r7, #84]
1877:C:/Users/dtjld/workspace/AIoT/src/LiteOS_Lab/iot_link/network/dtls/mbedtls/mbedtls-2.16.2/library\x509_crt.c ****             break;
 6432              		.loc 2 1877 0
 6433 0180 07E0     		b	.L434
 6434              	.L442:
1878:C:/Users/dtjld/workspace/AIoT/src/LiteOS_Lab/iot_link/network/dtls/mbedtls/mbedtls-2.16.2/library\x509_crt.c ****         }
ARM GAS  C:\Users\dtjld\AppData\Local\Temp\ccTXdst3.s 			page 154


1879:C:/Users/dtjld/workspace/AIoT/src/LiteOS_Lab/iot_link/network/dtls/mbedtls/mbedtls-2.16.2/library\x509_crt.c **** 
1880:C:/Users/dtjld/workspace/AIoT/src/LiteOS_Lab/iot_link/network/dtls/mbedtls/mbedtls-2.16.2/library\x509_crt.c ****         crl_list = crl_list->next;
 6435              		.loc 2 1880 0
 6436 0182 7B68     		ldr	r3, [r7, #4]
 6437 0184 D3F8F030 		ldr	r3, [r3, #240]
 6438 0188 7B60     		str	r3, [r7, #4]
 6439              	.L430:
1813:C:/Users/dtjld/workspace/AIoT/src/LiteOS_Lab/iot_link/network/dtls/mbedtls/mbedtls-2.16.2/library\x509_crt.c ****     {
 6440              		.loc 2 1813 0
 6441 018a 7B68     		ldr	r3, [r7, #4]
 6442 018c 002B     		cmp	r3, #0
 6443 018e 7FF447AF 		bne	.L443
 6444              	.L434:
1881:C:/Users/dtjld/workspace/AIoT/src/LiteOS_Lab/iot_link/network/dtls/mbedtls/mbedtls-2.16.2/library\x509_crt.c ****     }
1882:C:/Users/dtjld/workspace/AIoT/src/LiteOS_Lab/iot_link/network/dtls/mbedtls/mbedtls-2.16.2/library\x509_crt.c **** 
1883:C:/Users/dtjld/workspace/AIoT/src/LiteOS_Lab/iot_link/network/dtls/mbedtls/mbedtls-2.16.2/library\x509_crt.c ****     return( flags );
 6445              		.loc 2 1883 0
 6446 0192 7B6D     		ldr	r3, [r7, #84]
 6447              	.L444:
1884:C:/Users/dtjld/workspace/AIoT/src/LiteOS_Lab/iot_link/network/dtls/mbedtls/mbedtls-2.16.2/library\x509_crt.c **** }
 6448              		.loc 2 1884 0 discriminator 1
 6449 0194 1846     		mov	r0, r3
 6450 0196 5837     		adds	r7, r7, #88
 6451              	.LCFI160:
 6452              		.cfi_def_cfa_offset 24
 6453 0198 BD46     		mov	sp, r7
 6454              	.LCFI161:
 6455              		.cfi_def_cfa_register 13
 6456              		@ sp needed
 6457 019a BDE8F081 		pop	{r4, r5, r6, r7, r8, pc}
 6458              		.cfi_endproc
 6459              	.LFE42:
 6461              		.section	.text.x509_crt_check_signature,"ax",%progbits
 6462              		.align	1
 6463              		.syntax unified
 6464              		.thumb
 6465              		.thumb_func
 6466              		.fpu fpv4-sp-d16
 6468              	x509_crt_check_signature:
 6469              	.LFB43:
1885:C:/Users/dtjld/workspace/AIoT/src/LiteOS_Lab/iot_link/network/dtls/mbedtls/mbedtls-2.16.2/library\x509_crt.c **** #endif /* MBEDTLS_X509_CRL_PARSE_C */
1886:C:/Users/dtjld/workspace/AIoT/src/LiteOS_Lab/iot_link/network/dtls/mbedtls/mbedtls-2.16.2/library\x509_crt.c **** 
1887:C:/Users/dtjld/workspace/AIoT/src/LiteOS_Lab/iot_link/network/dtls/mbedtls/mbedtls-2.16.2/library\x509_crt.c **** /*
1888:C:/Users/dtjld/workspace/AIoT/src/LiteOS_Lab/iot_link/network/dtls/mbedtls/mbedtls-2.16.2/library\x509_crt.c ****  * Check the signature of a certificate by its parent
1889:C:/Users/dtjld/workspace/AIoT/src/LiteOS_Lab/iot_link/network/dtls/mbedtls/mbedtls-2.16.2/library\x509_crt.c ****  */
1890:C:/Users/dtjld/workspace/AIoT/src/LiteOS_Lab/iot_link/network/dtls/mbedtls/mbedtls-2.16.2/library\x509_crt.c **** static int x509_crt_check_signature( const mbedtls_x509_crt *child,
1891:C:/Users/dtjld/workspace/AIoT/src/LiteOS_Lab/iot_link/network/dtls/mbedtls/mbedtls-2.16.2/library\x509_crt.c ****                                      mbedtls_x509_crt *parent,
1892:C:/Users/dtjld/workspace/AIoT/src/LiteOS_Lab/iot_link/network/dtls/mbedtls/mbedtls-2.16.2/library\x509_crt.c ****                                      mbedtls_x509_crt_restart_ctx *rs_ctx )
1893:C:/Users/dtjld/workspace/AIoT/src/LiteOS_Lab/iot_link/network/dtls/mbedtls/mbedtls-2.16.2/library\x509_crt.c **** {
 6470              		.loc 2 1893 0
 6471              		.cfi_startproc
 6472              		@ args = 0, pretend = 0, frame = 88
 6473              		@ frame_needed = 1, uses_anonymous_args = 0
 6474 0000 2DE9F041 		push	{r4, r5, r6, r7, r8, lr}
 6475              	.LCFI162:
 6476              		.cfi_def_cfa_offset 24
 6477              		.cfi_offset 4, -24
ARM GAS  C:\Users\dtjld\AppData\Local\Temp\ccTXdst3.s 			page 155


 6478              		.cfi_offset 5, -20
 6479              		.cfi_offset 6, -16
 6480              		.cfi_offset 7, -12
 6481              		.cfi_offset 8, -8
 6482              		.cfi_offset 14, -4
 6483 0004 9AB0     		sub	sp, sp, #104
 6484              	.LCFI163:
 6485              		.cfi_def_cfa_offset 128
 6486 0006 04AF     		add	r7, sp, #16
 6487              	.LCFI164:
 6488              		.cfi_def_cfa 7, 112
 6489 0008 F860     		str	r0, [r7, #12]
 6490 000a B960     		str	r1, [r7, #8]
 6491 000c 7A60     		str	r2, [r7, #4]
1894:C:/Users/dtjld/workspace/AIoT/src/LiteOS_Lab/iot_link/network/dtls/mbedtls/mbedtls-2.16.2/library\x509_crt.c ****     const mbedtls_md_info_t *md_info;
1895:C:/Users/dtjld/workspace/AIoT/src/LiteOS_Lab/iot_link/network/dtls/mbedtls/mbedtls-2.16.2/library\x509_crt.c ****     unsigned char hash[MBEDTLS_MD_MAX_SIZE];
1896:C:/Users/dtjld/workspace/AIoT/src/LiteOS_Lab/iot_link/network/dtls/mbedtls/mbedtls-2.16.2/library\x509_crt.c **** 
1897:C:/Users/dtjld/workspace/AIoT/src/LiteOS_Lab/iot_link/network/dtls/mbedtls/mbedtls-2.16.2/library\x509_crt.c ****     md_info = mbedtls_md_info_from_type( child->sig_md );
 6492              		.loc 2 1897 0
 6493 000e FB68     		ldr	r3, [r7, #12]
 6494 0010 93F82831 		ldrb	r3, [r3, #296]	@ zero_extendqisi2
 6495 0014 1846     		mov	r0, r3
 6496 0016 FFF7FEFF 		bl	mbedtls_md_info_from_type
 6497 001a 7865     		str	r0, [r7, #84]
1898:C:/Users/dtjld/workspace/AIoT/src/LiteOS_Lab/iot_link/network/dtls/mbedtls/mbedtls-2.16.2/library\x509_crt.c ****     if( mbedtls_md( md_info, child->tbs.p, child->tbs.len, hash ) != 0 )
 6498              		.loc 2 1898 0
 6499 001c FB68     		ldr	r3, [r7, #12]
 6500 001e 5969     		ldr	r1, [r3, #20]
 6501 0020 FB68     		ldr	r3, [r7, #12]
 6502 0022 1A69     		ldr	r2, [r3, #16]
 6503 0024 07F11403 		add	r3, r7, #20
 6504 0028 786D     		ldr	r0, [r7, #84]
 6505 002a FFF7FEFF 		bl	mbedtls_md
 6506 002e 0346     		mov	r3, r0
 6507 0030 002B     		cmp	r3, #0
 6508 0032 02D0     		beq	.L446
1899:C:/Users/dtjld/workspace/AIoT/src/LiteOS_Lab/iot_link/network/dtls/mbedtls/mbedtls-2.16.2/library\x509_crt.c ****     {
1900:C:/Users/dtjld/workspace/AIoT/src/LiteOS_Lab/iot_link/network/dtls/mbedtls/mbedtls-2.16.2/library\x509_crt.c ****         /* Note: this can't happen except after an internal error */
1901:C:/Users/dtjld/workspace/AIoT/src/LiteOS_Lab/iot_link/network/dtls/mbedtls/mbedtls-2.16.2/library\x509_crt.c ****         return( -1 );
 6509              		.loc 2 1901 0
 6510 0034 4FF0FF33 		mov	r3, #-1
 6511 0038 33E0     		b	.L449
 6512              	.L446:
1902:C:/Users/dtjld/workspace/AIoT/src/LiteOS_Lab/iot_link/network/dtls/mbedtls/mbedtls-2.16.2/library\x509_crt.c ****     }
1903:C:/Users/dtjld/workspace/AIoT/src/LiteOS_Lab/iot_link/network/dtls/mbedtls/mbedtls-2.16.2/library\x509_crt.c **** 
1904:C:/Users/dtjld/workspace/AIoT/src/LiteOS_Lab/iot_link/network/dtls/mbedtls/mbedtls-2.16.2/library\x509_crt.c ****     /* Skip expensive computation on obvious mismatch */
1905:C:/Users/dtjld/workspace/AIoT/src/LiteOS_Lab/iot_link/network/dtls/mbedtls/mbedtls-2.16.2/library\x509_crt.c ****     if( ! mbedtls_pk_can_do( &parent->pk, child->sig_pk ) )
 6513              		.loc 2 1905 0
 6514 003a BB68     		ldr	r3, [r7, #8]
 6515 003c 03F1BC02 		add	r2, r3, #188
 6516 0040 FB68     		ldr	r3, [r7, #12]
 6517 0042 93F82931 		ldrb	r3, [r3, #297]	@ zero_extendqisi2
 6518 0046 1946     		mov	r1, r3
 6519 0048 1046     		mov	r0, r2
 6520 004a FFF7FEFF 		bl	mbedtls_pk_can_do
 6521 004e 0346     		mov	r3, r0
 6522 0050 002B     		cmp	r3, #0
ARM GAS  C:\Users\dtjld\AppData\Local\Temp\ccTXdst3.s 			page 156


 6523 0052 02D1     		bne	.L448
1906:C:/Users/dtjld/workspace/AIoT/src/LiteOS_Lab/iot_link/network/dtls/mbedtls/mbedtls-2.16.2/library\x509_crt.c ****         return( -1 );
 6524              		.loc 2 1906 0
 6525 0054 4FF0FF33 		mov	r3, #-1
 6526 0058 23E0     		b	.L449
 6527              	.L448:
1907:C:/Users/dtjld/workspace/AIoT/src/LiteOS_Lab/iot_link/network/dtls/mbedtls/mbedtls-2.16.2/library\x509_crt.c **** 
1908:C:/Users/dtjld/workspace/AIoT/src/LiteOS_Lab/iot_link/network/dtls/mbedtls/mbedtls-2.16.2/library\x509_crt.c **** #if defined(MBEDTLS_ECDSA_C) && defined(MBEDTLS_ECP_RESTARTABLE)
1909:C:/Users/dtjld/workspace/AIoT/src/LiteOS_Lab/iot_link/network/dtls/mbedtls/mbedtls-2.16.2/library\x509_crt.c ****     if( rs_ctx != NULL && child->sig_pk == MBEDTLS_PK_ECDSA )
1910:C:/Users/dtjld/workspace/AIoT/src/LiteOS_Lab/iot_link/network/dtls/mbedtls/mbedtls-2.16.2/library\x509_crt.c ****     {
1911:C:/Users/dtjld/workspace/AIoT/src/LiteOS_Lab/iot_link/network/dtls/mbedtls/mbedtls-2.16.2/library\x509_crt.c ****         return( mbedtls_pk_verify_restartable( &parent->pk,
1912:C:/Users/dtjld/workspace/AIoT/src/LiteOS_Lab/iot_link/network/dtls/mbedtls/mbedtls-2.16.2/library\x509_crt.c ****                     child->sig_md, hash, mbedtls_md_get_size( md_info ),
1913:C:/Users/dtjld/workspace/AIoT/src/LiteOS_Lab/iot_link/network/dtls/mbedtls/mbedtls-2.16.2/library\x509_crt.c ****                     child->sig.p, child->sig.len, &rs_ctx->pk ) );
1914:C:/Users/dtjld/workspace/AIoT/src/LiteOS_Lab/iot_link/network/dtls/mbedtls/mbedtls-2.16.2/library\x509_crt.c ****     }
1915:C:/Users/dtjld/workspace/AIoT/src/LiteOS_Lab/iot_link/network/dtls/mbedtls/mbedtls-2.16.2/library\x509_crt.c **** #else
1916:C:/Users/dtjld/workspace/AIoT/src/LiteOS_Lab/iot_link/network/dtls/mbedtls/mbedtls-2.16.2/library\x509_crt.c ****     (void) rs_ctx;
1917:C:/Users/dtjld/workspace/AIoT/src/LiteOS_Lab/iot_link/network/dtls/mbedtls/mbedtls-2.16.2/library\x509_crt.c **** #endif
1918:C:/Users/dtjld/workspace/AIoT/src/LiteOS_Lab/iot_link/network/dtls/mbedtls/mbedtls-2.16.2/library\x509_crt.c **** 
1919:C:/Users/dtjld/workspace/AIoT/src/LiteOS_Lab/iot_link/network/dtls/mbedtls/mbedtls-2.16.2/library\x509_crt.c ****     return( mbedtls_pk_verify_ext( child->sig_pk, child->sig_opts, &parent->pk,
 6528              		.loc 2 1919 0
 6529 005a FB68     		ldr	r3, [r7, #12]
 6530 005c 93F82941 		ldrb	r4, [r3, #297]	@ zero_extendqisi2
 6531 0060 FB68     		ldr	r3, [r7, #12]
 6532 0062 D3F82C51 		ldr	r5, [r3, #300]
 6533 0066 BB68     		ldr	r3, [r7, #8]
 6534 0068 03F1BC06 		add	r6, r3, #188
 6535 006c FB68     		ldr	r3, [r7, #12]
 6536 006e 93F82881 		ldrb	r8, [r3, #296]	@ zero_extendqisi2
1920:C:/Users/dtjld/workspace/AIoT/src/LiteOS_Lab/iot_link/network/dtls/mbedtls/mbedtls-2.16.2/library\x509_crt.c ****                 child->sig_md, hash, mbedtls_md_get_size( md_info ),
 6537              		.loc 2 1920 0
 6538 0072 786D     		ldr	r0, [r7, #84]
 6539 0074 FFF7FEFF 		bl	mbedtls_md_get_size
 6540 0078 0346     		mov	r3, r0
1919:C:/Users/dtjld/workspace/AIoT/src/LiteOS_Lab/iot_link/network/dtls/mbedtls/mbedtls-2.16.2/library\x509_crt.c ****                 child->sig_md, hash, mbedtls_md_get_size( md_info ),
 6541              		.loc 2 1919 0
 6542 007a 1946     		mov	r1, r3
1921:C:/Users/dtjld/workspace/AIoT/src/LiteOS_Lab/iot_link/network/dtls/mbedtls/mbedtls-2.16.2/library\x509_crt.c ****                 child->sig.p, child->sig.len ) );
 6543              		.loc 2 1921 0
 6544 007c FB68     		ldr	r3, [r7, #12]
 6545 007e D3F82431 		ldr	r3, [r3, #292]
1919:C:/Users/dtjld/workspace/AIoT/src/LiteOS_Lab/iot_link/network/dtls/mbedtls/mbedtls-2.16.2/library\x509_crt.c ****                 child->sig_md, hash, mbedtls_md_get_size( md_info ),
 6546              		.loc 2 1919 0
 6547 0082 FA68     		ldr	r2, [r7, #12]
 6548 0084 D2F82021 		ldr	r2, [r2, #288]
 6549 0088 0392     		str	r2, [sp, #12]
 6550 008a 0293     		str	r3, [sp, #8]
 6551 008c 0191     		str	r1, [sp, #4]
 6552 008e 07F11403 		add	r3, r7, #20
 6553 0092 0093     		str	r3, [sp]
 6554 0094 4346     		mov	r3, r8
 6555 0096 3246     		mov	r2, r6
 6556 0098 2946     		mov	r1, r5
 6557 009a 2046     		mov	r0, r4
 6558 009c FFF7FEFF 		bl	mbedtls_pk_verify_ext
 6559 00a0 0346     		mov	r3, r0
 6560              	.L449:
1922:C:/Users/dtjld/workspace/AIoT/src/LiteOS_Lab/iot_link/network/dtls/mbedtls/mbedtls-2.16.2/library\x509_crt.c **** }
ARM GAS  C:\Users\dtjld\AppData\Local\Temp\ccTXdst3.s 			page 157


 6561              		.loc 2 1922 0 discriminator 1
 6562 00a2 1846     		mov	r0, r3
 6563 00a4 5837     		adds	r7, r7, #88
 6564              	.LCFI165:
 6565              		.cfi_def_cfa_offset 24
 6566 00a6 BD46     		mov	sp, r7
 6567              	.LCFI166:
 6568              		.cfi_def_cfa_register 13
 6569              		@ sp needed
 6570 00a8 BDE8F081 		pop	{r4, r5, r6, r7, r8, pc}
 6571              		.cfi_endproc
 6572              	.LFE43:
 6574              		.section	.text.x509_crt_check_parent,"ax",%progbits
 6575              		.align	1
 6576              		.syntax unified
 6577              		.thumb
 6578              		.thumb_func
 6579              		.fpu fpv4-sp-d16
 6581              	x509_crt_check_parent:
 6582              	.LFB44:
1923:C:/Users/dtjld/workspace/AIoT/src/LiteOS_Lab/iot_link/network/dtls/mbedtls/mbedtls-2.16.2/library\x509_crt.c **** 
1924:C:/Users/dtjld/workspace/AIoT/src/LiteOS_Lab/iot_link/network/dtls/mbedtls/mbedtls-2.16.2/library\x509_crt.c **** /*
1925:C:/Users/dtjld/workspace/AIoT/src/LiteOS_Lab/iot_link/network/dtls/mbedtls/mbedtls-2.16.2/library\x509_crt.c ****  * Check if 'parent' is a suitable parent (signing CA) for 'child'.
1926:C:/Users/dtjld/workspace/AIoT/src/LiteOS_Lab/iot_link/network/dtls/mbedtls/mbedtls-2.16.2/library\x509_crt.c ****  * Return 0 if yes, -1 if not.
1927:C:/Users/dtjld/workspace/AIoT/src/LiteOS_Lab/iot_link/network/dtls/mbedtls/mbedtls-2.16.2/library\x509_crt.c ****  *
1928:C:/Users/dtjld/workspace/AIoT/src/LiteOS_Lab/iot_link/network/dtls/mbedtls/mbedtls-2.16.2/library\x509_crt.c ****  * top means parent is a locally-trusted certificate
1929:C:/Users/dtjld/workspace/AIoT/src/LiteOS_Lab/iot_link/network/dtls/mbedtls/mbedtls-2.16.2/library\x509_crt.c ****  */
1930:C:/Users/dtjld/workspace/AIoT/src/LiteOS_Lab/iot_link/network/dtls/mbedtls/mbedtls-2.16.2/library\x509_crt.c **** static int x509_crt_check_parent( const mbedtls_x509_crt *child,
1931:C:/Users/dtjld/workspace/AIoT/src/LiteOS_Lab/iot_link/network/dtls/mbedtls/mbedtls-2.16.2/library\x509_crt.c ****                                   const mbedtls_x509_crt *parent,
1932:C:/Users/dtjld/workspace/AIoT/src/LiteOS_Lab/iot_link/network/dtls/mbedtls/mbedtls-2.16.2/library\x509_crt.c ****                                   int top )
1933:C:/Users/dtjld/workspace/AIoT/src/LiteOS_Lab/iot_link/network/dtls/mbedtls/mbedtls-2.16.2/library\x509_crt.c **** {
 6583              		.loc 2 1933 0
 6584              		.cfi_startproc
 6585              		@ args = 0, pretend = 0, frame = 24
 6586              		@ frame_needed = 1, uses_anonymous_args = 0
 6587 0000 80B5     		push	{r7, lr}
 6588              	.LCFI167:
 6589              		.cfi_def_cfa_offset 8
 6590              		.cfi_offset 7, -8
 6591              		.cfi_offset 14, -4
 6592 0002 86B0     		sub	sp, sp, #24
 6593              	.LCFI168:
 6594              		.cfi_def_cfa_offset 32
 6595 0004 00AF     		add	r7, sp, #0
 6596              	.LCFI169:
 6597              		.cfi_def_cfa_register 7
 6598 0006 F860     		str	r0, [r7, #12]
 6599 0008 B960     		str	r1, [r7, #8]
 6600 000a 7A60     		str	r2, [r7, #4]
1934:C:/Users/dtjld/workspace/AIoT/src/LiteOS_Lab/iot_link/network/dtls/mbedtls/mbedtls-2.16.2/library\x509_crt.c ****     int need_ca_bit;
1935:C:/Users/dtjld/workspace/AIoT/src/LiteOS_Lab/iot_link/network/dtls/mbedtls/mbedtls-2.16.2/library\x509_crt.c **** 
1936:C:/Users/dtjld/workspace/AIoT/src/LiteOS_Lab/iot_link/network/dtls/mbedtls/mbedtls-2.16.2/library\x509_crt.c ****     /* Parent must be the issuer */
1937:C:/Users/dtjld/workspace/AIoT/src/LiteOS_Lab/iot_link/network/dtls/mbedtls/mbedtls-2.16.2/library\x509_crt.c ****     if( x509_name_cmp( &child->issuer, &parent->subject ) != 0 )
 6601              		.loc 2 1937 0
 6602 000c FB68     		ldr	r3, [r7, #12]
 6603 000e 03F14C02 		add	r2, r3, #76
 6604 0012 BB68     		ldr	r3, [r7, #8]
ARM GAS  C:\Users\dtjld\AppData\Local\Temp\ccTXdst3.s 			page 158


 6605 0014 6C33     		adds	r3, r3, #108
 6606 0016 1946     		mov	r1, r3
 6607 0018 1046     		mov	r0, r2
 6608 001a FFF7FEFF 		bl	x509_name_cmp
 6609 001e 0346     		mov	r3, r0
 6610 0020 002B     		cmp	r3, #0
 6611 0022 02D0     		beq	.L451
1938:C:/Users/dtjld/workspace/AIoT/src/LiteOS_Lab/iot_link/network/dtls/mbedtls/mbedtls-2.16.2/library\x509_crt.c ****         return( -1 );
 6612              		.loc 2 1938 0
 6613 0024 4FF0FF33 		mov	r3, #-1
 6614 0028 23E0     		b	.L452
 6615              	.L451:
1939:C:/Users/dtjld/workspace/AIoT/src/LiteOS_Lab/iot_link/network/dtls/mbedtls/mbedtls-2.16.2/library\x509_crt.c **** 
1940:C:/Users/dtjld/workspace/AIoT/src/LiteOS_Lab/iot_link/network/dtls/mbedtls/mbedtls-2.16.2/library\x509_crt.c ****     /* Parent must have the basicConstraints CA bit set as a general rule */
1941:C:/Users/dtjld/workspace/AIoT/src/LiteOS_Lab/iot_link/network/dtls/mbedtls/mbedtls-2.16.2/library\x509_crt.c ****     need_ca_bit = 1;
 6616              		.loc 2 1941 0
 6617 002a 0123     		movs	r3, #1
 6618 002c 7B61     		str	r3, [r7, #20]
1942:C:/Users/dtjld/workspace/AIoT/src/LiteOS_Lab/iot_link/network/dtls/mbedtls/mbedtls-2.16.2/library\x509_crt.c **** 
1943:C:/Users/dtjld/workspace/AIoT/src/LiteOS_Lab/iot_link/network/dtls/mbedtls/mbedtls-2.16.2/library\x509_crt.c ****     /* Exception: v1/v2 certificates that are locally trusted. */
1944:C:/Users/dtjld/workspace/AIoT/src/LiteOS_Lab/iot_link/network/dtls/mbedtls/mbedtls-2.16.2/library\x509_crt.c ****     if( top && parent->version < 3 )
 6619              		.loc 2 1944 0
 6620 002e 7B68     		ldr	r3, [r7, #4]
 6621 0030 002B     		cmp	r3, #0
 6622 0032 05D0     		beq	.L453
 6623              		.loc 2 1944 0 is_stmt 0 discriminator 1
 6624 0034 BB68     		ldr	r3, [r7, #8]
 6625 0036 9B69     		ldr	r3, [r3, #24]
 6626 0038 022B     		cmp	r3, #2
 6627 003a 01DC     		bgt	.L453
1945:C:/Users/dtjld/workspace/AIoT/src/LiteOS_Lab/iot_link/network/dtls/mbedtls/mbedtls-2.16.2/library\x509_crt.c ****         need_ca_bit = 0;
 6628              		.loc 2 1945 0 is_stmt 1
 6629 003c 0023     		movs	r3, #0
 6630 003e 7B61     		str	r3, [r7, #20]
 6631              	.L453:
1946:C:/Users/dtjld/workspace/AIoT/src/LiteOS_Lab/iot_link/network/dtls/mbedtls/mbedtls-2.16.2/library\x509_crt.c **** 
1947:C:/Users/dtjld/workspace/AIoT/src/LiteOS_Lab/iot_link/network/dtls/mbedtls/mbedtls-2.16.2/library\x509_crt.c ****     if( need_ca_bit && ! parent->ca_istrue )
 6632              		.loc 2 1947 0
 6633 0040 7B69     		ldr	r3, [r7, #20]
 6634 0042 002B     		cmp	r3, #0
 6635 0044 07D0     		beq	.L454
 6636              		.loc 2 1947 0 is_stmt 0 discriminator 1
 6637 0046 BB68     		ldr	r3, [r7, #8]
 6638 0048 D3F8FC30 		ldr	r3, [r3, #252]
 6639 004c 002B     		cmp	r3, #0
 6640 004e 02D1     		bne	.L454
1948:C:/Users/dtjld/workspace/AIoT/src/LiteOS_Lab/iot_link/network/dtls/mbedtls/mbedtls-2.16.2/library\x509_crt.c ****         return( -1 );
 6641              		.loc 2 1948 0 is_stmt 1
 6642 0050 4FF0FF33 		mov	r3, #-1
 6643 0054 0DE0     		b	.L452
 6644              	.L454:
1949:C:/Users/dtjld/workspace/AIoT/src/LiteOS_Lab/iot_link/network/dtls/mbedtls/mbedtls-2.16.2/library\x509_crt.c **** 
1950:C:/Users/dtjld/workspace/AIoT/src/LiteOS_Lab/iot_link/network/dtls/mbedtls/mbedtls-2.16.2/library\x509_crt.c **** #if defined(MBEDTLS_X509_CHECK_KEY_USAGE)
1951:C:/Users/dtjld/workspace/AIoT/src/LiteOS_Lab/iot_link/network/dtls/mbedtls/mbedtls-2.16.2/library\x509_crt.c ****     if( need_ca_bit &&
 6645              		.loc 2 1951 0
 6646 0056 7B69     		ldr	r3, [r7, #20]
 6647 0058 002B     		cmp	r3, #0
ARM GAS  C:\Users\dtjld\AppData\Local\Temp\ccTXdst3.s 			page 159


 6648 005a 09D0     		beq	.L455
1952:C:/Users/dtjld/workspace/AIoT/src/LiteOS_Lab/iot_link/network/dtls/mbedtls/mbedtls-2.16.2/library\x509_crt.c ****         mbedtls_x509_crt_check_key_usage( parent, MBEDTLS_X509_KU_KEY_CERT_SIGN ) != 0 )
 6649              		.loc 2 1952 0 discriminator 1
 6650 005c 0421     		movs	r1, #4
 6651 005e B868     		ldr	r0, [r7, #8]
 6652 0060 FFF7FEFF 		bl	mbedtls_x509_crt_check_key_usage
 6653 0064 0346     		mov	r3, r0
1951:C:/Users/dtjld/workspace/AIoT/src/LiteOS_Lab/iot_link/network/dtls/mbedtls/mbedtls-2.16.2/library\x509_crt.c ****         mbedtls_x509_crt_check_key_usage( parent, MBEDTLS_X509_KU_KEY_CERT_SIGN ) != 0 )
 6654              		.loc 2 1951 0 discriminator 1
 6655 0066 002B     		cmp	r3, #0
 6656 0068 02D0     		beq	.L455
1953:C:/Users/dtjld/workspace/AIoT/src/LiteOS_Lab/iot_link/network/dtls/mbedtls/mbedtls-2.16.2/library\x509_crt.c ****     {
1954:C:/Users/dtjld/workspace/AIoT/src/LiteOS_Lab/iot_link/network/dtls/mbedtls/mbedtls-2.16.2/library\x509_crt.c ****         return( -1 );
 6657              		.loc 2 1954 0
 6658 006a 4FF0FF33 		mov	r3, #-1
 6659 006e 00E0     		b	.L452
 6660              	.L455:
1955:C:/Users/dtjld/workspace/AIoT/src/LiteOS_Lab/iot_link/network/dtls/mbedtls/mbedtls-2.16.2/library\x509_crt.c ****     }
1956:C:/Users/dtjld/workspace/AIoT/src/LiteOS_Lab/iot_link/network/dtls/mbedtls/mbedtls-2.16.2/library\x509_crt.c **** #endif
1957:C:/Users/dtjld/workspace/AIoT/src/LiteOS_Lab/iot_link/network/dtls/mbedtls/mbedtls-2.16.2/library\x509_crt.c **** 
1958:C:/Users/dtjld/workspace/AIoT/src/LiteOS_Lab/iot_link/network/dtls/mbedtls/mbedtls-2.16.2/library\x509_crt.c ****     return( 0 );
 6661              		.loc 2 1958 0
 6662 0070 0023     		movs	r3, #0
 6663              	.L452:
1959:C:/Users/dtjld/workspace/AIoT/src/LiteOS_Lab/iot_link/network/dtls/mbedtls/mbedtls-2.16.2/library\x509_crt.c **** }
 6664              		.loc 2 1959 0
 6665 0072 1846     		mov	r0, r3
 6666 0074 1837     		adds	r7, r7, #24
 6667              	.LCFI170:
 6668              		.cfi_def_cfa_offset 8
 6669 0076 BD46     		mov	sp, r7
 6670              	.LCFI171:
 6671              		.cfi_def_cfa_register 13
 6672              		@ sp needed
 6673 0078 80BD     		pop	{r7, pc}
 6674              		.cfi_endproc
 6675              	.LFE44:
 6677              		.section	.text.x509_crt_find_parent_in,"ax",%progbits
 6678              		.align	1
 6679              		.syntax unified
 6680              		.thumb
 6681              		.thumb_func
 6682              		.fpu fpv4-sp-d16
 6684              	x509_crt_find_parent_in:
 6685              	.LFB45:
1960:C:/Users/dtjld/workspace/AIoT/src/LiteOS_Lab/iot_link/network/dtls/mbedtls/mbedtls-2.16.2/library\x509_crt.c **** 
1961:C:/Users/dtjld/workspace/AIoT/src/LiteOS_Lab/iot_link/network/dtls/mbedtls/mbedtls-2.16.2/library\x509_crt.c **** /*
1962:C:/Users/dtjld/workspace/AIoT/src/LiteOS_Lab/iot_link/network/dtls/mbedtls/mbedtls-2.16.2/library\x509_crt.c ****  * Find a suitable parent for child in candidates, or return NULL.
1963:C:/Users/dtjld/workspace/AIoT/src/LiteOS_Lab/iot_link/network/dtls/mbedtls/mbedtls-2.16.2/library\x509_crt.c ****  *
1964:C:/Users/dtjld/workspace/AIoT/src/LiteOS_Lab/iot_link/network/dtls/mbedtls/mbedtls-2.16.2/library\x509_crt.c ****  * Here suitable is defined as:
1965:C:/Users/dtjld/workspace/AIoT/src/LiteOS_Lab/iot_link/network/dtls/mbedtls/mbedtls-2.16.2/library\x509_crt.c ****  *  1. subject name matches child's issuer
1966:C:/Users/dtjld/workspace/AIoT/src/LiteOS_Lab/iot_link/network/dtls/mbedtls/mbedtls-2.16.2/library\x509_crt.c ****  *  2. if necessary, the CA bit is set and key usage allows signing certs
1967:C:/Users/dtjld/workspace/AIoT/src/LiteOS_Lab/iot_link/network/dtls/mbedtls/mbedtls-2.16.2/library\x509_crt.c ****  *  3. for trusted roots, the signature is correct
1968:C:/Users/dtjld/workspace/AIoT/src/LiteOS_Lab/iot_link/network/dtls/mbedtls/mbedtls-2.16.2/library\x509_crt.c ****  *     (for intermediates, the signature is checked and the result reported)
1969:C:/Users/dtjld/workspace/AIoT/src/LiteOS_Lab/iot_link/network/dtls/mbedtls/mbedtls-2.16.2/library\x509_crt.c ****  *  4. pathlen constraints are satisfied
1970:C:/Users/dtjld/workspace/AIoT/src/LiteOS_Lab/iot_link/network/dtls/mbedtls/mbedtls-2.16.2/library\x509_crt.c ****  *
1971:C:/Users/dtjld/workspace/AIoT/src/LiteOS_Lab/iot_link/network/dtls/mbedtls/mbedtls-2.16.2/library\x509_crt.c ****  * If there's a suitable candidate which is also time-valid, return the first
ARM GAS  C:\Users\dtjld\AppData\Local\Temp\ccTXdst3.s 			page 160


1972:C:/Users/dtjld/workspace/AIoT/src/LiteOS_Lab/iot_link/network/dtls/mbedtls/mbedtls-2.16.2/library\x509_crt.c ****  * such. Otherwise, return the first suitable candidate (or NULL if there is
1973:C:/Users/dtjld/workspace/AIoT/src/LiteOS_Lab/iot_link/network/dtls/mbedtls/mbedtls-2.16.2/library\x509_crt.c ****  * none).
1974:C:/Users/dtjld/workspace/AIoT/src/LiteOS_Lab/iot_link/network/dtls/mbedtls/mbedtls-2.16.2/library\x509_crt.c ****  *
1975:C:/Users/dtjld/workspace/AIoT/src/LiteOS_Lab/iot_link/network/dtls/mbedtls/mbedtls-2.16.2/library\x509_crt.c ****  * The rationale for this rule is that someone could have a list of trusted
1976:C:/Users/dtjld/workspace/AIoT/src/LiteOS_Lab/iot_link/network/dtls/mbedtls/mbedtls-2.16.2/library\x509_crt.c ****  * roots with two versions on the same root with different validity periods.
1977:C:/Users/dtjld/workspace/AIoT/src/LiteOS_Lab/iot_link/network/dtls/mbedtls/mbedtls-2.16.2/library\x509_crt.c ****  * (At least one user reported having such a list and wanted it to just work.)
1978:C:/Users/dtjld/workspace/AIoT/src/LiteOS_Lab/iot_link/network/dtls/mbedtls/mbedtls-2.16.2/library\x509_crt.c ****  * The reason we don't just require time-validity is that generally there is
1979:C:/Users/dtjld/workspace/AIoT/src/LiteOS_Lab/iot_link/network/dtls/mbedtls/mbedtls-2.16.2/library\x509_crt.c ****  * only one version, and if it's expired we want the flags to state that
1980:C:/Users/dtjld/workspace/AIoT/src/LiteOS_Lab/iot_link/network/dtls/mbedtls/mbedtls-2.16.2/library\x509_crt.c ****  * rather than NOT_TRUSTED, as would be the case if we required it here.
1981:C:/Users/dtjld/workspace/AIoT/src/LiteOS_Lab/iot_link/network/dtls/mbedtls/mbedtls-2.16.2/library\x509_crt.c ****  *
1982:C:/Users/dtjld/workspace/AIoT/src/LiteOS_Lab/iot_link/network/dtls/mbedtls/mbedtls-2.16.2/library\x509_crt.c ****  * The rationale for rule 3 (signature for trusted roots) is that users might
1983:C:/Users/dtjld/workspace/AIoT/src/LiteOS_Lab/iot_link/network/dtls/mbedtls/mbedtls-2.16.2/library\x509_crt.c ****  * have two versions of the same CA with different keys in their list, and the
1984:C:/Users/dtjld/workspace/AIoT/src/LiteOS_Lab/iot_link/network/dtls/mbedtls/mbedtls-2.16.2/library\x509_crt.c ****  * way we select the correct one is by checking the signature (as we don't
1985:C:/Users/dtjld/workspace/AIoT/src/LiteOS_Lab/iot_link/network/dtls/mbedtls/mbedtls-2.16.2/library\x509_crt.c ****  * rely on key identifier extensions). (This is one way users might choose to
1986:C:/Users/dtjld/workspace/AIoT/src/LiteOS_Lab/iot_link/network/dtls/mbedtls/mbedtls-2.16.2/library\x509_crt.c ****  * handle key rollover, another relies on self-issued certs, see [SIRO].)
1987:C:/Users/dtjld/workspace/AIoT/src/LiteOS_Lab/iot_link/network/dtls/mbedtls/mbedtls-2.16.2/library\x509_crt.c ****  *
1988:C:/Users/dtjld/workspace/AIoT/src/LiteOS_Lab/iot_link/network/dtls/mbedtls/mbedtls-2.16.2/library\x509_crt.c ****  * Arguments:
1989:C:/Users/dtjld/workspace/AIoT/src/LiteOS_Lab/iot_link/network/dtls/mbedtls/mbedtls-2.16.2/library\x509_crt.c ****  *  - [in] child: certificate for which we're looking for a parent
1990:C:/Users/dtjld/workspace/AIoT/src/LiteOS_Lab/iot_link/network/dtls/mbedtls/mbedtls-2.16.2/library\x509_crt.c ****  *  - [in] candidates: chained list of potential parents
1991:C:/Users/dtjld/workspace/AIoT/src/LiteOS_Lab/iot_link/network/dtls/mbedtls/mbedtls-2.16.2/library\x509_crt.c ****  *  - [out] r_parent: parent found (or NULL)
1992:C:/Users/dtjld/workspace/AIoT/src/LiteOS_Lab/iot_link/network/dtls/mbedtls/mbedtls-2.16.2/library\x509_crt.c ****  *  - [out] r_signature_is_good: 1 if child signature by parent is valid, or 0
1993:C:/Users/dtjld/workspace/AIoT/src/LiteOS_Lab/iot_link/network/dtls/mbedtls/mbedtls-2.16.2/library\x509_crt.c ****  *  - [in] top: 1 if candidates consists of trusted roots, ie we're at the top
1994:C:/Users/dtjld/workspace/AIoT/src/LiteOS_Lab/iot_link/network/dtls/mbedtls/mbedtls-2.16.2/library\x509_crt.c ****  *         of the chain, 0 otherwise
1995:C:/Users/dtjld/workspace/AIoT/src/LiteOS_Lab/iot_link/network/dtls/mbedtls/mbedtls-2.16.2/library\x509_crt.c ****  *  - [in] path_cnt: number of intermediates seen so far
1996:C:/Users/dtjld/workspace/AIoT/src/LiteOS_Lab/iot_link/network/dtls/mbedtls/mbedtls-2.16.2/library\x509_crt.c ****  *  - [in] self_cnt: number of self-signed intermediates seen so far
1997:C:/Users/dtjld/workspace/AIoT/src/LiteOS_Lab/iot_link/network/dtls/mbedtls/mbedtls-2.16.2/library\x509_crt.c ****  *         (will never be greater than path_cnt)
1998:C:/Users/dtjld/workspace/AIoT/src/LiteOS_Lab/iot_link/network/dtls/mbedtls/mbedtls-2.16.2/library\x509_crt.c ****  *  - [in-out] rs_ctx: context for restarting operations
1999:C:/Users/dtjld/workspace/AIoT/src/LiteOS_Lab/iot_link/network/dtls/mbedtls/mbedtls-2.16.2/library\x509_crt.c ****  *
2000:C:/Users/dtjld/workspace/AIoT/src/LiteOS_Lab/iot_link/network/dtls/mbedtls/mbedtls-2.16.2/library\x509_crt.c ****  * Return value:
2001:C:/Users/dtjld/workspace/AIoT/src/LiteOS_Lab/iot_link/network/dtls/mbedtls/mbedtls-2.16.2/library\x509_crt.c ****  *  - 0 on success
2002:C:/Users/dtjld/workspace/AIoT/src/LiteOS_Lab/iot_link/network/dtls/mbedtls/mbedtls-2.16.2/library\x509_crt.c ****  *  - MBEDTLS_ERR_ECP_IN_PROGRESS otherwise
2003:C:/Users/dtjld/workspace/AIoT/src/LiteOS_Lab/iot_link/network/dtls/mbedtls/mbedtls-2.16.2/library\x509_crt.c ****  */
2004:C:/Users/dtjld/workspace/AIoT/src/LiteOS_Lab/iot_link/network/dtls/mbedtls/mbedtls-2.16.2/library\x509_crt.c **** static int x509_crt_find_parent_in(
2005:C:/Users/dtjld/workspace/AIoT/src/LiteOS_Lab/iot_link/network/dtls/mbedtls/mbedtls-2.16.2/library\x509_crt.c ****                         mbedtls_x509_crt *child,
2006:C:/Users/dtjld/workspace/AIoT/src/LiteOS_Lab/iot_link/network/dtls/mbedtls/mbedtls-2.16.2/library\x509_crt.c ****                         mbedtls_x509_crt *candidates,
2007:C:/Users/dtjld/workspace/AIoT/src/LiteOS_Lab/iot_link/network/dtls/mbedtls/mbedtls-2.16.2/library\x509_crt.c ****                         mbedtls_x509_crt **r_parent,
2008:C:/Users/dtjld/workspace/AIoT/src/LiteOS_Lab/iot_link/network/dtls/mbedtls/mbedtls-2.16.2/library\x509_crt.c ****                         int *r_signature_is_good,
2009:C:/Users/dtjld/workspace/AIoT/src/LiteOS_Lab/iot_link/network/dtls/mbedtls/mbedtls-2.16.2/library\x509_crt.c ****                         int top,
2010:C:/Users/dtjld/workspace/AIoT/src/LiteOS_Lab/iot_link/network/dtls/mbedtls/mbedtls-2.16.2/library\x509_crt.c ****                         unsigned path_cnt,
2011:C:/Users/dtjld/workspace/AIoT/src/LiteOS_Lab/iot_link/network/dtls/mbedtls/mbedtls-2.16.2/library\x509_crt.c ****                         unsigned self_cnt,
2012:C:/Users/dtjld/workspace/AIoT/src/LiteOS_Lab/iot_link/network/dtls/mbedtls/mbedtls-2.16.2/library\x509_crt.c ****                         mbedtls_x509_crt_restart_ctx *rs_ctx )
2013:C:/Users/dtjld/workspace/AIoT/src/LiteOS_Lab/iot_link/network/dtls/mbedtls/mbedtls-2.16.2/library\x509_crt.c **** {
 6686              		.loc 2 2013 0
 6687              		.cfi_startproc
 6688              		@ args = 16, pretend = 0, frame = 40
 6689              		@ frame_needed = 1, uses_anonymous_args = 0
 6690 0000 80B5     		push	{r7, lr}
 6691              	.LCFI172:
 6692              		.cfi_def_cfa_offset 8
 6693              		.cfi_offset 7, -8
 6694              		.cfi_offset 14, -4
 6695 0002 8AB0     		sub	sp, sp, #40
 6696              	.LCFI173:
 6697              		.cfi_def_cfa_offset 48
 6698 0004 00AF     		add	r7, sp, #0
 6699              	.LCFI174:
 6700              		.cfi_def_cfa_register 7
ARM GAS  C:\Users\dtjld\AppData\Local\Temp\ccTXdst3.s 			page 161


 6701 0006 F860     		str	r0, [r7, #12]
 6702 0008 B960     		str	r1, [r7, #8]
 6703 000a 7A60     		str	r2, [r7, #4]
 6704 000c 3B60     		str	r3, [r7]
2014:C:/Users/dtjld/workspace/AIoT/src/LiteOS_Lab/iot_link/network/dtls/mbedtls/mbedtls-2.16.2/library\x509_crt.c ****     int ret;
2015:C:/Users/dtjld/workspace/AIoT/src/LiteOS_Lab/iot_link/network/dtls/mbedtls/mbedtls-2.16.2/library\x509_crt.c ****     mbedtls_x509_crt *parent, *fallback_parent;
2016:C:/Users/dtjld/workspace/AIoT/src/LiteOS_Lab/iot_link/network/dtls/mbedtls/mbedtls-2.16.2/library\x509_crt.c ****     int signature_is_good, fallback_signature_is_good;
2017:C:/Users/dtjld/workspace/AIoT/src/LiteOS_Lab/iot_link/network/dtls/mbedtls/mbedtls-2.16.2/library\x509_crt.c **** 
2018:C:/Users/dtjld/workspace/AIoT/src/LiteOS_Lab/iot_link/network/dtls/mbedtls/mbedtls-2.16.2/library\x509_crt.c **** #if defined(MBEDTLS_ECDSA_C) && defined(MBEDTLS_ECP_RESTARTABLE)
2019:C:/Users/dtjld/workspace/AIoT/src/LiteOS_Lab/iot_link/network/dtls/mbedtls/mbedtls-2.16.2/library\x509_crt.c ****     /* did we have something in progress? */
2020:C:/Users/dtjld/workspace/AIoT/src/LiteOS_Lab/iot_link/network/dtls/mbedtls/mbedtls-2.16.2/library\x509_crt.c ****     if( rs_ctx != NULL && rs_ctx->parent != NULL )
2021:C:/Users/dtjld/workspace/AIoT/src/LiteOS_Lab/iot_link/network/dtls/mbedtls/mbedtls-2.16.2/library\x509_crt.c ****     {
2022:C:/Users/dtjld/workspace/AIoT/src/LiteOS_Lab/iot_link/network/dtls/mbedtls/mbedtls-2.16.2/library\x509_crt.c ****         /* restore saved state */
2023:C:/Users/dtjld/workspace/AIoT/src/LiteOS_Lab/iot_link/network/dtls/mbedtls/mbedtls-2.16.2/library\x509_crt.c ****         parent = rs_ctx->parent;
2024:C:/Users/dtjld/workspace/AIoT/src/LiteOS_Lab/iot_link/network/dtls/mbedtls/mbedtls-2.16.2/library\x509_crt.c ****         fallback_parent = rs_ctx->fallback_parent;
2025:C:/Users/dtjld/workspace/AIoT/src/LiteOS_Lab/iot_link/network/dtls/mbedtls/mbedtls-2.16.2/library\x509_crt.c ****         fallback_signature_is_good = rs_ctx->fallback_signature_is_good;
2026:C:/Users/dtjld/workspace/AIoT/src/LiteOS_Lab/iot_link/network/dtls/mbedtls/mbedtls-2.16.2/library\x509_crt.c **** 
2027:C:/Users/dtjld/workspace/AIoT/src/LiteOS_Lab/iot_link/network/dtls/mbedtls/mbedtls-2.16.2/library\x509_crt.c ****         /* clear saved state */
2028:C:/Users/dtjld/workspace/AIoT/src/LiteOS_Lab/iot_link/network/dtls/mbedtls/mbedtls-2.16.2/library\x509_crt.c ****         rs_ctx->parent = NULL;
2029:C:/Users/dtjld/workspace/AIoT/src/LiteOS_Lab/iot_link/network/dtls/mbedtls/mbedtls-2.16.2/library\x509_crt.c ****         rs_ctx->fallback_parent = NULL;
2030:C:/Users/dtjld/workspace/AIoT/src/LiteOS_Lab/iot_link/network/dtls/mbedtls/mbedtls-2.16.2/library\x509_crt.c ****         rs_ctx->fallback_signature_is_good = 0;
2031:C:/Users/dtjld/workspace/AIoT/src/LiteOS_Lab/iot_link/network/dtls/mbedtls/mbedtls-2.16.2/library\x509_crt.c **** 
2032:C:/Users/dtjld/workspace/AIoT/src/LiteOS_Lab/iot_link/network/dtls/mbedtls/mbedtls-2.16.2/library\x509_crt.c ****         /* resume where we left */
2033:C:/Users/dtjld/workspace/AIoT/src/LiteOS_Lab/iot_link/network/dtls/mbedtls/mbedtls-2.16.2/library\x509_crt.c ****         goto check_signature;
2034:C:/Users/dtjld/workspace/AIoT/src/LiteOS_Lab/iot_link/network/dtls/mbedtls/mbedtls-2.16.2/library\x509_crt.c ****     }
2035:C:/Users/dtjld/workspace/AIoT/src/LiteOS_Lab/iot_link/network/dtls/mbedtls/mbedtls-2.16.2/library\x509_crt.c **** #endif
2036:C:/Users/dtjld/workspace/AIoT/src/LiteOS_Lab/iot_link/network/dtls/mbedtls/mbedtls-2.16.2/library\x509_crt.c **** 
2037:C:/Users/dtjld/workspace/AIoT/src/LiteOS_Lab/iot_link/network/dtls/mbedtls/mbedtls-2.16.2/library\x509_crt.c ****     fallback_parent = NULL;
 6705              		.loc 2 2037 0
 6706 000e 0023     		movs	r3, #0
 6707 0010 3B62     		str	r3, [r7, #32]
2038:C:/Users/dtjld/workspace/AIoT/src/LiteOS_Lab/iot_link/network/dtls/mbedtls/mbedtls-2.16.2/library\x509_crt.c ****     fallback_signature_is_good = 0;
 6708              		.loc 2 2038 0
 6709 0012 0023     		movs	r3, #0
 6710 0014 BB61     		str	r3, [r7, #24]
2039:C:/Users/dtjld/workspace/AIoT/src/LiteOS_Lab/iot_link/network/dtls/mbedtls/mbedtls-2.16.2/library\x509_crt.c **** 
2040:C:/Users/dtjld/workspace/AIoT/src/LiteOS_Lab/iot_link/network/dtls/mbedtls/mbedtls-2.16.2/library\x509_crt.c ****     for( parent = candidates; parent != NULL; parent = parent->next )
 6711              		.loc 2 2040 0
 6712 0016 BB68     		ldr	r3, [r7, #8]
 6713 0018 7B62     		str	r3, [r7, #36]
 6714 001a 4CE0     		b	.L457
 6715              	.L466:
2041:C:/Users/dtjld/workspace/AIoT/src/LiteOS_Lab/iot_link/network/dtls/mbedtls/mbedtls-2.16.2/library\x509_crt.c ****     {
2042:C:/Users/dtjld/workspace/AIoT/src/LiteOS_Lab/iot_link/network/dtls/mbedtls/mbedtls-2.16.2/library\x509_crt.c ****         /* basic parenting skills (name, CA bit, key usage) */
2043:C:/Users/dtjld/workspace/AIoT/src/LiteOS_Lab/iot_link/network/dtls/mbedtls/mbedtls-2.16.2/library\x509_crt.c ****         if( x509_crt_check_parent( child, parent, top ) != 0 )
 6716              		.loc 2 2043 0
 6717 001c 3A6B     		ldr	r2, [r7, #48]
 6718 001e 796A     		ldr	r1, [r7, #36]
 6719 0020 F868     		ldr	r0, [r7, #12]
 6720 0022 FFF7FEFF 		bl	x509_crt_check_parent
 6721 0026 0346     		mov	r3, r0
 6722 0028 002B     		cmp	r3, #0
 6723 002a 39D1     		bne	.L470
2044:C:/Users/dtjld/workspace/AIoT/src/LiteOS_Lab/iot_link/network/dtls/mbedtls/mbedtls-2.16.2/library\x509_crt.c ****             continue;
2045:C:/Users/dtjld/workspace/AIoT/src/LiteOS_Lab/iot_link/network/dtls/mbedtls/mbedtls-2.16.2/library\x509_crt.c **** 
2046:C:/Users/dtjld/workspace/AIoT/src/LiteOS_Lab/iot_link/network/dtls/mbedtls/mbedtls-2.16.2/library\x509_crt.c ****         /* +1 because stored max_pathlen is 1 higher that the actual value */
2047:C:/Users/dtjld/workspace/AIoT/src/LiteOS_Lab/iot_link/network/dtls/mbedtls/mbedtls-2.16.2/library\x509_crt.c ****         if( parent->max_pathlen > 0 &&
ARM GAS  C:\Users\dtjld\AppData\Local\Temp\ccTXdst3.s 			page 162


 6724              		.loc 2 2047 0
 6725 002c 7B6A     		ldr	r3, [r7, #36]
 6726 002e D3F80031 		ldr	r3, [r3, #256]
 6727 0032 002B     		cmp	r3, #0
 6728 0034 09DD     		ble	.L460
2048:C:/Users/dtjld/workspace/AIoT/src/LiteOS_Lab/iot_link/network/dtls/mbedtls/mbedtls-2.16.2/library\x509_crt.c ****             (size_t) parent->max_pathlen < 1 + path_cnt - self_cnt )
 6729              		.loc 2 2048 0 discriminator 1
 6730 0036 7B6A     		ldr	r3, [r7, #36]
 6731 0038 D3F80031 		ldr	r3, [r3, #256]
 6732 003c 1946     		mov	r1, r3
 6733 003e 7A6B     		ldr	r2, [r7, #52]
 6734 0040 BB6B     		ldr	r3, [r7, #56]
 6735 0042 D31A     		subs	r3, r2, r3
 6736 0044 0133     		adds	r3, r3, #1
2047:C:/Users/dtjld/workspace/AIoT/src/LiteOS_Lab/iot_link/network/dtls/mbedtls/mbedtls-2.16.2/library\x509_crt.c ****             (size_t) parent->max_pathlen < 1 + path_cnt - self_cnt )
 6737              		.loc 2 2047 0 discriminator 1
 6738 0046 9942     		cmp	r1, r3
 6739 0048 2CD3     		bcc	.L471
 6740              	.L460:
2049:C:/Users/dtjld/workspace/AIoT/src/LiteOS_Lab/iot_link/network/dtls/mbedtls/mbedtls-2.16.2/library\x509_crt.c ****         {
2050:C:/Users/dtjld/workspace/AIoT/src/LiteOS_Lab/iot_link/network/dtls/mbedtls/mbedtls-2.16.2/library\x509_crt.c ****             continue;
2051:C:/Users/dtjld/workspace/AIoT/src/LiteOS_Lab/iot_link/network/dtls/mbedtls/mbedtls-2.16.2/library\x509_crt.c ****         }
2052:C:/Users/dtjld/workspace/AIoT/src/LiteOS_Lab/iot_link/network/dtls/mbedtls/mbedtls-2.16.2/library\x509_crt.c **** 
2053:C:/Users/dtjld/workspace/AIoT/src/LiteOS_Lab/iot_link/network/dtls/mbedtls/mbedtls-2.16.2/library\x509_crt.c ****         /* Signature */
2054:C:/Users/dtjld/workspace/AIoT/src/LiteOS_Lab/iot_link/network/dtls/mbedtls/mbedtls-2.16.2/library\x509_crt.c **** #if defined(MBEDTLS_ECDSA_C) && defined(MBEDTLS_ECP_RESTARTABLE)
2055:C:/Users/dtjld/workspace/AIoT/src/LiteOS_Lab/iot_link/network/dtls/mbedtls/mbedtls-2.16.2/library\x509_crt.c **** check_signature:
2056:C:/Users/dtjld/workspace/AIoT/src/LiteOS_Lab/iot_link/network/dtls/mbedtls/mbedtls-2.16.2/library\x509_crt.c **** #endif
2057:C:/Users/dtjld/workspace/AIoT/src/LiteOS_Lab/iot_link/network/dtls/mbedtls/mbedtls-2.16.2/library\x509_crt.c ****         ret = x509_crt_check_signature( child, parent, rs_ctx );
 6741              		.loc 2 2057 0
 6742 004a FA6B     		ldr	r2, [r7, #60]
 6743 004c 796A     		ldr	r1, [r7, #36]
 6744 004e F868     		ldr	r0, [r7, #12]
 6745 0050 FFF7FEFF 		bl	x509_crt_check_signature
 6746 0054 7861     		str	r0, [r7, #20]
2058:C:/Users/dtjld/workspace/AIoT/src/LiteOS_Lab/iot_link/network/dtls/mbedtls/mbedtls-2.16.2/library\x509_crt.c **** 
2059:C:/Users/dtjld/workspace/AIoT/src/LiteOS_Lab/iot_link/network/dtls/mbedtls/mbedtls-2.16.2/library\x509_crt.c **** #if defined(MBEDTLS_ECDSA_C) && defined(MBEDTLS_ECP_RESTARTABLE)
2060:C:/Users/dtjld/workspace/AIoT/src/LiteOS_Lab/iot_link/network/dtls/mbedtls/mbedtls-2.16.2/library\x509_crt.c ****         if( rs_ctx != NULL && ret == MBEDTLS_ERR_ECP_IN_PROGRESS )
2061:C:/Users/dtjld/workspace/AIoT/src/LiteOS_Lab/iot_link/network/dtls/mbedtls/mbedtls-2.16.2/library\x509_crt.c ****         {
2062:C:/Users/dtjld/workspace/AIoT/src/LiteOS_Lab/iot_link/network/dtls/mbedtls/mbedtls-2.16.2/library\x509_crt.c ****             /* save state */
2063:C:/Users/dtjld/workspace/AIoT/src/LiteOS_Lab/iot_link/network/dtls/mbedtls/mbedtls-2.16.2/library\x509_crt.c ****             rs_ctx->parent = parent;
2064:C:/Users/dtjld/workspace/AIoT/src/LiteOS_Lab/iot_link/network/dtls/mbedtls/mbedtls-2.16.2/library\x509_crt.c ****             rs_ctx->fallback_parent = fallback_parent;
2065:C:/Users/dtjld/workspace/AIoT/src/LiteOS_Lab/iot_link/network/dtls/mbedtls/mbedtls-2.16.2/library\x509_crt.c ****             rs_ctx->fallback_signature_is_good = fallback_signature_is_good;
2066:C:/Users/dtjld/workspace/AIoT/src/LiteOS_Lab/iot_link/network/dtls/mbedtls/mbedtls-2.16.2/library\x509_crt.c **** 
2067:C:/Users/dtjld/workspace/AIoT/src/LiteOS_Lab/iot_link/network/dtls/mbedtls/mbedtls-2.16.2/library\x509_crt.c ****             return( ret );
2068:C:/Users/dtjld/workspace/AIoT/src/LiteOS_Lab/iot_link/network/dtls/mbedtls/mbedtls-2.16.2/library\x509_crt.c ****         }
2069:C:/Users/dtjld/workspace/AIoT/src/LiteOS_Lab/iot_link/network/dtls/mbedtls/mbedtls-2.16.2/library\x509_crt.c **** #else
2070:C:/Users/dtjld/workspace/AIoT/src/LiteOS_Lab/iot_link/network/dtls/mbedtls/mbedtls-2.16.2/library\x509_crt.c ****         (void) ret;
2071:C:/Users/dtjld/workspace/AIoT/src/LiteOS_Lab/iot_link/network/dtls/mbedtls/mbedtls-2.16.2/library\x509_crt.c **** #endif
2072:C:/Users/dtjld/workspace/AIoT/src/LiteOS_Lab/iot_link/network/dtls/mbedtls/mbedtls-2.16.2/library\x509_crt.c **** 
2073:C:/Users/dtjld/workspace/AIoT/src/LiteOS_Lab/iot_link/network/dtls/mbedtls/mbedtls-2.16.2/library\x509_crt.c ****         signature_is_good = ret == 0;
 6747              		.loc 2 2073 0
 6748 0056 7B69     		ldr	r3, [r7, #20]
 6749 0058 002B     		cmp	r3, #0
 6750 005a 0CBF     		ite	eq
 6751 005c 0123     		moveq	r3, #1
 6752 005e 0023     		movne	r3, #0
 6753 0060 DBB2     		uxtb	r3, r3
ARM GAS  C:\Users\dtjld\AppData\Local\Temp\ccTXdst3.s 			page 163


 6754 0062 FB61     		str	r3, [r7, #28]
2074:C:/Users/dtjld/workspace/AIoT/src/LiteOS_Lab/iot_link/network/dtls/mbedtls/mbedtls-2.16.2/library\x509_crt.c ****         if( top && ! signature_is_good )
 6755              		.loc 2 2074 0
 6756 0064 3B6B     		ldr	r3, [r7, #48]
 6757 0066 002B     		cmp	r3, #0
 6758 0068 02D0     		beq	.L461
 6759              		.loc 2 2074 0 is_stmt 0 discriminator 1
 6760 006a FB69     		ldr	r3, [r7, #28]
 6761 006c 002B     		cmp	r3, #0
 6762 006e 1BD0     		beq	.L472
 6763              	.L461:
2075:C:/Users/dtjld/workspace/AIoT/src/LiteOS_Lab/iot_link/network/dtls/mbedtls/mbedtls-2.16.2/library\x509_crt.c ****             continue;
2076:C:/Users/dtjld/workspace/AIoT/src/LiteOS_Lab/iot_link/network/dtls/mbedtls/mbedtls-2.16.2/library\x509_crt.c **** 
2077:C:/Users/dtjld/workspace/AIoT/src/LiteOS_Lab/iot_link/network/dtls/mbedtls/mbedtls-2.16.2/library\x509_crt.c ****         /* optional time check */
2078:C:/Users/dtjld/workspace/AIoT/src/LiteOS_Lab/iot_link/network/dtls/mbedtls/mbedtls-2.16.2/library\x509_crt.c ****         if( mbedtls_x509_time_is_past( &parent->valid_to ) ||
 6764              		.loc 2 2078 0 is_stmt 1
 6765 0070 7B6A     		ldr	r3, [r7, #36]
 6766 0072 A433     		adds	r3, r3, #164
 6767 0074 1846     		mov	r0, r3
 6768 0076 FFF7FEFF 		bl	mbedtls_x509_time_is_past
 6769 007a 0346     		mov	r3, r0
 6770 007c 002B     		cmp	r3, #0
 6771 007e 07D1     		bne	.L462
2079:C:/Users/dtjld/workspace/AIoT/src/LiteOS_Lab/iot_link/network/dtls/mbedtls/mbedtls-2.16.2/library\x509_crt.c ****             mbedtls_x509_time_is_future( &parent->valid_from ) )
 6772              		.loc 2 2079 0 discriminator 1
 6773 0080 7B6A     		ldr	r3, [r7, #36]
 6774 0082 8C33     		adds	r3, r3, #140
 6775 0084 1846     		mov	r0, r3
 6776 0086 FFF7FEFF 		bl	mbedtls_x509_time_is_future
 6777 008a 0346     		mov	r3, r0
2078:C:/Users/dtjld/workspace/AIoT/src/LiteOS_Lab/iot_link/network/dtls/mbedtls/mbedtls-2.16.2/library\x509_crt.c ****             mbedtls_x509_time_is_future( &parent->valid_from ) )
 6778              		.loc 2 2078 0 discriminator 1
 6779 008c 002B     		cmp	r3, #0
 6780 008e 16D0     		beq	.L473
 6781              	.L462:
2080:C:/Users/dtjld/workspace/AIoT/src/LiteOS_Lab/iot_link/network/dtls/mbedtls/mbedtls-2.16.2/library\x509_crt.c ****         {
2081:C:/Users/dtjld/workspace/AIoT/src/LiteOS_Lab/iot_link/network/dtls/mbedtls/mbedtls-2.16.2/library\x509_crt.c ****             if( fallback_parent == NULL )
 6782              		.loc 2 2081 0
 6783 0090 3B6A     		ldr	r3, [r7, #32]
 6784 0092 002B     		cmp	r3, #0
 6785 0094 0AD1     		bne	.L474
2082:C:/Users/dtjld/workspace/AIoT/src/LiteOS_Lab/iot_link/network/dtls/mbedtls/mbedtls-2.16.2/library\x509_crt.c ****             {
2083:C:/Users/dtjld/workspace/AIoT/src/LiteOS_Lab/iot_link/network/dtls/mbedtls/mbedtls-2.16.2/library\x509_crt.c ****                 fallback_parent = parent;
 6786              		.loc 2 2083 0
 6787 0096 7B6A     		ldr	r3, [r7, #36]
 6788 0098 3B62     		str	r3, [r7, #32]
2084:C:/Users/dtjld/workspace/AIoT/src/LiteOS_Lab/iot_link/network/dtls/mbedtls/mbedtls-2.16.2/library\x509_crt.c ****                 fallback_signature_is_good = signature_is_good;
 6789              		.loc 2 2084 0
 6790 009a FB69     		ldr	r3, [r7, #28]
 6791 009c BB61     		str	r3, [r7, #24]
2085:C:/Users/dtjld/workspace/AIoT/src/LiteOS_Lab/iot_link/network/dtls/mbedtls/mbedtls-2.16.2/library\x509_crt.c ****             }
2086:C:/Users/dtjld/workspace/AIoT/src/LiteOS_Lab/iot_link/network/dtls/mbedtls/mbedtls-2.16.2/library\x509_crt.c **** 
2087:C:/Users/dtjld/workspace/AIoT/src/LiteOS_Lab/iot_link/network/dtls/mbedtls/mbedtls-2.16.2/library\x509_crt.c ****             continue;
 6792              		.loc 2 2087 0
 6793 009e 05E0     		b	.L474
 6794              	.L470:
2044:C:/Users/dtjld/workspace/AIoT/src/LiteOS_Lab/iot_link/network/dtls/mbedtls/mbedtls-2.16.2/library\x509_crt.c **** 
ARM GAS  C:\Users\dtjld\AppData\Local\Temp\ccTXdst3.s 			page 164


 6795              		.loc 2 2044 0
 6796 00a0 00BF     		nop
 6797 00a2 04E0     		b	.L459
 6798              	.L471:
2050:C:/Users/dtjld/workspace/AIoT/src/LiteOS_Lab/iot_link/network/dtls/mbedtls/mbedtls-2.16.2/library\x509_crt.c ****         }
 6799              		.loc 2 2050 0
 6800 00a4 00BF     		nop
 6801 00a6 02E0     		b	.L459
 6802              	.L472:
2075:C:/Users/dtjld/workspace/AIoT/src/LiteOS_Lab/iot_link/network/dtls/mbedtls/mbedtls-2.16.2/library\x509_crt.c **** 
 6803              		.loc 2 2075 0
 6804 00a8 00BF     		nop
 6805 00aa 00E0     		b	.L459
 6806              	.L474:
 6807              		.loc 2 2087 0
 6808 00ac 00BF     		nop
 6809              	.L459:
2040:C:/Users/dtjld/workspace/AIoT/src/LiteOS_Lab/iot_link/network/dtls/mbedtls/mbedtls-2.16.2/library\x509_crt.c ****     {
 6810              		.loc 2 2040 0 discriminator 2
 6811 00ae 7B6A     		ldr	r3, [r7, #36]
 6812 00b0 D3F83031 		ldr	r3, [r3, #304]
 6813 00b4 7B62     		str	r3, [r7, #36]
 6814              	.L457:
2040:C:/Users/dtjld/workspace/AIoT/src/LiteOS_Lab/iot_link/network/dtls/mbedtls/mbedtls-2.16.2/library\x509_crt.c ****     {
 6815              		.loc 2 2040 0 is_stmt 0 discriminator 1
 6816 00b6 7B6A     		ldr	r3, [r7, #36]
 6817 00b8 002B     		cmp	r3, #0
 6818 00ba AFD1     		bne	.L466
 6819 00bc 00E0     		b	.L465
 6820              	.L473:
2088:C:/Users/dtjld/workspace/AIoT/src/LiteOS_Lab/iot_link/network/dtls/mbedtls/mbedtls-2.16.2/library\x509_crt.c ****         }
2089:C:/Users/dtjld/workspace/AIoT/src/LiteOS_Lab/iot_link/network/dtls/mbedtls/mbedtls-2.16.2/library\x509_crt.c **** 
2090:C:/Users/dtjld/workspace/AIoT/src/LiteOS_Lab/iot_link/network/dtls/mbedtls/mbedtls-2.16.2/library\x509_crt.c ****         break;
 6821              		.loc 2 2090 0 is_stmt 1
 6822 00be 00BF     		nop
 6823              	.L465:
2091:C:/Users/dtjld/workspace/AIoT/src/LiteOS_Lab/iot_link/network/dtls/mbedtls/mbedtls-2.16.2/library\x509_crt.c ****     }
2092:C:/Users/dtjld/workspace/AIoT/src/LiteOS_Lab/iot_link/network/dtls/mbedtls/mbedtls-2.16.2/library\x509_crt.c **** 
2093:C:/Users/dtjld/workspace/AIoT/src/LiteOS_Lab/iot_link/network/dtls/mbedtls/mbedtls-2.16.2/library\x509_crt.c ****     if( parent != NULL )
 6824              		.loc 2 2093 0
 6825 00c0 7B6A     		ldr	r3, [r7, #36]
 6826 00c2 002B     		cmp	r3, #0
 6827 00c4 06D0     		beq	.L467
2094:C:/Users/dtjld/workspace/AIoT/src/LiteOS_Lab/iot_link/network/dtls/mbedtls/mbedtls-2.16.2/library\x509_crt.c ****     {
2095:C:/Users/dtjld/workspace/AIoT/src/LiteOS_Lab/iot_link/network/dtls/mbedtls/mbedtls-2.16.2/library\x509_crt.c ****         *r_parent = parent;
 6828              		.loc 2 2095 0
 6829 00c6 7B68     		ldr	r3, [r7, #4]
 6830 00c8 7A6A     		ldr	r2, [r7, #36]
 6831 00ca 1A60     		str	r2, [r3]
2096:C:/Users/dtjld/workspace/AIoT/src/LiteOS_Lab/iot_link/network/dtls/mbedtls/mbedtls-2.16.2/library\x509_crt.c ****         *r_signature_is_good = signature_is_good;
 6832              		.loc 2 2096 0
 6833 00cc 3B68     		ldr	r3, [r7]
 6834 00ce FA69     		ldr	r2, [r7, #28]
 6835 00d0 1A60     		str	r2, [r3]
 6836 00d2 05E0     		b	.L468
 6837              	.L467:
2097:C:/Users/dtjld/workspace/AIoT/src/LiteOS_Lab/iot_link/network/dtls/mbedtls/mbedtls-2.16.2/library\x509_crt.c ****     }
ARM GAS  C:\Users\dtjld\AppData\Local\Temp\ccTXdst3.s 			page 165


2098:C:/Users/dtjld/workspace/AIoT/src/LiteOS_Lab/iot_link/network/dtls/mbedtls/mbedtls-2.16.2/library\x509_crt.c ****     else
2099:C:/Users/dtjld/workspace/AIoT/src/LiteOS_Lab/iot_link/network/dtls/mbedtls/mbedtls-2.16.2/library\x509_crt.c ****     {
2100:C:/Users/dtjld/workspace/AIoT/src/LiteOS_Lab/iot_link/network/dtls/mbedtls/mbedtls-2.16.2/library\x509_crt.c ****         *r_parent = fallback_parent;
 6838              		.loc 2 2100 0
 6839 00d4 7B68     		ldr	r3, [r7, #4]
 6840 00d6 3A6A     		ldr	r2, [r7, #32]
 6841 00d8 1A60     		str	r2, [r3]
2101:C:/Users/dtjld/workspace/AIoT/src/LiteOS_Lab/iot_link/network/dtls/mbedtls/mbedtls-2.16.2/library\x509_crt.c ****         *r_signature_is_good = fallback_signature_is_good;
 6842              		.loc 2 2101 0
 6843 00da 3B68     		ldr	r3, [r7]
 6844 00dc BA69     		ldr	r2, [r7, #24]
 6845 00de 1A60     		str	r2, [r3]
 6846              	.L468:
2102:C:/Users/dtjld/workspace/AIoT/src/LiteOS_Lab/iot_link/network/dtls/mbedtls/mbedtls-2.16.2/library\x509_crt.c ****     }
2103:C:/Users/dtjld/workspace/AIoT/src/LiteOS_Lab/iot_link/network/dtls/mbedtls/mbedtls-2.16.2/library\x509_crt.c **** 
2104:C:/Users/dtjld/workspace/AIoT/src/LiteOS_Lab/iot_link/network/dtls/mbedtls/mbedtls-2.16.2/library\x509_crt.c ****     return( 0 );
 6847              		.loc 2 2104 0
 6848 00e0 0023     		movs	r3, #0
2105:C:/Users/dtjld/workspace/AIoT/src/LiteOS_Lab/iot_link/network/dtls/mbedtls/mbedtls-2.16.2/library\x509_crt.c **** }
 6849              		.loc 2 2105 0
 6850 00e2 1846     		mov	r0, r3
 6851 00e4 2837     		adds	r7, r7, #40
 6852              	.LCFI175:
 6853              		.cfi_def_cfa_offset 8
 6854 00e6 BD46     		mov	sp, r7
 6855              	.LCFI176:
 6856              		.cfi_def_cfa_register 13
 6857              		@ sp needed
 6858 00e8 80BD     		pop	{r7, pc}
 6859              		.cfi_endproc
 6860              	.LFE45:
 6862              		.section	.text.x509_crt_find_parent,"ax",%progbits
 6863              		.align	1
 6864              		.syntax unified
 6865              		.thumb
 6866              		.thumb_func
 6867              		.fpu fpv4-sp-d16
 6869              	x509_crt_find_parent:
 6870              	.LFB46:
2106:C:/Users/dtjld/workspace/AIoT/src/LiteOS_Lab/iot_link/network/dtls/mbedtls/mbedtls-2.16.2/library\x509_crt.c **** 
2107:C:/Users/dtjld/workspace/AIoT/src/LiteOS_Lab/iot_link/network/dtls/mbedtls/mbedtls-2.16.2/library\x509_crt.c **** /*
2108:C:/Users/dtjld/workspace/AIoT/src/LiteOS_Lab/iot_link/network/dtls/mbedtls/mbedtls-2.16.2/library\x509_crt.c ****  * Find a parent in trusted CAs or the provided chain, or return NULL.
2109:C:/Users/dtjld/workspace/AIoT/src/LiteOS_Lab/iot_link/network/dtls/mbedtls/mbedtls-2.16.2/library\x509_crt.c ****  *
2110:C:/Users/dtjld/workspace/AIoT/src/LiteOS_Lab/iot_link/network/dtls/mbedtls/mbedtls-2.16.2/library\x509_crt.c ****  * Searches in trusted CAs first, and return the first suitable parent found
2111:C:/Users/dtjld/workspace/AIoT/src/LiteOS_Lab/iot_link/network/dtls/mbedtls/mbedtls-2.16.2/library\x509_crt.c ****  * (see find_parent_in() for definition of suitable).
2112:C:/Users/dtjld/workspace/AIoT/src/LiteOS_Lab/iot_link/network/dtls/mbedtls/mbedtls-2.16.2/library\x509_crt.c ****  *
2113:C:/Users/dtjld/workspace/AIoT/src/LiteOS_Lab/iot_link/network/dtls/mbedtls/mbedtls-2.16.2/library\x509_crt.c ****  * Arguments:
2114:C:/Users/dtjld/workspace/AIoT/src/LiteOS_Lab/iot_link/network/dtls/mbedtls/mbedtls-2.16.2/library\x509_crt.c ****  *  - [in] child: certificate for which we're looking for a parent, followed
2115:C:/Users/dtjld/workspace/AIoT/src/LiteOS_Lab/iot_link/network/dtls/mbedtls/mbedtls-2.16.2/library\x509_crt.c ****  *         by a chain of possible intermediates
2116:C:/Users/dtjld/workspace/AIoT/src/LiteOS_Lab/iot_link/network/dtls/mbedtls/mbedtls-2.16.2/library\x509_crt.c ****  *  - [in] trust_ca: list of locally trusted certificates
2117:C:/Users/dtjld/workspace/AIoT/src/LiteOS_Lab/iot_link/network/dtls/mbedtls/mbedtls-2.16.2/library\x509_crt.c ****  *  - [out] parent: parent found (or NULL)
2118:C:/Users/dtjld/workspace/AIoT/src/LiteOS_Lab/iot_link/network/dtls/mbedtls/mbedtls-2.16.2/library\x509_crt.c ****  *  - [out] parent_is_trusted: 1 if returned `parent` is trusted, or 0
2119:C:/Users/dtjld/workspace/AIoT/src/LiteOS_Lab/iot_link/network/dtls/mbedtls/mbedtls-2.16.2/library\x509_crt.c ****  *  - [out] signature_is_good: 1 if child signature by parent is valid, or 0
2120:C:/Users/dtjld/workspace/AIoT/src/LiteOS_Lab/iot_link/network/dtls/mbedtls/mbedtls-2.16.2/library\x509_crt.c ****  *  - [in] path_cnt: number of links in the chain so far (EE -> ... -> child)
2121:C:/Users/dtjld/workspace/AIoT/src/LiteOS_Lab/iot_link/network/dtls/mbedtls/mbedtls-2.16.2/library\x509_crt.c ****  *  - [in] self_cnt: number of self-signed certs in the chain so far
2122:C:/Users/dtjld/workspace/AIoT/src/LiteOS_Lab/iot_link/network/dtls/mbedtls/mbedtls-2.16.2/library\x509_crt.c ****  *         (will always be no greater than path_cnt)
2123:C:/Users/dtjld/workspace/AIoT/src/LiteOS_Lab/iot_link/network/dtls/mbedtls/mbedtls-2.16.2/library\x509_crt.c ****  *  - [in-out] rs_ctx: context for restarting operations
ARM GAS  C:\Users\dtjld\AppData\Local\Temp\ccTXdst3.s 			page 166


2124:C:/Users/dtjld/workspace/AIoT/src/LiteOS_Lab/iot_link/network/dtls/mbedtls/mbedtls-2.16.2/library\x509_crt.c ****  *
2125:C:/Users/dtjld/workspace/AIoT/src/LiteOS_Lab/iot_link/network/dtls/mbedtls/mbedtls-2.16.2/library\x509_crt.c ****  * Return value:
2126:C:/Users/dtjld/workspace/AIoT/src/LiteOS_Lab/iot_link/network/dtls/mbedtls/mbedtls-2.16.2/library\x509_crt.c ****  *  - 0 on success
2127:C:/Users/dtjld/workspace/AIoT/src/LiteOS_Lab/iot_link/network/dtls/mbedtls/mbedtls-2.16.2/library\x509_crt.c ****  *  - MBEDTLS_ERR_ECP_IN_PROGRESS otherwise
2128:C:/Users/dtjld/workspace/AIoT/src/LiteOS_Lab/iot_link/network/dtls/mbedtls/mbedtls-2.16.2/library\x509_crt.c ****  */
2129:C:/Users/dtjld/workspace/AIoT/src/LiteOS_Lab/iot_link/network/dtls/mbedtls/mbedtls-2.16.2/library\x509_crt.c **** static int x509_crt_find_parent(
2130:C:/Users/dtjld/workspace/AIoT/src/LiteOS_Lab/iot_link/network/dtls/mbedtls/mbedtls-2.16.2/library\x509_crt.c ****                         mbedtls_x509_crt *child,
2131:C:/Users/dtjld/workspace/AIoT/src/LiteOS_Lab/iot_link/network/dtls/mbedtls/mbedtls-2.16.2/library\x509_crt.c ****                         mbedtls_x509_crt *trust_ca,
2132:C:/Users/dtjld/workspace/AIoT/src/LiteOS_Lab/iot_link/network/dtls/mbedtls/mbedtls-2.16.2/library\x509_crt.c ****                         mbedtls_x509_crt **parent,
2133:C:/Users/dtjld/workspace/AIoT/src/LiteOS_Lab/iot_link/network/dtls/mbedtls/mbedtls-2.16.2/library\x509_crt.c ****                         int *parent_is_trusted,
2134:C:/Users/dtjld/workspace/AIoT/src/LiteOS_Lab/iot_link/network/dtls/mbedtls/mbedtls-2.16.2/library\x509_crt.c ****                         int *signature_is_good,
2135:C:/Users/dtjld/workspace/AIoT/src/LiteOS_Lab/iot_link/network/dtls/mbedtls/mbedtls-2.16.2/library\x509_crt.c ****                         unsigned path_cnt,
2136:C:/Users/dtjld/workspace/AIoT/src/LiteOS_Lab/iot_link/network/dtls/mbedtls/mbedtls-2.16.2/library\x509_crt.c ****                         unsigned self_cnt,
2137:C:/Users/dtjld/workspace/AIoT/src/LiteOS_Lab/iot_link/network/dtls/mbedtls/mbedtls-2.16.2/library\x509_crt.c ****                         mbedtls_x509_crt_restart_ctx *rs_ctx )
2138:C:/Users/dtjld/workspace/AIoT/src/LiteOS_Lab/iot_link/network/dtls/mbedtls/mbedtls-2.16.2/library\x509_crt.c **** {
 6871              		.loc 2 2138 0
 6872              		.cfi_startproc
 6873              		@ args = 16, pretend = 0, frame = 24
 6874              		@ frame_needed = 1, uses_anonymous_args = 0
 6875 0000 80B5     		push	{r7, lr}
 6876              	.LCFI177:
 6877              		.cfi_def_cfa_offset 8
 6878              		.cfi_offset 7, -8
 6879              		.cfi_offset 14, -4
 6880 0002 8AB0     		sub	sp, sp, #40
 6881              	.LCFI178:
 6882              		.cfi_def_cfa_offset 48
 6883 0004 04AF     		add	r7, sp, #16
 6884              	.LCFI179:
 6885              		.cfi_def_cfa 7, 32
 6886 0006 F860     		str	r0, [r7, #12]
 6887 0008 B960     		str	r1, [r7, #8]
 6888 000a 7A60     		str	r2, [r7, #4]
 6889 000c 3B60     		str	r3, [r7]
2139:C:/Users/dtjld/workspace/AIoT/src/LiteOS_Lab/iot_link/network/dtls/mbedtls/mbedtls-2.16.2/library\x509_crt.c ****     int ret;
2140:C:/Users/dtjld/workspace/AIoT/src/LiteOS_Lab/iot_link/network/dtls/mbedtls/mbedtls-2.16.2/library\x509_crt.c ****     mbedtls_x509_crt *search_list;
2141:C:/Users/dtjld/workspace/AIoT/src/LiteOS_Lab/iot_link/network/dtls/mbedtls/mbedtls-2.16.2/library\x509_crt.c **** 
2142:C:/Users/dtjld/workspace/AIoT/src/LiteOS_Lab/iot_link/network/dtls/mbedtls/mbedtls-2.16.2/library\x509_crt.c ****     *parent_is_trusted = 1;
 6890              		.loc 2 2142 0
 6891 000e 3B68     		ldr	r3, [r7]
 6892 0010 0122     		movs	r2, #1
 6893 0012 1A60     		str	r2, [r3]
 6894              	.L479:
2143:C:/Users/dtjld/workspace/AIoT/src/LiteOS_Lab/iot_link/network/dtls/mbedtls/mbedtls-2.16.2/library\x509_crt.c **** 
2144:C:/Users/dtjld/workspace/AIoT/src/LiteOS_Lab/iot_link/network/dtls/mbedtls/mbedtls-2.16.2/library\x509_crt.c **** #if defined(MBEDTLS_ECDSA_C) && defined(MBEDTLS_ECP_RESTARTABLE)
2145:C:/Users/dtjld/workspace/AIoT/src/LiteOS_Lab/iot_link/network/dtls/mbedtls/mbedtls-2.16.2/library\x509_crt.c ****     /* restore then clear saved state if we have some stored */
2146:C:/Users/dtjld/workspace/AIoT/src/LiteOS_Lab/iot_link/network/dtls/mbedtls/mbedtls-2.16.2/library\x509_crt.c ****     if( rs_ctx != NULL && rs_ctx->parent_is_trusted != -1 )
2147:C:/Users/dtjld/workspace/AIoT/src/LiteOS_Lab/iot_link/network/dtls/mbedtls/mbedtls-2.16.2/library\x509_crt.c ****     {
2148:C:/Users/dtjld/workspace/AIoT/src/LiteOS_Lab/iot_link/network/dtls/mbedtls/mbedtls-2.16.2/library\x509_crt.c ****         *parent_is_trusted = rs_ctx->parent_is_trusted;
2149:C:/Users/dtjld/workspace/AIoT/src/LiteOS_Lab/iot_link/network/dtls/mbedtls/mbedtls-2.16.2/library\x509_crt.c ****         rs_ctx->parent_is_trusted = -1;
2150:C:/Users/dtjld/workspace/AIoT/src/LiteOS_Lab/iot_link/network/dtls/mbedtls/mbedtls-2.16.2/library\x509_crt.c ****     }
2151:C:/Users/dtjld/workspace/AIoT/src/LiteOS_Lab/iot_link/network/dtls/mbedtls/mbedtls-2.16.2/library\x509_crt.c **** #endif
2152:C:/Users/dtjld/workspace/AIoT/src/LiteOS_Lab/iot_link/network/dtls/mbedtls/mbedtls-2.16.2/library\x509_crt.c **** 
2153:C:/Users/dtjld/workspace/AIoT/src/LiteOS_Lab/iot_link/network/dtls/mbedtls/mbedtls-2.16.2/library\x509_crt.c ****     while( 1 ) {
2154:C:/Users/dtjld/workspace/AIoT/src/LiteOS_Lab/iot_link/network/dtls/mbedtls/mbedtls-2.16.2/library\x509_crt.c ****         search_list = *parent_is_trusted ? trust_ca : child->next;
 6895              		.loc 2 2154 0
 6896 0014 3B68     		ldr	r3, [r7]
ARM GAS  C:\Users\dtjld\AppData\Local\Temp\ccTXdst3.s 			page 167


 6897 0016 1B68     		ldr	r3, [r3]
 6898 0018 002B     		cmp	r3, #0
 6899 001a 03D1     		bne	.L476
 6900              		.loc 2 2154 0 is_stmt 0 discriminator 1
 6901 001c FB68     		ldr	r3, [r7, #12]
 6902 001e D3F83031 		ldr	r3, [r3, #304]
 6903 0022 00E0     		b	.L477
 6904              	.L476:
 6905              		.loc 2 2154 0 discriminator 2
 6906 0024 BB68     		ldr	r3, [r7, #8]
 6907              	.L477:
 6908              		.loc 2 2154 0 discriminator 4
 6909 0026 7B61     		str	r3, [r7, #20]
2155:C:/Users/dtjld/workspace/AIoT/src/LiteOS_Lab/iot_link/network/dtls/mbedtls/mbedtls-2.16.2/library\x509_crt.c **** 
2156:C:/Users/dtjld/workspace/AIoT/src/LiteOS_Lab/iot_link/network/dtls/mbedtls/mbedtls-2.16.2/library\x509_crt.c ****         ret = x509_crt_find_parent_in( child, search_list,
 6910              		.loc 2 2156 0 is_stmt 1 discriminator 4
 6911 0028 3B68     		ldr	r3, [r7]
 6912 002a 1B68     		ldr	r3, [r3]
 6913 002c FA6A     		ldr	r2, [r7, #44]
 6914 002e 0392     		str	r2, [sp, #12]
 6915 0030 BA6A     		ldr	r2, [r7, #40]
 6916 0032 0292     		str	r2, [sp, #8]
 6917 0034 7A6A     		ldr	r2, [r7, #36]
 6918 0036 0192     		str	r2, [sp, #4]
 6919 0038 0093     		str	r3, [sp]
 6920 003a 3B6A     		ldr	r3, [r7, #32]
 6921 003c 7A68     		ldr	r2, [r7, #4]
 6922 003e 7969     		ldr	r1, [r7, #20]
 6923 0040 F868     		ldr	r0, [r7, #12]
 6924 0042 FFF7FEFF 		bl	x509_crt_find_parent_in
 6925 0046 3861     		str	r0, [r7, #16]
2157:C:/Users/dtjld/workspace/AIoT/src/LiteOS_Lab/iot_link/network/dtls/mbedtls/mbedtls-2.16.2/library\x509_crt.c ****                                        parent, signature_is_good,
2158:C:/Users/dtjld/workspace/AIoT/src/LiteOS_Lab/iot_link/network/dtls/mbedtls/mbedtls-2.16.2/library\x509_crt.c ****                                        *parent_is_trusted,
2159:C:/Users/dtjld/workspace/AIoT/src/LiteOS_Lab/iot_link/network/dtls/mbedtls/mbedtls-2.16.2/library\x509_crt.c ****                                        path_cnt, self_cnt, rs_ctx );
2160:C:/Users/dtjld/workspace/AIoT/src/LiteOS_Lab/iot_link/network/dtls/mbedtls/mbedtls-2.16.2/library\x509_crt.c **** 
2161:C:/Users/dtjld/workspace/AIoT/src/LiteOS_Lab/iot_link/network/dtls/mbedtls/mbedtls-2.16.2/library\x509_crt.c **** #if defined(MBEDTLS_ECDSA_C) && defined(MBEDTLS_ECP_RESTARTABLE)
2162:C:/Users/dtjld/workspace/AIoT/src/LiteOS_Lab/iot_link/network/dtls/mbedtls/mbedtls-2.16.2/library\x509_crt.c ****         if( rs_ctx != NULL && ret == MBEDTLS_ERR_ECP_IN_PROGRESS )
2163:C:/Users/dtjld/workspace/AIoT/src/LiteOS_Lab/iot_link/network/dtls/mbedtls/mbedtls-2.16.2/library\x509_crt.c ****         {
2164:C:/Users/dtjld/workspace/AIoT/src/LiteOS_Lab/iot_link/network/dtls/mbedtls/mbedtls-2.16.2/library\x509_crt.c ****             /* save state */
2165:C:/Users/dtjld/workspace/AIoT/src/LiteOS_Lab/iot_link/network/dtls/mbedtls/mbedtls-2.16.2/library\x509_crt.c ****             rs_ctx->parent_is_trusted = *parent_is_trusted;
2166:C:/Users/dtjld/workspace/AIoT/src/LiteOS_Lab/iot_link/network/dtls/mbedtls/mbedtls-2.16.2/library\x509_crt.c ****             return( ret );
2167:C:/Users/dtjld/workspace/AIoT/src/LiteOS_Lab/iot_link/network/dtls/mbedtls/mbedtls-2.16.2/library\x509_crt.c ****         }
2168:C:/Users/dtjld/workspace/AIoT/src/LiteOS_Lab/iot_link/network/dtls/mbedtls/mbedtls-2.16.2/library\x509_crt.c **** #else
2169:C:/Users/dtjld/workspace/AIoT/src/LiteOS_Lab/iot_link/network/dtls/mbedtls/mbedtls-2.16.2/library\x509_crt.c ****         (void) ret;
2170:C:/Users/dtjld/workspace/AIoT/src/LiteOS_Lab/iot_link/network/dtls/mbedtls/mbedtls-2.16.2/library\x509_crt.c **** #endif
2171:C:/Users/dtjld/workspace/AIoT/src/LiteOS_Lab/iot_link/network/dtls/mbedtls/mbedtls-2.16.2/library\x509_crt.c **** 
2172:C:/Users/dtjld/workspace/AIoT/src/LiteOS_Lab/iot_link/network/dtls/mbedtls/mbedtls-2.16.2/library\x509_crt.c ****         /* stop here if found or already in second iteration */
2173:C:/Users/dtjld/workspace/AIoT/src/LiteOS_Lab/iot_link/network/dtls/mbedtls/mbedtls-2.16.2/library\x509_crt.c ****         if( *parent != NULL || *parent_is_trusted == 0 )
 6926              		.loc 2 2173 0 discriminator 4
 6927 0048 7B68     		ldr	r3, [r7, #4]
 6928 004a 1B68     		ldr	r3, [r3]
 6929 004c 002B     		cmp	r3, #0
 6930 004e 07D1     		bne	.L478
 6931              		.loc 2 2173 0 is_stmt 0 discriminator 1
 6932 0050 3B68     		ldr	r3, [r7]
 6933 0052 1B68     		ldr	r3, [r3]
 6934 0054 002B     		cmp	r3, #0
ARM GAS  C:\Users\dtjld\AppData\Local\Temp\ccTXdst3.s 			page 168


 6935 0056 03D0     		beq	.L478
2174:C:/Users/dtjld/workspace/AIoT/src/LiteOS_Lab/iot_link/network/dtls/mbedtls/mbedtls-2.16.2/library\x509_crt.c ****             break;
2175:C:/Users/dtjld/workspace/AIoT/src/LiteOS_Lab/iot_link/network/dtls/mbedtls/mbedtls-2.16.2/library\x509_crt.c **** 
2176:C:/Users/dtjld/workspace/AIoT/src/LiteOS_Lab/iot_link/network/dtls/mbedtls/mbedtls-2.16.2/library\x509_crt.c ****         /* prepare second iteration */
2177:C:/Users/dtjld/workspace/AIoT/src/LiteOS_Lab/iot_link/network/dtls/mbedtls/mbedtls-2.16.2/library\x509_crt.c ****         *parent_is_trusted = 0;
 6936              		.loc 2 2177 0 is_stmt 1
 6937 0058 3B68     		ldr	r3, [r7]
 6938 005a 0022     		movs	r2, #0
 6939 005c 1A60     		str	r2, [r3]
2154:C:/Users/dtjld/workspace/AIoT/src/LiteOS_Lab/iot_link/network/dtls/mbedtls/mbedtls-2.16.2/library\x509_crt.c **** 
 6940              		.loc 2 2154 0
 6941 005e D9E7     		b	.L479
 6942              	.L478:
2178:C:/Users/dtjld/workspace/AIoT/src/LiteOS_Lab/iot_link/network/dtls/mbedtls/mbedtls-2.16.2/library\x509_crt.c ****     }
2179:C:/Users/dtjld/workspace/AIoT/src/LiteOS_Lab/iot_link/network/dtls/mbedtls/mbedtls-2.16.2/library\x509_crt.c **** 
2180:C:/Users/dtjld/workspace/AIoT/src/LiteOS_Lab/iot_link/network/dtls/mbedtls/mbedtls-2.16.2/library\x509_crt.c ****     /* extra precaution against mistakes in the caller */
2181:C:/Users/dtjld/workspace/AIoT/src/LiteOS_Lab/iot_link/network/dtls/mbedtls/mbedtls-2.16.2/library\x509_crt.c ****     if( *parent == NULL )
 6943              		.loc 2 2181 0
 6944 0060 7B68     		ldr	r3, [r7, #4]
 6945 0062 1B68     		ldr	r3, [r3]
 6946 0064 002B     		cmp	r3, #0
 6947 0066 05D1     		bne	.L480
2182:C:/Users/dtjld/workspace/AIoT/src/LiteOS_Lab/iot_link/network/dtls/mbedtls/mbedtls-2.16.2/library\x509_crt.c ****     {
2183:C:/Users/dtjld/workspace/AIoT/src/LiteOS_Lab/iot_link/network/dtls/mbedtls/mbedtls-2.16.2/library\x509_crt.c ****         *parent_is_trusted = 0;
 6948              		.loc 2 2183 0
 6949 0068 3B68     		ldr	r3, [r7]
 6950 006a 0022     		movs	r2, #0
 6951 006c 1A60     		str	r2, [r3]
2184:C:/Users/dtjld/workspace/AIoT/src/LiteOS_Lab/iot_link/network/dtls/mbedtls/mbedtls-2.16.2/library\x509_crt.c ****         *signature_is_good = 0;
 6952              		.loc 2 2184 0
 6953 006e 3B6A     		ldr	r3, [r7, #32]
 6954 0070 0022     		movs	r2, #0
 6955 0072 1A60     		str	r2, [r3]
 6956              	.L480:
2185:C:/Users/dtjld/workspace/AIoT/src/LiteOS_Lab/iot_link/network/dtls/mbedtls/mbedtls-2.16.2/library\x509_crt.c ****     }
2186:C:/Users/dtjld/workspace/AIoT/src/LiteOS_Lab/iot_link/network/dtls/mbedtls/mbedtls-2.16.2/library\x509_crt.c **** 
2187:C:/Users/dtjld/workspace/AIoT/src/LiteOS_Lab/iot_link/network/dtls/mbedtls/mbedtls-2.16.2/library\x509_crt.c ****     return( 0 );
 6957              		.loc 2 2187 0
 6958 0074 0023     		movs	r3, #0
2188:C:/Users/dtjld/workspace/AIoT/src/LiteOS_Lab/iot_link/network/dtls/mbedtls/mbedtls-2.16.2/library\x509_crt.c **** }
 6959              		.loc 2 2188 0
 6960 0076 1846     		mov	r0, r3
 6961 0078 1837     		adds	r7, r7, #24
 6962              	.LCFI180:
 6963              		.cfi_def_cfa_offset 8
 6964 007a BD46     		mov	sp, r7
 6965              	.LCFI181:
 6966              		.cfi_def_cfa_register 13
 6967              		@ sp needed
 6968 007c 80BD     		pop	{r7, pc}
 6969              		.cfi_endproc
 6970              	.LFE46:
 6972              		.section	.text.x509_crt_check_ee_locally_trusted,"ax",%progbits
 6973              		.align	1
 6974              		.syntax unified
 6975              		.thumb
 6976              		.thumb_func
ARM GAS  C:\Users\dtjld\AppData\Local\Temp\ccTXdst3.s 			page 169


 6977              		.fpu fpv4-sp-d16
 6979              	x509_crt_check_ee_locally_trusted:
 6980              	.LFB47:
2189:C:/Users/dtjld/workspace/AIoT/src/LiteOS_Lab/iot_link/network/dtls/mbedtls/mbedtls-2.16.2/library\x509_crt.c **** 
2190:C:/Users/dtjld/workspace/AIoT/src/LiteOS_Lab/iot_link/network/dtls/mbedtls/mbedtls-2.16.2/library\x509_crt.c **** /*
2191:C:/Users/dtjld/workspace/AIoT/src/LiteOS_Lab/iot_link/network/dtls/mbedtls/mbedtls-2.16.2/library\x509_crt.c ****  * Check if an end-entity certificate is locally trusted
2192:C:/Users/dtjld/workspace/AIoT/src/LiteOS_Lab/iot_link/network/dtls/mbedtls/mbedtls-2.16.2/library\x509_crt.c ****  *
2193:C:/Users/dtjld/workspace/AIoT/src/LiteOS_Lab/iot_link/network/dtls/mbedtls/mbedtls-2.16.2/library\x509_crt.c ****  * Currently we require such certificates to be self-signed (actually only
2194:C:/Users/dtjld/workspace/AIoT/src/LiteOS_Lab/iot_link/network/dtls/mbedtls/mbedtls-2.16.2/library\x509_crt.c ****  * check for self-issued as self-signatures are not checked)
2195:C:/Users/dtjld/workspace/AIoT/src/LiteOS_Lab/iot_link/network/dtls/mbedtls/mbedtls-2.16.2/library\x509_crt.c ****  */
2196:C:/Users/dtjld/workspace/AIoT/src/LiteOS_Lab/iot_link/network/dtls/mbedtls/mbedtls-2.16.2/library\x509_crt.c **** static int x509_crt_check_ee_locally_trusted(
2197:C:/Users/dtjld/workspace/AIoT/src/LiteOS_Lab/iot_link/network/dtls/mbedtls/mbedtls-2.16.2/library\x509_crt.c ****                     mbedtls_x509_crt *crt,
2198:C:/Users/dtjld/workspace/AIoT/src/LiteOS_Lab/iot_link/network/dtls/mbedtls/mbedtls-2.16.2/library\x509_crt.c ****                     mbedtls_x509_crt *trust_ca )
2199:C:/Users/dtjld/workspace/AIoT/src/LiteOS_Lab/iot_link/network/dtls/mbedtls/mbedtls-2.16.2/library\x509_crt.c **** {
 6981              		.loc 2 2199 0
 6982              		.cfi_startproc
 6983              		@ args = 0, pretend = 0, frame = 16
 6984              		@ frame_needed = 1, uses_anonymous_args = 0
 6985 0000 80B5     		push	{r7, lr}
 6986              	.LCFI182:
 6987              		.cfi_def_cfa_offset 8
 6988              		.cfi_offset 7, -8
 6989              		.cfi_offset 14, -4
 6990 0002 84B0     		sub	sp, sp, #16
 6991              	.LCFI183:
 6992              		.cfi_def_cfa_offset 24
 6993 0004 00AF     		add	r7, sp, #0
 6994              	.LCFI184:
 6995              		.cfi_def_cfa_register 7
 6996 0006 7860     		str	r0, [r7, #4]
 6997 0008 3960     		str	r1, [r7]
2200:C:/Users/dtjld/workspace/AIoT/src/LiteOS_Lab/iot_link/network/dtls/mbedtls/mbedtls-2.16.2/library\x509_crt.c ****     mbedtls_x509_crt *cur;
2201:C:/Users/dtjld/workspace/AIoT/src/LiteOS_Lab/iot_link/network/dtls/mbedtls/mbedtls-2.16.2/library\x509_crt.c **** 
2202:C:/Users/dtjld/workspace/AIoT/src/LiteOS_Lab/iot_link/network/dtls/mbedtls/mbedtls-2.16.2/library\x509_crt.c ****     /* must be self-issued */
2203:C:/Users/dtjld/workspace/AIoT/src/LiteOS_Lab/iot_link/network/dtls/mbedtls/mbedtls-2.16.2/library\x509_crt.c ****     if( x509_name_cmp( &crt->issuer, &crt->subject ) != 0 )
 6998              		.loc 2 2203 0
 6999 000a 7B68     		ldr	r3, [r7, #4]
 7000 000c 03F14C02 		add	r2, r3, #76
 7001 0010 7B68     		ldr	r3, [r7, #4]
 7002 0012 6C33     		adds	r3, r3, #108
 7003 0014 1946     		mov	r1, r3
 7004 0016 1046     		mov	r0, r2
 7005 0018 FFF7FEFF 		bl	x509_name_cmp
 7006 001c 0346     		mov	r3, r0
 7007 001e 002B     		cmp	r3, #0
 7008 0020 02D0     		beq	.L483
2204:C:/Users/dtjld/workspace/AIoT/src/LiteOS_Lab/iot_link/network/dtls/mbedtls/mbedtls-2.16.2/library\x509_crt.c ****         return( -1 );
 7009              		.loc 2 2204 0
 7010 0022 4FF0FF33 		mov	r3, #-1
 7011 0026 1FE0     		b	.L484
 7012              	.L483:
2205:C:/Users/dtjld/workspace/AIoT/src/LiteOS_Lab/iot_link/network/dtls/mbedtls/mbedtls-2.16.2/library\x509_crt.c **** 
2206:C:/Users/dtjld/workspace/AIoT/src/LiteOS_Lab/iot_link/network/dtls/mbedtls/mbedtls-2.16.2/library\x509_crt.c ****     /* look for an exact match with trusted cert */
2207:C:/Users/dtjld/workspace/AIoT/src/LiteOS_Lab/iot_link/network/dtls/mbedtls/mbedtls-2.16.2/library\x509_crt.c ****     for( cur = trust_ca; cur != NULL; cur = cur->next )
 7013              		.loc 2 2207 0
 7014 0028 3B68     		ldr	r3, [r7]
 7015 002a FB60     		str	r3, [r7, #12]
ARM GAS  C:\Users\dtjld\AppData\Local\Temp\ccTXdst3.s 			page 170


 7016 002c 17E0     		b	.L485
 7017              	.L487:
2208:C:/Users/dtjld/workspace/AIoT/src/LiteOS_Lab/iot_link/network/dtls/mbedtls/mbedtls-2.16.2/library\x509_crt.c ****     {
2209:C:/Users/dtjld/workspace/AIoT/src/LiteOS_Lab/iot_link/network/dtls/mbedtls/mbedtls-2.16.2/library\x509_crt.c ****         if( crt->raw.len == cur->raw.len &&
 7018              		.loc 2 2209 0
 7019 002e 7B68     		ldr	r3, [r7, #4]
 7020 0030 5A68     		ldr	r2, [r3, #4]
 7021 0032 FB68     		ldr	r3, [r7, #12]
 7022 0034 5B68     		ldr	r3, [r3, #4]
 7023 0036 9A42     		cmp	r2, r3
 7024 0038 0DD1     		bne	.L486
2210:C:/Users/dtjld/workspace/AIoT/src/LiteOS_Lab/iot_link/network/dtls/mbedtls/mbedtls-2.16.2/library\x509_crt.c ****             memcmp( crt->raw.p, cur->raw.p, crt->raw.len ) == 0 )
 7025              		.loc 2 2210 0 discriminator 1
 7026 003a 7B68     		ldr	r3, [r7, #4]
 7027 003c 9868     		ldr	r0, [r3, #8]
 7028 003e FB68     		ldr	r3, [r7, #12]
 7029 0040 9968     		ldr	r1, [r3, #8]
 7030 0042 7B68     		ldr	r3, [r7, #4]
 7031 0044 5B68     		ldr	r3, [r3, #4]
 7032 0046 1A46     		mov	r2, r3
 7033 0048 FFF7FEFF 		bl	memcmp
 7034 004c 0346     		mov	r3, r0
2209:C:/Users/dtjld/workspace/AIoT/src/LiteOS_Lab/iot_link/network/dtls/mbedtls/mbedtls-2.16.2/library\x509_crt.c ****             memcmp( crt->raw.p, cur->raw.p, crt->raw.len ) == 0 )
 7035              		.loc 2 2209 0 discriminator 1
 7036 004e 002B     		cmp	r3, #0
 7037 0050 01D1     		bne	.L486
2211:C:/Users/dtjld/workspace/AIoT/src/LiteOS_Lab/iot_link/network/dtls/mbedtls/mbedtls-2.16.2/library\x509_crt.c ****         {
2212:C:/Users/dtjld/workspace/AIoT/src/LiteOS_Lab/iot_link/network/dtls/mbedtls/mbedtls-2.16.2/library\x509_crt.c ****             return( 0 );
 7038              		.loc 2 2212 0
 7039 0052 0023     		movs	r3, #0
 7040 0054 08E0     		b	.L484
 7041              	.L486:
2207:C:/Users/dtjld/workspace/AIoT/src/LiteOS_Lab/iot_link/network/dtls/mbedtls/mbedtls-2.16.2/library\x509_crt.c ****     {
 7042              		.loc 2 2207 0 discriminator 2
 7043 0056 FB68     		ldr	r3, [r7, #12]
 7044 0058 D3F83031 		ldr	r3, [r3, #304]
 7045 005c FB60     		str	r3, [r7, #12]
 7046              	.L485:
2207:C:/Users/dtjld/workspace/AIoT/src/LiteOS_Lab/iot_link/network/dtls/mbedtls/mbedtls-2.16.2/library\x509_crt.c ****     {
 7047              		.loc 2 2207 0 is_stmt 0 discriminator 1
 7048 005e FB68     		ldr	r3, [r7, #12]
 7049 0060 002B     		cmp	r3, #0
 7050 0062 E4D1     		bne	.L487
2213:C:/Users/dtjld/workspace/AIoT/src/LiteOS_Lab/iot_link/network/dtls/mbedtls/mbedtls-2.16.2/library\x509_crt.c ****         }
2214:C:/Users/dtjld/workspace/AIoT/src/LiteOS_Lab/iot_link/network/dtls/mbedtls/mbedtls-2.16.2/library\x509_crt.c ****     }
2215:C:/Users/dtjld/workspace/AIoT/src/LiteOS_Lab/iot_link/network/dtls/mbedtls/mbedtls-2.16.2/library\x509_crt.c **** 
2216:C:/Users/dtjld/workspace/AIoT/src/LiteOS_Lab/iot_link/network/dtls/mbedtls/mbedtls-2.16.2/library\x509_crt.c ****     /* too bad */
2217:C:/Users/dtjld/workspace/AIoT/src/LiteOS_Lab/iot_link/network/dtls/mbedtls/mbedtls-2.16.2/library\x509_crt.c ****     return( -1 );
 7051              		.loc 2 2217 0 is_stmt 1
 7052 0064 4FF0FF33 		mov	r3, #-1
 7053              	.L484:
2218:C:/Users/dtjld/workspace/AIoT/src/LiteOS_Lab/iot_link/network/dtls/mbedtls/mbedtls-2.16.2/library\x509_crt.c **** }
 7054              		.loc 2 2218 0
 7055 0068 1846     		mov	r0, r3
 7056 006a 1037     		adds	r7, r7, #16
 7057              	.LCFI185:
 7058              		.cfi_def_cfa_offset 8
ARM GAS  C:\Users\dtjld\AppData\Local\Temp\ccTXdst3.s 			page 171


 7059 006c BD46     		mov	sp, r7
 7060              	.LCFI186:
 7061              		.cfi_def_cfa_register 13
 7062              		@ sp needed
 7063 006e 80BD     		pop	{r7, pc}
 7064              		.cfi_endproc
 7065              	.LFE47:
 7067              		.section	.text.x509_crt_verify_chain,"ax",%progbits
 7068              		.align	1
 7069              		.syntax unified
 7070              		.thumb
 7071              		.thumb_func
 7072              		.fpu fpv4-sp-d16
 7074              	x509_crt_verify_chain:
 7075              	.LFB48:
2219:C:/Users/dtjld/workspace/AIoT/src/LiteOS_Lab/iot_link/network/dtls/mbedtls/mbedtls-2.16.2/library\x509_crt.c **** 
2220:C:/Users/dtjld/workspace/AIoT/src/LiteOS_Lab/iot_link/network/dtls/mbedtls/mbedtls-2.16.2/library\x509_crt.c **** /*
2221:C:/Users/dtjld/workspace/AIoT/src/LiteOS_Lab/iot_link/network/dtls/mbedtls/mbedtls-2.16.2/library\x509_crt.c ****  * Build and verify a certificate chain
2222:C:/Users/dtjld/workspace/AIoT/src/LiteOS_Lab/iot_link/network/dtls/mbedtls/mbedtls-2.16.2/library\x509_crt.c ****  *
2223:C:/Users/dtjld/workspace/AIoT/src/LiteOS_Lab/iot_link/network/dtls/mbedtls/mbedtls-2.16.2/library\x509_crt.c ****  * Given a peer-provided list of certificates EE, C1, ..., Cn and
2224:C:/Users/dtjld/workspace/AIoT/src/LiteOS_Lab/iot_link/network/dtls/mbedtls/mbedtls-2.16.2/library\x509_crt.c ****  * a list of trusted certs R1, ... Rp, try to build and verify a chain
2225:C:/Users/dtjld/workspace/AIoT/src/LiteOS_Lab/iot_link/network/dtls/mbedtls/mbedtls-2.16.2/library\x509_crt.c ****  *      EE, Ci1, ... Ciq [, Rj]
2226:C:/Users/dtjld/workspace/AIoT/src/LiteOS_Lab/iot_link/network/dtls/mbedtls/mbedtls-2.16.2/library\x509_crt.c ****  * such that every cert in the chain is a child of the next one,
2227:C:/Users/dtjld/workspace/AIoT/src/LiteOS_Lab/iot_link/network/dtls/mbedtls/mbedtls-2.16.2/library\x509_crt.c ****  * jumping to a trusted root as early as possible.
2228:C:/Users/dtjld/workspace/AIoT/src/LiteOS_Lab/iot_link/network/dtls/mbedtls/mbedtls-2.16.2/library\x509_crt.c ****  *
2229:C:/Users/dtjld/workspace/AIoT/src/LiteOS_Lab/iot_link/network/dtls/mbedtls/mbedtls-2.16.2/library\x509_crt.c ****  * Verify that chain and return it with flags for all issues found.
2230:C:/Users/dtjld/workspace/AIoT/src/LiteOS_Lab/iot_link/network/dtls/mbedtls/mbedtls-2.16.2/library\x509_crt.c ****  *
2231:C:/Users/dtjld/workspace/AIoT/src/LiteOS_Lab/iot_link/network/dtls/mbedtls/mbedtls-2.16.2/library\x509_crt.c ****  * Special cases:
2232:C:/Users/dtjld/workspace/AIoT/src/LiteOS_Lab/iot_link/network/dtls/mbedtls/mbedtls-2.16.2/library\x509_crt.c ****  * - EE == Rj -> return a one-element list containing it
2233:C:/Users/dtjld/workspace/AIoT/src/LiteOS_Lab/iot_link/network/dtls/mbedtls/mbedtls-2.16.2/library\x509_crt.c ****  * - EE, Ci1, ..., Ciq cannot be continued with a trusted root
2234:C:/Users/dtjld/workspace/AIoT/src/LiteOS_Lab/iot_link/network/dtls/mbedtls/mbedtls-2.16.2/library\x509_crt.c ****  *   -> return that chain with NOT_TRUSTED set on Ciq
2235:C:/Users/dtjld/workspace/AIoT/src/LiteOS_Lab/iot_link/network/dtls/mbedtls/mbedtls-2.16.2/library\x509_crt.c ****  *
2236:C:/Users/dtjld/workspace/AIoT/src/LiteOS_Lab/iot_link/network/dtls/mbedtls/mbedtls-2.16.2/library\x509_crt.c ****  * Tests for (aspects of) this function should include at least:
2237:C:/Users/dtjld/workspace/AIoT/src/LiteOS_Lab/iot_link/network/dtls/mbedtls/mbedtls-2.16.2/library\x509_crt.c ****  * - trusted EE
2238:C:/Users/dtjld/workspace/AIoT/src/LiteOS_Lab/iot_link/network/dtls/mbedtls/mbedtls-2.16.2/library\x509_crt.c ****  * - EE -> trusted root
2239:C:/Users/dtjld/workspace/AIoT/src/LiteOS_Lab/iot_link/network/dtls/mbedtls/mbedtls-2.16.2/library\x509_crt.c ****  * - EE -> intermedate CA -> trusted root
2240:C:/Users/dtjld/workspace/AIoT/src/LiteOS_Lab/iot_link/network/dtls/mbedtls/mbedtls-2.16.2/library\x509_crt.c ****  * - if relevant: EE untrusted
2241:C:/Users/dtjld/workspace/AIoT/src/LiteOS_Lab/iot_link/network/dtls/mbedtls/mbedtls-2.16.2/library\x509_crt.c ****  * - if relevant: EE -> intermediate, untrusted
2242:C:/Users/dtjld/workspace/AIoT/src/LiteOS_Lab/iot_link/network/dtls/mbedtls/mbedtls-2.16.2/library\x509_crt.c ****  * with the aspect under test checked at each relevant level (EE, int, root).
2243:C:/Users/dtjld/workspace/AIoT/src/LiteOS_Lab/iot_link/network/dtls/mbedtls/mbedtls-2.16.2/library\x509_crt.c ****  * For some aspects longer chains are required, but usually length 2 is
2244:C:/Users/dtjld/workspace/AIoT/src/LiteOS_Lab/iot_link/network/dtls/mbedtls/mbedtls-2.16.2/library\x509_crt.c ****  * enough (but length 1 is not in general).
2245:C:/Users/dtjld/workspace/AIoT/src/LiteOS_Lab/iot_link/network/dtls/mbedtls/mbedtls-2.16.2/library\x509_crt.c ****  *
2246:C:/Users/dtjld/workspace/AIoT/src/LiteOS_Lab/iot_link/network/dtls/mbedtls/mbedtls-2.16.2/library\x509_crt.c ****  * Arguments:
2247:C:/Users/dtjld/workspace/AIoT/src/LiteOS_Lab/iot_link/network/dtls/mbedtls/mbedtls-2.16.2/library\x509_crt.c ****  *  - [in] crt: the cert list EE, C1, ..., Cn
2248:C:/Users/dtjld/workspace/AIoT/src/LiteOS_Lab/iot_link/network/dtls/mbedtls/mbedtls-2.16.2/library\x509_crt.c ****  *  - [in] trust_ca: the trusted list R1, ..., Rp
2249:C:/Users/dtjld/workspace/AIoT/src/LiteOS_Lab/iot_link/network/dtls/mbedtls/mbedtls-2.16.2/library\x509_crt.c ****  *  - [in] ca_crl, profile: as in verify_with_profile()
2250:C:/Users/dtjld/workspace/AIoT/src/LiteOS_Lab/iot_link/network/dtls/mbedtls/mbedtls-2.16.2/library\x509_crt.c ****  *  - [out] ver_chain: the built and verified chain
2251:C:/Users/dtjld/workspace/AIoT/src/LiteOS_Lab/iot_link/network/dtls/mbedtls/mbedtls-2.16.2/library\x509_crt.c ****  *      Only valid when return value is 0, may contain garbage otherwise!
2252:C:/Users/dtjld/workspace/AIoT/src/LiteOS_Lab/iot_link/network/dtls/mbedtls/mbedtls-2.16.2/library\x509_crt.c ****  *      Restart note: need not be the same when calling again to resume.
2253:C:/Users/dtjld/workspace/AIoT/src/LiteOS_Lab/iot_link/network/dtls/mbedtls/mbedtls-2.16.2/library\x509_crt.c ****  *  - [in-out] rs_ctx: context for restarting operations
2254:C:/Users/dtjld/workspace/AIoT/src/LiteOS_Lab/iot_link/network/dtls/mbedtls/mbedtls-2.16.2/library\x509_crt.c ****  *
2255:C:/Users/dtjld/workspace/AIoT/src/LiteOS_Lab/iot_link/network/dtls/mbedtls/mbedtls-2.16.2/library\x509_crt.c ****  * Return value:
2256:C:/Users/dtjld/workspace/AIoT/src/LiteOS_Lab/iot_link/network/dtls/mbedtls/mbedtls-2.16.2/library\x509_crt.c ****  *  - non-zero if the chain could not be fully built and examined
2257:C:/Users/dtjld/workspace/AIoT/src/LiteOS_Lab/iot_link/network/dtls/mbedtls/mbedtls-2.16.2/library\x509_crt.c ****  *  - 0 is the chain was successfully built and examined,
2258:C:/Users/dtjld/workspace/AIoT/src/LiteOS_Lab/iot_link/network/dtls/mbedtls/mbedtls-2.16.2/library\x509_crt.c ****  *      even if it was found to be invalid
2259:C:/Users/dtjld/workspace/AIoT/src/LiteOS_Lab/iot_link/network/dtls/mbedtls/mbedtls-2.16.2/library\x509_crt.c ****  */
2260:C:/Users/dtjld/workspace/AIoT/src/LiteOS_Lab/iot_link/network/dtls/mbedtls/mbedtls-2.16.2/library\x509_crt.c **** static int x509_crt_verify_chain(
ARM GAS  C:\Users\dtjld\AppData\Local\Temp\ccTXdst3.s 			page 172


2261:C:/Users/dtjld/workspace/AIoT/src/LiteOS_Lab/iot_link/network/dtls/mbedtls/mbedtls-2.16.2/library\x509_crt.c ****                 mbedtls_x509_crt *crt,
2262:C:/Users/dtjld/workspace/AIoT/src/LiteOS_Lab/iot_link/network/dtls/mbedtls/mbedtls-2.16.2/library\x509_crt.c ****                 mbedtls_x509_crt *trust_ca,
2263:C:/Users/dtjld/workspace/AIoT/src/LiteOS_Lab/iot_link/network/dtls/mbedtls/mbedtls-2.16.2/library\x509_crt.c ****                 mbedtls_x509_crl *ca_crl,
2264:C:/Users/dtjld/workspace/AIoT/src/LiteOS_Lab/iot_link/network/dtls/mbedtls/mbedtls-2.16.2/library\x509_crt.c ****                 const mbedtls_x509_crt_profile *profile,
2265:C:/Users/dtjld/workspace/AIoT/src/LiteOS_Lab/iot_link/network/dtls/mbedtls/mbedtls-2.16.2/library\x509_crt.c ****                 mbedtls_x509_crt_verify_chain *ver_chain,
2266:C:/Users/dtjld/workspace/AIoT/src/LiteOS_Lab/iot_link/network/dtls/mbedtls/mbedtls-2.16.2/library\x509_crt.c ****                 mbedtls_x509_crt_restart_ctx *rs_ctx )
2267:C:/Users/dtjld/workspace/AIoT/src/LiteOS_Lab/iot_link/network/dtls/mbedtls/mbedtls-2.16.2/library\x509_crt.c **** {
 7076              		.loc 2 2267 0
 7077              		.cfi_startproc
 7078              		@ args = 8, pretend = 0, frame = 56
 7079              		@ frame_needed = 1, uses_anonymous_args = 0
 7080 0000 80B5     		push	{r7, lr}
 7081              	.LCFI187:
 7082              		.cfi_def_cfa_offset 8
 7083              		.cfi_offset 7, -8
 7084              		.cfi_offset 14, -4
 7085 0002 92B0     		sub	sp, sp, #72
 7086              	.LCFI188:
 7087              		.cfi_def_cfa_offset 80
 7088 0004 04AF     		add	r7, sp, #16
 7089              	.LCFI189:
 7090              		.cfi_def_cfa 7, 64
 7091 0006 F860     		str	r0, [r7, #12]
 7092 0008 B960     		str	r1, [r7, #8]
 7093 000a 7A60     		str	r2, [r7, #4]
 7094 000c 3B60     		str	r3, [r7]
2268:C:/Users/dtjld/workspace/AIoT/src/LiteOS_Lab/iot_link/network/dtls/mbedtls/mbedtls-2.16.2/library\x509_crt.c ****     /* Don't initialize any of those variables here, so that the compiler can
2269:C:/Users/dtjld/workspace/AIoT/src/LiteOS_Lab/iot_link/network/dtls/mbedtls/mbedtls-2.16.2/library\x509_crt.c ****      * catch potential issues with jumping ahead when restarting */
2270:C:/Users/dtjld/workspace/AIoT/src/LiteOS_Lab/iot_link/network/dtls/mbedtls/mbedtls-2.16.2/library\x509_crt.c ****     int ret;
2271:C:/Users/dtjld/workspace/AIoT/src/LiteOS_Lab/iot_link/network/dtls/mbedtls/mbedtls-2.16.2/library\x509_crt.c ****     uint32_t *flags;
2272:C:/Users/dtjld/workspace/AIoT/src/LiteOS_Lab/iot_link/network/dtls/mbedtls/mbedtls-2.16.2/library\x509_crt.c ****     mbedtls_x509_crt_verify_chain_item *cur;
2273:C:/Users/dtjld/workspace/AIoT/src/LiteOS_Lab/iot_link/network/dtls/mbedtls/mbedtls-2.16.2/library\x509_crt.c ****     mbedtls_x509_crt *child;
2274:C:/Users/dtjld/workspace/AIoT/src/LiteOS_Lab/iot_link/network/dtls/mbedtls/mbedtls-2.16.2/library\x509_crt.c ****     mbedtls_x509_crt *parent;
2275:C:/Users/dtjld/workspace/AIoT/src/LiteOS_Lab/iot_link/network/dtls/mbedtls/mbedtls-2.16.2/library\x509_crt.c ****     int parent_is_trusted;
2276:C:/Users/dtjld/workspace/AIoT/src/LiteOS_Lab/iot_link/network/dtls/mbedtls/mbedtls-2.16.2/library\x509_crt.c ****     int child_is_trusted;
2277:C:/Users/dtjld/workspace/AIoT/src/LiteOS_Lab/iot_link/network/dtls/mbedtls/mbedtls-2.16.2/library\x509_crt.c ****     int signature_is_good;
2278:C:/Users/dtjld/workspace/AIoT/src/LiteOS_Lab/iot_link/network/dtls/mbedtls/mbedtls-2.16.2/library\x509_crt.c ****     unsigned self_cnt;
2279:C:/Users/dtjld/workspace/AIoT/src/LiteOS_Lab/iot_link/network/dtls/mbedtls/mbedtls-2.16.2/library\x509_crt.c **** 
2280:C:/Users/dtjld/workspace/AIoT/src/LiteOS_Lab/iot_link/network/dtls/mbedtls/mbedtls-2.16.2/library\x509_crt.c **** #if defined(MBEDTLS_ECDSA_C) && defined(MBEDTLS_ECP_RESTARTABLE)
2281:C:/Users/dtjld/workspace/AIoT/src/LiteOS_Lab/iot_link/network/dtls/mbedtls/mbedtls-2.16.2/library\x509_crt.c ****     /* resume if we had an operation in progress */
2282:C:/Users/dtjld/workspace/AIoT/src/LiteOS_Lab/iot_link/network/dtls/mbedtls/mbedtls-2.16.2/library\x509_crt.c ****     if( rs_ctx != NULL && rs_ctx->in_progress == x509_crt_rs_find_parent )
2283:C:/Users/dtjld/workspace/AIoT/src/LiteOS_Lab/iot_link/network/dtls/mbedtls/mbedtls-2.16.2/library\x509_crt.c ****     {
2284:C:/Users/dtjld/workspace/AIoT/src/LiteOS_Lab/iot_link/network/dtls/mbedtls/mbedtls-2.16.2/library\x509_crt.c ****         /* restore saved state */
2285:C:/Users/dtjld/workspace/AIoT/src/LiteOS_Lab/iot_link/network/dtls/mbedtls/mbedtls-2.16.2/library\x509_crt.c ****         *ver_chain = rs_ctx->ver_chain; /* struct copy */
2286:C:/Users/dtjld/workspace/AIoT/src/LiteOS_Lab/iot_link/network/dtls/mbedtls/mbedtls-2.16.2/library\x509_crt.c ****         self_cnt = rs_ctx->self_cnt;
2287:C:/Users/dtjld/workspace/AIoT/src/LiteOS_Lab/iot_link/network/dtls/mbedtls/mbedtls-2.16.2/library\x509_crt.c **** 
2288:C:/Users/dtjld/workspace/AIoT/src/LiteOS_Lab/iot_link/network/dtls/mbedtls/mbedtls-2.16.2/library\x509_crt.c ****         /* restore derived state */
2289:C:/Users/dtjld/workspace/AIoT/src/LiteOS_Lab/iot_link/network/dtls/mbedtls/mbedtls-2.16.2/library\x509_crt.c ****         cur = &ver_chain->items[ver_chain->len - 1];
2290:C:/Users/dtjld/workspace/AIoT/src/LiteOS_Lab/iot_link/network/dtls/mbedtls/mbedtls-2.16.2/library\x509_crt.c ****         child = cur->crt;
2291:C:/Users/dtjld/workspace/AIoT/src/LiteOS_Lab/iot_link/network/dtls/mbedtls/mbedtls-2.16.2/library\x509_crt.c ****         flags = &cur->flags;
2292:C:/Users/dtjld/workspace/AIoT/src/LiteOS_Lab/iot_link/network/dtls/mbedtls/mbedtls-2.16.2/library\x509_crt.c **** 
2293:C:/Users/dtjld/workspace/AIoT/src/LiteOS_Lab/iot_link/network/dtls/mbedtls/mbedtls-2.16.2/library\x509_crt.c ****         goto find_parent;
2294:C:/Users/dtjld/workspace/AIoT/src/LiteOS_Lab/iot_link/network/dtls/mbedtls/mbedtls-2.16.2/library\x509_crt.c ****     }
2295:C:/Users/dtjld/workspace/AIoT/src/LiteOS_Lab/iot_link/network/dtls/mbedtls/mbedtls-2.16.2/library\x509_crt.c **** #endif /* MBEDTLS_ECDSA_C && MBEDTLS_ECP_RESTARTABLE */
2296:C:/Users/dtjld/workspace/AIoT/src/LiteOS_Lab/iot_link/network/dtls/mbedtls/mbedtls-2.16.2/library\x509_crt.c **** 
2297:C:/Users/dtjld/workspace/AIoT/src/LiteOS_Lab/iot_link/network/dtls/mbedtls/mbedtls-2.16.2/library\x509_crt.c ****     child = crt;
 7095              		.loc 2 2297 0
ARM GAS  C:\Users\dtjld\AppData\Local\Temp\ccTXdst3.s 			page 173


 7096 000e FB68     		ldr	r3, [r7, #12]
 7097 0010 7B63     		str	r3, [r7, #52]
2298:C:/Users/dtjld/workspace/AIoT/src/LiteOS_Lab/iot_link/network/dtls/mbedtls/mbedtls-2.16.2/library\x509_crt.c ****     self_cnt = 0;
 7098              		.loc 2 2298 0
 7099 0012 0023     		movs	r3, #0
 7100 0014 FB62     		str	r3, [r7, #44]
2299:C:/Users/dtjld/workspace/AIoT/src/LiteOS_Lab/iot_link/network/dtls/mbedtls/mbedtls-2.16.2/library\x509_crt.c ****     parent_is_trusted = 0;
 7101              		.loc 2 2299 0
 7102 0016 0023     		movs	r3, #0
 7103 0018 BB61     		str	r3, [r7, #24]
2300:C:/Users/dtjld/workspace/AIoT/src/LiteOS_Lab/iot_link/network/dtls/mbedtls/mbedtls-2.16.2/library\x509_crt.c ****     child_is_trusted = 0;
 7104              		.loc 2 2300 0
 7105 001a 0023     		movs	r3, #0
 7106 001c 3B63     		str	r3, [r7, #48]
 7107              	.L501:
2301:C:/Users/dtjld/workspace/AIoT/src/LiteOS_Lab/iot_link/network/dtls/mbedtls/mbedtls-2.16.2/library\x509_crt.c **** 
2302:C:/Users/dtjld/workspace/AIoT/src/LiteOS_Lab/iot_link/network/dtls/mbedtls/mbedtls-2.16.2/library\x509_crt.c ****     while( 1 ) {
2303:C:/Users/dtjld/workspace/AIoT/src/LiteOS_Lab/iot_link/network/dtls/mbedtls/mbedtls-2.16.2/library\x509_crt.c ****         /* Add certificate to the verification chain */
2304:C:/Users/dtjld/workspace/AIoT/src/LiteOS_Lab/iot_link/network/dtls/mbedtls/mbedtls-2.16.2/library\x509_crt.c ****         cur = &ver_chain->items[ver_chain->len];
 7108              		.loc 2 2304 0
 7109 001e 3B6C     		ldr	r3, [r7, #64]
 7110 0020 1B6D     		ldr	r3, [r3, #80]
 7111 0022 DB00     		lsls	r3, r3, #3
 7112 0024 3A6C     		ldr	r2, [r7, #64]
 7113 0026 1344     		add	r3, r3, r2
 7114 0028 BB62     		str	r3, [r7, #40]
2305:C:/Users/dtjld/workspace/AIoT/src/LiteOS_Lab/iot_link/network/dtls/mbedtls/mbedtls-2.16.2/library\x509_crt.c ****         cur->crt = child;
 7115              		.loc 2 2305 0
 7116 002a BB6A     		ldr	r3, [r7, #40]
 7117 002c 7A6B     		ldr	r2, [r7, #52]
 7118 002e 1A60     		str	r2, [r3]
2306:C:/Users/dtjld/workspace/AIoT/src/LiteOS_Lab/iot_link/network/dtls/mbedtls/mbedtls-2.16.2/library\x509_crt.c ****         cur->flags = 0;
 7119              		.loc 2 2306 0
 7120 0030 BB6A     		ldr	r3, [r7, #40]
 7121 0032 0022     		movs	r2, #0
 7122 0034 5A60     		str	r2, [r3, #4]
2307:C:/Users/dtjld/workspace/AIoT/src/LiteOS_Lab/iot_link/network/dtls/mbedtls/mbedtls-2.16.2/library\x509_crt.c ****         ver_chain->len++;
 7123              		.loc 2 2307 0
 7124 0036 3B6C     		ldr	r3, [r7, #64]
 7125 0038 1B6D     		ldr	r3, [r3, #80]
 7126 003a 5A1C     		adds	r2, r3, #1
 7127 003c 3B6C     		ldr	r3, [r7, #64]
 7128 003e 1A65     		str	r2, [r3, #80]
2308:C:/Users/dtjld/workspace/AIoT/src/LiteOS_Lab/iot_link/network/dtls/mbedtls/mbedtls-2.16.2/library\x509_crt.c ****         flags = &cur->flags;
 7129              		.loc 2 2308 0
 7130 0040 BB6A     		ldr	r3, [r7, #40]
 7131 0042 0433     		adds	r3, r3, #4
 7132 0044 7B62     		str	r3, [r7, #36]
2309:C:/Users/dtjld/workspace/AIoT/src/LiteOS_Lab/iot_link/network/dtls/mbedtls/mbedtls-2.16.2/library\x509_crt.c **** 
2310:C:/Users/dtjld/workspace/AIoT/src/LiteOS_Lab/iot_link/network/dtls/mbedtls/mbedtls-2.16.2/library\x509_crt.c ****         /* Check time-validity (all certificates) */
2311:C:/Users/dtjld/workspace/AIoT/src/LiteOS_Lab/iot_link/network/dtls/mbedtls/mbedtls-2.16.2/library\x509_crt.c ****         if( mbedtls_x509_time_is_past( &child->valid_to ) )
 7133              		.loc 2 2311 0
 7134 0046 7B6B     		ldr	r3, [r7, #52]
 7135 0048 A433     		adds	r3, r3, #164
 7136 004a 1846     		mov	r0, r3
 7137 004c FFF7FEFF 		bl	mbedtls_x509_time_is_past
 7138 0050 0346     		mov	r3, r0
ARM GAS  C:\Users\dtjld\AppData\Local\Temp\ccTXdst3.s 			page 174


 7139 0052 002B     		cmp	r3, #0
 7140 0054 05D0     		beq	.L489
2312:C:/Users/dtjld/workspace/AIoT/src/LiteOS_Lab/iot_link/network/dtls/mbedtls/mbedtls-2.16.2/library\x509_crt.c ****             *flags |= MBEDTLS_X509_BADCERT_EXPIRED;
 7141              		.loc 2 2312 0
 7142 0056 7B6A     		ldr	r3, [r7, #36]
 7143 0058 1B68     		ldr	r3, [r3]
 7144 005a 43F00102 		orr	r2, r3, #1
 7145 005e 7B6A     		ldr	r3, [r7, #36]
 7146 0060 1A60     		str	r2, [r3]
 7147              	.L489:
2313:C:/Users/dtjld/workspace/AIoT/src/LiteOS_Lab/iot_link/network/dtls/mbedtls/mbedtls-2.16.2/library\x509_crt.c **** 
2314:C:/Users/dtjld/workspace/AIoT/src/LiteOS_Lab/iot_link/network/dtls/mbedtls/mbedtls-2.16.2/library\x509_crt.c ****         if( mbedtls_x509_time_is_future( &child->valid_from ) )
 7148              		.loc 2 2314 0
 7149 0062 7B6B     		ldr	r3, [r7, #52]
 7150 0064 8C33     		adds	r3, r3, #140
 7151 0066 1846     		mov	r0, r3
 7152 0068 FFF7FEFF 		bl	mbedtls_x509_time_is_future
 7153 006c 0346     		mov	r3, r0
 7154 006e 002B     		cmp	r3, #0
 7155 0070 05D0     		beq	.L490
2315:C:/Users/dtjld/workspace/AIoT/src/LiteOS_Lab/iot_link/network/dtls/mbedtls/mbedtls-2.16.2/library\x509_crt.c ****             *flags |= MBEDTLS_X509_BADCERT_FUTURE;
 7156              		.loc 2 2315 0
 7157 0072 7B6A     		ldr	r3, [r7, #36]
 7158 0074 1B68     		ldr	r3, [r3]
 7159 0076 43F40072 		orr	r2, r3, #512
 7160 007a 7B6A     		ldr	r3, [r7, #36]
 7161 007c 1A60     		str	r2, [r3]
 7162              	.L490:
2316:C:/Users/dtjld/workspace/AIoT/src/LiteOS_Lab/iot_link/network/dtls/mbedtls/mbedtls-2.16.2/library\x509_crt.c **** 
2317:C:/Users/dtjld/workspace/AIoT/src/LiteOS_Lab/iot_link/network/dtls/mbedtls/mbedtls-2.16.2/library\x509_crt.c ****         /* Stop here for trusted roots (but not for trusted EE certs) */
2318:C:/Users/dtjld/workspace/AIoT/src/LiteOS_Lab/iot_link/network/dtls/mbedtls/mbedtls-2.16.2/library\x509_crt.c ****         if( child_is_trusted )
 7163              		.loc 2 2318 0
 7164 007e 3B6B     		ldr	r3, [r7, #48]
 7165 0080 002B     		cmp	r3, #0
 7166 0082 01D0     		beq	.L491
2319:C:/Users/dtjld/workspace/AIoT/src/LiteOS_Lab/iot_link/network/dtls/mbedtls/mbedtls-2.16.2/library\x509_crt.c ****             return( 0 );
 7167              		.loc 2 2319 0
 7168 0084 0023     		movs	r3, #0
 7169 0086 96E0     		b	.L502
 7170              	.L491:
2320:C:/Users/dtjld/workspace/AIoT/src/LiteOS_Lab/iot_link/network/dtls/mbedtls/mbedtls-2.16.2/library\x509_crt.c **** 
2321:C:/Users/dtjld/workspace/AIoT/src/LiteOS_Lab/iot_link/network/dtls/mbedtls/mbedtls-2.16.2/library\x509_crt.c ****         /* Check signature algorithm: MD & PK algs */
2322:C:/Users/dtjld/workspace/AIoT/src/LiteOS_Lab/iot_link/network/dtls/mbedtls/mbedtls-2.16.2/library\x509_crt.c ****         if( x509_profile_check_md_alg( profile, child->sig_md ) != 0 )
 7171              		.loc 2 2322 0
 7172 0088 7B6B     		ldr	r3, [r7, #52]
 7173 008a 93F82831 		ldrb	r3, [r3, #296]	@ zero_extendqisi2
 7174 008e 1946     		mov	r1, r3
 7175 0090 3868     		ldr	r0, [r7]
 7176 0092 FFF7FEFF 		bl	x509_profile_check_md_alg
 7177 0096 0346     		mov	r3, r0
 7178 0098 002B     		cmp	r3, #0
 7179 009a 05D0     		beq	.L493
2323:C:/Users/dtjld/workspace/AIoT/src/LiteOS_Lab/iot_link/network/dtls/mbedtls/mbedtls-2.16.2/library\x509_crt.c ****             *flags |= MBEDTLS_X509_BADCERT_BAD_MD;
 7180              		.loc 2 2323 0
 7181 009c 7B6A     		ldr	r3, [r7, #36]
 7182 009e 1B68     		ldr	r3, [r3]
 7183 00a0 43F48042 		orr	r2, r3, #16384
ARM GAS  C:\Users\dtjld\AppData\Local\Temp\ccTXdst3.s 			page 175


 7184 00a4 7B6A     		ldr	r3, [r7, #36]
 7185 00a6 1A60     		str	r2, [r3]
 7186              	.L493:
2324:C:/Users/dtjld/workspace/AIoT/src/LiteOS_Lab/iot_link/network/dtls/mbedtls/mbedtls-2.16.2/library\x509_crt.c **** 
2325:C:/Users/dtjld/workspace/AIoT/src/LiteOS_Lab/iot_link/network/dtls/mbedtls/mbedtls-2.16.2/library\x509_crt.c ****         if( x509_profile_check_pk_alg( profile, child->sig_pk ) != 0 )
 7187              		.loc 2 2325 0
 7188 00a8 7B6B     		ldr	r3, [r7, #52]
 7189 00aa 93F82931 		ldrb	r3, [r3, #297]	@ zero_extendqisi2
 7190 00ae 1946     		mov	r1, r3
 7191 00b0 3868     		ldr	r0, [r7]
 7192 00b2 FFF7FEFF 		bl	x509_profile_check_pk_alg
 7193 00b6 0346     		mov	r3, r0
 7194 00b8 002B     		cmp	r3, #0
 7195 00ba 05D0     		beq	.L494
2326:C:/Users/dtjld/workspace/AIoT/src/LiteOS_Lab/iot_link/network/dtls/mbedtls/mbedtls-2.16.2/library\x509_crt.c ****             *flags |= MBEDTLS_X509_BADCERT_BAD_PK;
 7196              		.loc 2 2326 0
 7197 00bc 7B6A     		ldr	r3, [r7, #36]
 7198 00be 1B68     		ldr	r3, [r3]
 7199 00c0 43F40042 		orr	r2, r3, #32768
 7200 00c4 7B6A     		ldr	r3, [r7, #36]
 7201 00c6 1A60     		str	r2, [r3]
 7202              	.L494:
2327:C:/Users/dtjld/workspace/AIoT/src/LiteOS_Lab/iot_link/network/dtls/mbedtls/mbedtls-2.16.2/library\x509_crt.c **** 
2328:C:/Users/dtjld/workspace/AIoT/src/LiteOS_Lab/iot_link/network/dtls/mbedtls/mbedtls-2.16.2/library\x509_crt.c ****         /* Special case: EE certs that are locally trusted */
2329:C:/Users/dtjld/workspace/AIoT/src/LiteOS_Lab/iot_link/network/dtls/mbedtls/mbedtls-2.16.2/library\x509_crt.c ****         if( ver_chain->len == 1 &&
 7203              		.loc 2 2329 0
 7204 00c8 3B6C     		ldr	r3, [r7, #64]
 7205 00ca 1B6D     		ldr	r3, [r3, #80]
 7206 00cc 012B     		cmp	r3, #1
 7207 00ce 08D1     		bne	.L495
2330:C:/Users/dtjld/workspace/AIoT/src/LiteOS_Lab/iot_link/network/dtls/mbedtls/mbedtls-2.16.2/library\x509_crt.c ****             x509_crt_check_ee_locally_trusted( child, trust_ca ) == 0 )
 7208              		.loc 2 2330 0 discriminator 1
 7209 00d0 B968     		ldr	r1, [r7, #8]
 7210 00d2 786B     		ldr	r0, [r7, #52]
 7211 00d4 FFF7FEFF 		bl	x509_crt_check_ee_locally_trusted
 7212 00d8 0346     		mov	r3, r0
2329:C:/Users/dtjld/workspace/AIoT/src/LiteOS_Lab/iot_link/network/dtls/mbedtls/mbedtls-2.16.2/library\x509_crt.c ****             x509_crt_check_ee_locally_trusted( child, trust_ca ) == 0 )
 7213              		.loc 2 2329 0 discriminator 1
 7214 00da 002B     		cmp	r3, #0
 7215 00dc 01D1     		bne	.L495
2331:C:/Users/dtjld/workspace/AIoT/src/LiteOS_Lab/iot_link/network/dtls/mbedtls/mbedtls-2.16.2/library\x509_crt.c ****         {
2332:C:/Users/dtjld/workspace/AIoT/src/LiteOS_Lab/iot_link/network/dtls/mbedtls/mbedtls-2.16.2/library\x509_crt.c ****             return( 0 );
 7216              		.loc 2 2332 0
 7217 00de 0023     		movs	r3, #0
 7218 00e0 69E0     		b	.L502
 7219              	.L495:
2333:C:/Users/dtjld/workspace/AIoT/src/LiteOS_Lab/iot_link/network/dtls/mbedtls/mbedtls-2.16.2/library\x509_crt.c ****         }
2334:C:/Users/dtjld/workspace/AIoT/src/LiteOS_Lab/iot_link/network/dtls/mbedtls/mbedtls-2.16.2/library\x509_crt.c **** 
2335:C:/Users/dtjld/workspace/AIoT/src/LiteOS_Lab/iot_link/network/dtls/mbedtls/mbedtls-2.16.2/library\x509_crt.c **** #if defined(MBEDTLS_ECDSA_C) && defined(MBEDTLS_ECP_RESTARTABLE)
2336:C:/Users/dtjld/workspace/AIoT/src/LiteOS_Lab/iot_link/network/dtls/mbedtls/mbedtls-2.16.2/library\x509_crt.c **** find_parent:
2337:C:/Users/dtjld/workspace/AIoT/src/LiteOS_Lab/iot_link/network/dtls/mbedtls/mbedtls-2.16.2/library\x509_crt.c **** #endif
2338:C:/Users/dtjld/workspace/AIoT/src/LiteOS_Lab/iot_link/network/dtls/mbedtls/mbedtls-2.16.2/library\x509_crt.c ****         /* Look for a parent in trusted CAs or up the chain */
2339:C:/Users/dtjld/workspace/AIoT/src/LiteOS_Lab/iot_link/network/dtls/mbedtls/mbedtls-2.16.2/library\x509_crt.c ****         ret = x509_crt_find_parent( child, trust_ca, &parent,
2340:C:/Users/dtjld/workspace/AIoT/src/LiteOS_Lab/iot_link/network/dtls/mbedtls/mbedtls-2.16.2/library\x509_crt.c ****                                        &parent_is_trusted, &signature_is_good,
2341:C:/Users/dtjld/workspace/AIoT/src/LiteOS_Lab/iot_link/network/dtls/mbedtls/mbedtls-2.16.2/library\x509_crt.c ****                                        ver_chain->len - 1, self_cnt, rs_ctx );
 7220              		.loc 2 2341 0
 7221 00e2 3B6C     		ldr	r3, [r7, #64]
ARM GAS  C:\Users\dtjld\AppData\Local\Temp\ccTXdst3.s 			page 176


 7222 00e4 1B6D     		ldr	r3, [r3, #80]
2339:C:/Users/dtjld/workspace/AIoT/src/LiteOS_Lab/iot_link/network/dtls/mbedtls/mbedtls-2.16.2/library\x509_crt.c ****                                        &parent_is_trusted, &signature_is_good,
 7223              		.loc 2 2339 0
 7224 00e6 013B     		subs	r3, r3, #1
 7225 00e8 07F11800 		add	r0, r7, #24
 7226 00ec 07F11C01 		add	r1, r7, #28
 7227 00f0 7A6C     		ldr	r2, [r7, #68]
 7228 00f2 0392     		str	r2, [sp, #12]
 7229 00f4 FA6A     		ldr	r2, [r7, #44]
 7230 00f6 0292     		str	r2, [sp, #8]
 7231 00f8 0193     		str	r3, [sp, #4]
 7232 00fa 07F11403 		add	r3, r7, #20
 7233 00fe 0093     		str	r3, [sp]
 7234 0100 0346     		mov	r3, r0
 7235 0102 0A46     		mov	r2, r1
 7236 0104 B968     		ldr	r1, [r7, #8]
 7237 0106 786B     		ldr	r0, [r7, #52]
 7238 0108 FFF7FEFF 		bl	x509_crt_find_parent
 7239 010c 3862     		str	r0, [r7, #32]
2342:C:/Users/dtjld/workspace/AIoT/src/LiteOS_Lab/iot_link/network/dtls/mbedtls/mbedtls-2.16.2/library\x509_crt.c **** 
2343:C:/Users/dtjld/workspace/AIoT/src/LiteOS_Lab/iot_link/network/dtls/mbedtls/mbedtls-2.16.2/library\x509_crt.c **** #if defined(MBEDTLS_ECDSA_C) && defined(MBEDTLS_ECP_RESTARTABLE)
2344:C:/Users/dtjld/workspace/AIoT/src/LiteOS_Lab/iot_link/network/dtls/mbedtls/mbedtls-2.16.2/library\x509_crt.c ****         if( rs_ctx != NULL && ret == MBEDTLS_ERR_ECP_IN_PROGRESS )
2345:C:/Users/dtjld/workspace/AIoT/src/LiteOS_Lab/iot_link/network/dtls/mbedtls/mbedtls-2.16.2/library\x509_crt.c ****         {
2346:C:/Users/dtjld/workspace/AIoT/src/LiteOS_Lab/iot_link/network/dtls/mbedtls/mbedtls-2.16.2/library\x509_crt.c ****             /* save state */
2347:C:/Users/dtjld/workspace/AIoT/src/LiteOS_Lab/iot_link/network/dtls/mbedtls/mbedtls-2.16.2/library\x509_crt.c ****             rs_ctx->in_progress = x509_crt_rs_find_parent;
2348:C:/Users/dtjld/workspace/AIoT/src/LiteOS_Lab/iot_link/network/dtls/mbedtls/mbedtls-2.16.2/library\x509_crt.c ****             rs_ctx->self_cnt = self_cnt;
2349:C:/Users/dtjld/workspace/AIoT/src/LiteOS_Lab/iot_link/network/dtls/mbedtls/mbedtls-2.16.2/library\x509_crt.c ****             rs_ctx->ver_chain = *ver_chain; /* struct copy */
2350:C:/Users/dtjld/workspace/AIoT/src/LiteOS_Lab/iot_link/network/dtls/mbedtls/mbedtls-2.16.2/library\x509_crt.c **** 
2351:C:/Users/dtjld/workspace/AIoT/src/LiteOS_Lab/iot_link/network/dtls/mbedtls/mbedtls-2.16.2/library\x509_crt.c ****             return( ret );
2352:C:/Users/dtjld/workspace/AIoT/src/LiteOS_Lab/iot_link/network/dtls/mbedtls/mbedtls-2.16.2/library\x509_crt.c ****         }
2353:C:/Users/dtjld/workspace/AIoT/src/LiteOS_Lab/iot_link/network/dtls/mbedtls/mbedtls-2.16.2/library\x509_crt.c **** #else
2354:C:/Users/dtjld/workspace/AIoT/src/LiteOS_Lab/iot_link/network/dtls/mbedtls/mbedtls-2.16.2/library\x509_crt.c ****         (void) ret;
2355:C:/Users/dtjld/workspace/AIoT/src/LiteOS_Lab/iot_link/network/dtls/mbedtls/mbedtls-2.16.2/library\x509_crt.c **** #endif
2356:C:/Users/dtjld/workspace/AIoT/src/LiteOS_Lab/iot_link/network/dtls/mbedtls/mbedtls-2.16.2/library\x509_crt.c **** 
2357:C:/Users/dtjld/workspace/AIoT/src/LiteOS_Lab/iot_link/network/dtls/mbedtls/mbedtls-2.16.2/library\x509_crt.c ****         /* No parent? We're done here */
2358:C:/Users/dtjld/workspace/AIoT/src/LiteOS_Lab/iot_link/network/dtls/mbedtls/mbedtls-2.16.2/library\x509_crt.c ****         if( parent == NULL )
 7240              		.loc 2 2358 0
 7241 010e FB69     		ldr	r3, [r7, #28]
 7242 0110 002B     		cmp	r3, #0
 7243 0112 07D1     		bne	.L496
2359:C:/Users/dtjld/workspace/AIoT/src/LiteOS_Lab/iot_link/network/dtls/mbedtls/mbedtls-2.16.2/library\x509_crt.c ****         {
2360:C:/Users/dtjld/workspace/AIoT/src/LiteOS_Lab/iot_link/network/dtls/mbedtls/mbedtls-2.16.2/library\x509_crt.c ****             *flags |= MBEDTLS_X509_BADCERT_NOT_TRUSTED;
 7244              		.loc 2 2360 0
 7245 0114 7B6A     		ldr	r3, [r7, #36]
 7246 0116 1B68     		ldr	r3, [r3]
 7247 0118 43F00802 		orr	r2, r3, #8
 7248 011c 7B6A     		ldr	r3, [r7, #36]
 7249 011e 1A60     		str	r2, [r3]
2361:C:/Users/dtjld/workspace/AIoT/src/LiteOS_Lab/iot_link/network/dtls/mbedtls/mbedtls-2.16.2/library\x509_crt.c ****             return( 0 );
 7250              		.loc 2 2361 0
 7251 0120 0023     		movs	r3, #0
 7252 0122 48E0     		b	.L502
 7253              	.L496:
2362:C:/Users/dtjld/workspace/AIoT/src/LiteOS_Lab/iot_link/network/dtls/mbedtls/mbedtls-2.16.2/library\x509_crt.c ****         }
2363:C:/Users/dtjld/workspace/AIoT/src/LiteOS_Lab/iot_link/network/dtls/mbedtls/mbedtls-2.16.2/library\x509_crt.c **** 
2364:C:/Users/dtjld/workspace/AIoT/src/LiteOS_Lab/iot_link/network/dtls/mbedtls/mbedtls-2.16.2/library\x509_crt.c ****         /* Count intermediate self-issued (not necessarily self-signed) certs.
2365:C:/Users/dtjld/workspace/AIoT/src/LiteOS_Lab/iot_link/network/dtls/mbedtls/mbedtls-2.16.2/library\x509_crt.c ****          * These can occur with some strategies for key rollover, see [SIRO],
ARM GAS  C:\Users\dtjld\AppData\Local\Temp\ccTXdst3.s 			page 177


2366:C:/Users/dtjld/workspace/AIoT/src/LiteOS_Lab/iot_link/network/dtls/mbedtls/mbedtls-2.16.2/library\x509_crt.c ****          * and should be excluded from max_pathlen checks. */
2367:C:/Users/dtjld/workspace/AIoT/src/LiteOS_Lab/iot_link/network/dtls/mbedtls/mbedtls-2.16.2/library\x509_crt.c ****         if( ver_chain->len != 1 &&
 7254              		.loc 2 2367 0
 7255 0124 3B6C     		ldr	r3, [r7, #64]
 7256 0126 1B6D     		ldr	r3, [r3, #80]
 7257 0128 012B     		cmp	r3, #1
 7258 012a 0ED0     		beq	.L497
2368:C:/Users/dtjld/workspace/AIoT/src/LiteOS_Lab/iot_link/network/dtls/mbedtls/mbedtls-2.16.2/library\x509_crt.c ****             x509_name_cmp( &child->issuer, &child->subject ) == 0 )
 7259              		.loc 2 2368 0 discriminator 1
 7260 012c 7B6B     		ldr	r3, [r7, #52]
 7261 012e 03F14C02 		add	r2, r3, #76
 7262 0132 7B6B     		ldr	r3, [r7, #52]
 7263 0134 6C33     		adds	r3, r3, #108
 7264 0136 1946     		mov	r1, r3
 7265 0138 1046     		mov	r0, r2
 7266 013a FFF7FEFF 		bl	x509_name_cmp
 7267 013e 0346     		mov	r3, r0
2367:C:/Users/dtjld/workspace/AIoT/src/LiteOS_Lab/iot_link/network/dtls/mbedtls/mbedtls-2.16.2/library\x509_crt.c ****             x509_name_cmp( &child->issuer, &child->subject ) == 0 )
 7268              		.loc 2 2367 0 discriminator 1
 7269 0140 002B     		cmp	r3, #0
 7270 0142 02D1     		bne	.L497
2369:C:/Users/dtjld/workspace/AIoT/src/LiteOS_Lab/iot_link/network/dtls/mbedtls/mbedtls-2.16.2/library\x509_crt.c ****         {
2370:C:/Users/dtjld/workspace/AIoT/src/LiteOS_Lab/iot_link/network/dtls/mbedtls/mbedtls-2.16.2/library\x509_crt.c ****             self_cnt++;
 7271              		.loc 2 2370 0
 7272 0144 FB6A     		ldr	r3, [r7, #44]
 7273 0146 0133     		adds	r3, r3, #1
 7274 0148 FB62     		str	r3, [r7, #44]
 7275              	.L497:
2371:C:/Users/dtjld/workspace/AIoT/src/LiteOS_Lab/iot_link/network/dtls/mbedtls/mbedtls-2.16.2/library\x509_crt.c ****         }
2372:C:/Users/dtjld/workspace/AIoT/src/LiteOS_Lab/iot_link/network/dtls/mbedtls/mbedtls-2.16.2/library\x509_crt.c **** 
2373:C:/Users/dtjld/workspace/AIoT/src/LiteOS_Lab/iot_link/network/dtls/mbedtls/mbedtls-2.16.2/library\x509_crt.c ****         /* path_cnt is 0 for the first intermediate CA,
2374:C:/Users/dtjld/workspace/AIoT/src/LiteOS_Lab/iot_link/network/dtls/mbedtls/mbedtls-2.16.2/library\x509_crt.c ****          * and if parent is trusted it's not an intermediate CA */
2375:C:/Users/dtjld/workspace/AIoT/src/LiteOS_Lab/iot_link/network/dtls/mbedtls/mbedtls-2.16.2/library\x509_crt.c ****         if( ! parent_is_trusted &&
 7276              		.loc 2 2375 0
 7277 014a BB69     		ldr	r3, [r7, #24]
 7278 014c 002B     		cmp	r3, #0
 7279 014e 05D1     		bne	.L498
2376:C:/Users/dtjld/workspace/AIoT/src/LiteOS_Lab/iot_link/network/dtls/mbedtls/mbedtls-2.16.2/library\x509_crt.c ****             ver_chain->len > MBEDTLS_X509_MAX_INTERMEDIATE_CA )
 7280              		.loc 2 2376 0 discriminator 1
 7281 0150 3B6C     		ldr	r3, [r7, #64]
 7282 0152 1B6D     		ldr	r3, [r3, #80]
2375:C:/Users/dtjld/workspace/AIoT/src/LiteOS_Lab/iot_link/network/dtls/mbedtls/mbedtls-2.16.2/library\x509_crt.c ****             ver_chain->len > MBEDTLS_X509_MAX_INTERMEDIATE_CA )
 7283              		.loc 2 2375 0 discriminator 1
 7284 0154 082B     		cmp	r3, #8
 7285 0156 01D9     		bls	.L498
2377:C:/Users/dtjld/workspace/AIoT/src/LiteOS_Lab/iot_link/network/dtls/mbedtls/mbedtls-2.16.2/library\x509_crt.c ****         {
2378:C:/Users/dtjld/workspace/AIoT/src/LiteOS_Lab/iot_link/network/dtls/mbedtls/mbedtls-2.16.2/library\x509_crt.c ****             /* return immediately to avoid overflow the chain array */
2379:C:/Users/dtjld/workspace/AIoT/src/LiteOS_Lab/iot_link/network/dtls/mbedtls/mbedtls-2.16.2/library\x509_crt.c ****             return( MBEDTLS_ERR_X509_FATAL_ERROR );
 7286              		.loc 2 2379 0
 7287 0158 194B     		ldr	r3, .L503
 7288 015a 2CE0     		b	.L502
 7289              	.L498:
2380:C:/Users/dtjld/workspace/AIoT/src/LiteOS_Lab/iot_link/network/dtls/mbedtls/mbedtls-2.16.2/library\x509_crt.c ****         }
2381:C:/Users/dtjld/workspace/AIoT/src/LiteOS_Lab/iot_link/network/dtls/mbedtls/mbedtls-2.16.2/library\x509_crt.c **** 
2382:C:/Users/dtjld/workspace/AIoT/src/LiteOS_Lab/iot_link/network/dtls/mbedtls/mbedtls-2.16.2/library\x509_crt.c ****         /* signature was checked while searching parent */
2383:C:/Users/dtjld/workspace/AIoT/src/LiteOS_Lab/iot_link/network/dtls/mbedtls/mbedtls-2.16.2/library\x509_crt.c ****         if( ! signature_is_good )
 7290              		.loc 2 2383 0
ARM GAS  C:\Users\dtjld\AppData\Local\Temp\ccTXdst3.s 			page 178


 7291 015c 7B69     		ldr	r3, [r7, #20]
 7292 015e 002B     		cmp	r3, #0
 7293 0160 05D1     		bne	.L499
2384:C:/Users/dtjld/workspace/AIoT/src/LiteOS_Lab/iot_link/network/dtls/mbedtls/mbedtls-2.16.2/library\x509_crt.c ****             *flags |= MBEDTLS_X509_BADCERT_NOT_TRUSTED;
 7294              		.loc 2 2384 0
 7295 0162 7B6A     		ldr	r3, [r7, #36]
 7296 0164 1B68     		ldr	r3, [r3]
 7297 0166 43F00802 		orr	r2, r3, #8
 7298 016a 7B6A     		ldr	r3, [r7, #36]
 7299 016c 1A60     		str	r2, [r3]
 7300              	.L499:
2385:C:/Users/dtjld/workspace/AIoT/src/LiteOS_Lab/iot_link/network/dtls/mbedtls/mbedtls-2.16.2/library\x509_crt.c **** 
2386:C:/Users/dtjld/workspace/AIoT/src/LiteOS_Lab/iot_link/network/dtls/mbedtls/mbedtls-2.16.2/library\x509_crt.c ****         /* check size of signing key */
2387:C:/Users/dtjld/workspace/AIoT/src/LiteOS_Lab/iot_link/network/dtls/mbedtls/mbedtls-2.16.2/library\x509_crt.c ****         if( x509_profile_check_key( profile, &parent->pk ) != 0 )
 7301              		.loc 2 2387 0
 7302 016e FB69     		ldr	r3, [r7, #28]
 7303 0170 BC33     		adds	r3, r3, #188
 7304 0172 1946     		mov	r1, r3
 7305 0174 3868     		ldr	r0, [r7]
 7306 0176 FFF7FEFF 		bl	x509_profile_check_key
 7307 017a 0346     		mov	r3, r0
 7308 017c 002B     		cmp	r3, #0
 7309 017e 05D0     		beq	.L500
2388:C:/Users/dtjld/workspace/AIoT/src/LiteOS_Lab/iot_link/network/dtls/mbedtls/mbedtls-2.16.2/library\x509_crt.c ****             *flags |= MBEDTLS_X509_BADCERT_BAD_KEY;
 7310              		.loc 2 2388 0
 7311 0180 7B6A     		ldr	r3, [r7, #36]
 7312 0182 1B68     		ldr	r3, [r3]
 7313 0184 43F48032 		orr	r2, r3, #65536
 7314 0188 7B6A     		ldr	r3, [r7, #36]
 7315 018a 1A60     		str	r2, [r3]
 7316              	.L500:
2389:C:/Users/dtjld/workspace/AIoT/src/LiteOS_Lab/iot_link/network/dtls/mbedtls/mbedtls-2.16.2/library\x509_crt.c **** 
2390:C:/Users/dtjld/workspace/AIoT/src/LiteOS_Lab/iot_link/network/dtls/mbedtls/mbedtls-2.16.2/library\x509_crt.c **** #if defined(MBEDTLS_X509_CRL_PARSE_C)
2391:C:/Users/dtjld/workspace/AIoT/src/LiteOS_Lab/iot_link/network/dtls/mbedtls/mbedtls-2.16.2/library\x509_crt.c ****         /* Check trusted CA's CRL for the given crt */
2392:C:/Users/dtjld/workspace/AIoT/src/LiteOS_Lab/iot_link/network/dtls/mbedtls/mbedtls-2.16.2/library\x509_crt.c ****         *flags |= x509_crt_verifycrl( child, parent, ca_crl, profile );
 7317              		.loc 2 2392 0
 7318 018c F969     		ldr	r1, [r7, #28]
 7319 018e 3B68     		ldr	r3, [r7]
 7320 0190 7A68     		ldr	r2, [r7, #4]
 7321 0192 786B     		ldr	r0, [r7, #52]
 7322 0194 FFF7FEFF 		bl	x509_crt_verifycrl
 7323 0198 0246     		mov	r2, r0
 7324 019a 7B6A     		ldr	r3, [r7, #36]
 7325 019c 1B68     		ldr	r3, [r3]
 7326 019e 1A43     		orrs	r2, r2, r3
 7327 01a0 7B6A     		ldr	r3, [r7, #36]
 7328 01a2 1A60     		str	r2, [r3]
2393:C:/Users/dtjld/workspace/AIoT/src/LiteOS_Lab/iot_link/network/dtls/mbedtls/mbedtls-2.16.2/library\x509_crt.c **** #else
2394:C:/Users/dtjld/workspace/AIoT/src/LiteOS_Lab/iot_link/network/dtls/mbedtls/mbedtls-2.16.2/library\x509_crt.c ****         (void) ca_crl;
2395:C:/Users/dtjld/workspace/AIoT/src/LiteOS_Lab/iot_link/network/dtls/mbedtls/mbedtls-2.16.2/library\x509_crt.c **** #endif
2396:C:/Users/dtjld/workspace/AIoT/src/LiteOS_Lab/iot_link/network/dtls/mbedtls/mbedtls-2.16.2/library\x509_crt.c **** 
2397:C:/Users/dtjld/workspace/AIoT/src/LiteOS_Lab/iot_link/network/dtls/mbedtls/mbedtls-2.16.2/library\x509_crt.c ****         /* prepare for next iteration */
2398:C:/Users/dtjld/workspace/AIoT/src/LiteOS_Lab/iot_link/network/dtls/mbedtls/mbedtls-2.16.2/library\x509_crt.c ****         child = parent;
 7329              		.loc 2 2398 0
 7330 01a4 FB69     		ldr	r3, [r7, #28]
 7331 01a6 7B63     		str	r3, [r7, #52]
2399:C:/Users/dtjld/workspace/AIoT/src/LiteOS_Lab/iot_link/network/dtls/mbedtls/mbedtls-2.16.2/library\x509_crt.c ****         parent = NULL;
ARM GAS  C:\Users\dtjld\AppData\Local\Temp\ccTXdst3.s 			page 179


 7332              		.loc 2 2399 0
 7333 01a8 0023     		movs	r3, #0
 7334 01aa FB61     		str	r3, [r7, #28]
2400:C:/Users/dtjld/workspace/AIoT/src/LiteOS_Lab/iot_link/network/dtls/mbedtls/mbedtls-2.16.2/library\x509_crt.c ****         child_is_trusted = parent_is_trusted;
 7335              		.loc 2 2400 0
 7336 01ac BB69     		ldr	r3, [r7, #24]
 7337 01ae 3B63     		str	r3, [r7, #48]
2401:C:/Users/dtjld/workspace/AIoT/src/LiteOS_Lab/iot_link/network/dtls/mbedtls/mbedtls-2.16.2/library\x509_crt.c ****         signature_is_good = 0;
 7338              		.loc 2 2401 0
 7339 01b0 0023     		movs	r3, #0
 7340 01b2 7B61     		str	r3, [r7, #20]
2304:C:/Users/dtjld/workspace/AIoT/src/LiteOS_Lab/iot_link/network/dtls/mbedtls/mbedtls-2.16.2/library\x509_crt.c ****         cur->crt = child;
 7341              		.loc 2 2304 0
 7342 01b4 33E7     		b	.L501
 7343              	.L502:
2402:C:/Users/dtjld/workspace/AIoT/src/LiteOS_Lab/iot_link/network/dtls/mbedtls/mbedtls-2.16.2/library\x509_crt.c ****     }
2403:C:/Users/dtjld/workspace/AIoT/src/LiteOS_Lab/iot_link/network/dtls/mbedtls/mbedtls-2.16.2/library\x509_crt.c **** }
 7344              		.loc 2 2403 0 discriminator 1
 7345 01b6 1846     		mov	r0, r3
 7346 01b8 3837     		adds	r7, r7, #56
 7347              	.LCFI190:
 7348              		.cfi_def_cfa_offset 8
 7349 01ba BD46     		mov	sp, r7
 7350              	.LCFI191:
 7351              		.cfi_def_cfa_register 13
 7352              		@ sp needed
 7353 01bc 80BD     		pop	{r7, pc}
 7354              	.L504:
 7355 01be 00BF     		.align	2
 7356              	.L503:
 7357 01c0 00D0FFFF 		.word	-12288
 7358              		.cfi_endproc
 7359              	.LFE48:
 7361              		.section	.text.x509_crt_check_cn,"ax",%progbits
 7362              		.align	1
 7363              		.syntax unified
 7364              		.thumb
 7365              		.thumb_func
 7366              		.fpu fpv4-sp-d16
 7368              	x509_crt_check_cn:
 7369              	.LFB49:
2404:C:/Users/dtjld/workspace/AIoT/src/LiteOS_Lab/iot_link/network/dtls/mbedtls/mbedtls-2.16.2/library\x509_crt.c **** 
2405:C:/Users/dtjld/workspace/AIoT/src/LiteOS_Lab/iot_link/network/dtls/mbedtls/mbedtls-2.16.2/library\x509_crt.c **** /*
2406:C:/Users/dtjld/workspace/AIoT/src/LiteOS_Lab/iot_link/network/dtls/mbedtls/mbedtls-2.16.2/library\x509_crt.c ****  * Check for CN match
2407:C:/Users/dtjld/workspace/AIoT/src/LiteOS_Lab/iot_link/network/dtls/mbedtls/mbedtls-2.16.2/library\x509_crt.c ****  */
2408:C:/Users/dtjld/workspace/AIoT/src/LiteOS_Lab/iot_link/network/dtls/mbedtls/mbedtls-2.16.2/library\x509_crt.c **** static int x509_crt_check_cn( const mbedtls_x509_buf *name,
2409:C:/Users/dtjld/workspace/AIoT/src/LiteOS_Lab/iot_link/network/dtls/mbedtls/mbedtls-2.16.2/library\x509_crt.c ****                               const char *cn, size_t cn_len )
2410:C:/Users/dtjld/workspace/AIoT/src/LiteOS_Lab/iot_link/network/dtls/mbedtls/mbedtls-2.16.2/library\x509_crt.c **** {
 7370              		.loc 2 2410 0
 7371              		.cfi_startproc
 7372              		@ args = 0, pretend = 0, frame = 16
 7373              		@ frame_needed = 1, uses_anonymous_args = 0
 7374 0000 80B5     		push	{r7, lr}
 7375              	.LCFI192:
 7376              		.cfi_def_cfa_offset 8
 7377              		.cfi_offset 7, -8
 7378              		.cfi_offset 14, -4
ARM GAS  C:\Users\dtjld\AppData\Local\Temp\ccTXdst3.s 			page 180


 7379 0002 84B0     		sub	sp, sp, #16
 7380              	.LCFI193:
 7381              		.cfi_def_cfa_offset 24
 7382 0004 00AF     		add	r7, sp, #0
 7383              	.LCFI194:
 7384              		.cfi_def_cfa_register 7
 7385 0006 F860     		str	r0, [r7, #12]
 7386 0008 B960     		str	r1, [r7, #8]
 7387 000a 7A60     		str	r2, [r7, #4]
2411:C:/Users/dtjld/workspace/AIoT/src/LiteOS_Lab/iot_link/network/dtls/mbedtls/mbedtls-2.16.2/library\x509_crt.c ****     /* try exact match */
2412:C:/Users/dtjld/workspace/AIoT/src/LiteOS_Lab/iot_link/network/dtls/mbedtls/mbedtls-2.16.2/library\x509_crt.c ****     if( name->len == cn_len &&
 7388              		.loc 2 2412 0
 7389 000c FB68     		ldr	r3, [r7, #12]
 7390 000e 5B68     		ldr	r3, [r3, #4]
 7391 0010 7A68     		ldr	r2, [r7, #4]
 7392 0012 9A42     		cmp	r2, r3
 7393 0014 0BD1     		bne	.L506
2413:C:/Users/dtjld/workspace/AIoT/src/LiteOS_Lab/iot_link/network/dtls/mbedtls/mbedtls-2.16.2/library\x509_crt.c ****         x509_memcasecmp( cn, name->p, cn_len ) == 0 )
 7394              		.loc 2 2413 0 discriminator 1
 7395 0016 FB68     		ldr	r3, [r7, #12]
 7396 0018 9B68     		ldr	r3, [r3, #8]
 7397 001a 7A68     		ldr	r2, [r7, #4]
 7398 001c 1946     		mov	r1, r3
 7399 001e B868     		ldr	r0, [r7, #8]
 7400 0020 FFF7FEFF 		bl	x509_memcasecmp
 7401 0024 0346     		mov	r3, r0
2412:C:/Users/dtjld/workspace/AIoT/src/LiteOS_Lab/iot_link/network/dtls/mbedtls/mbedtls-2.16.2/library\x509_crt.c ****         x509_memcasecmp( cn, name->p, cn_len ) == 0 )
 7402              		.loc 2 2412 0 discriminator 1
 7403 0026 002B     		cmp	r3, #0
 7404 0028 01D1     		bne	.L506
2414:C:/Users/dtjld/workspace/AIoT/src/LiteOS_Lab/iot_link/network/dtls/mbedtls/mbedtls-2.16.2/library\x509_crt.c ****     {
2415:C:/Users/dtjld/workspace/AIoT/src/LiteOS_Lab/iot_link/network/dtls/mbedtls/mbedtls-2.16.2/library\x509_crt.c ****         return( 0 );
 7405              		.loc 2 2415 0
 7406 002a 0023     		movs	r3, #0
 7407 002c 0AE0     		b	.L507
 7408              	.L506:
2416:C:/Users/dtjld/workspace/AIoT/src/LiteOS_Lab/iot_link/network/dtls/mbedtls/mbedtls-2.16.2/library\x509_crt.c ****     }
2417:C:/Users/dtjld/workspace/AIoT/src/LiteOS_Lab/iot_link/network/dtls/mbedtls/mbedtls-2.16.2/library\x509_crt.c **** 
2418:C:/Users/dtjld/workspace/AIoT/src/LiteOS_Lab/iot_link/network/dtls/mbedtls/mbedtls-2.16.2/library\x509_crt.c ****     /* try wildcard match */
2419:C:/Users/dtjld/workspace/AIoT/src/LiteOS_Lab/iot_link/network/dtls/mbedtls/mbedtls-2.16.2/library\x509_crt.c ****     if( x509_check_wildcard( cn, name ) == 0 )
 7409              		.loc 2 2419 0
 7410 002e F968     		ldr	r1, [r7, #12]
 7411 0030 B868     		ldr	r0, [r7, #8]
 7412 0032 FFF7FEFF 		bl	x509_check_wildcard
 7413 0036 0346     		mov	r3, r0
 7414 0038 002B     		cmp	r3, #0
 7415 003a 01D1     		bne	.L508
2420:C:/Users/dtjld/workspace/AIoT/src/LiteOS_Lab/iot_link/network/dtls/mbedtls/mbedtls-2.16.2/library\x509_crt.c ****     {
2421:C:/Users/dtjld/workspace/AIoT/src/LiteOS_Lab/iot_link/network/dtls/mbedtls/mbedtls-2.16.2/library\x509_crt.c ****         return( 0 );
 7416              		.loc 2 2421 0
 7417 003c 0023     		movs	r3, #0
 7418 003e 01E0     		b	.L507
 7419              	.L508:
2422:C:/Users/dtjld/workspace/AIoT/src/LiteOS_Lab/iot_link/network/dtls/mbedtls/mbedtls-2.16.2/library\x509_crt.c ****     }
2423:C:/Users/dtjld/workspace/AIoT/src/LiteOS_Lab/iot_link/network/dtls/mbedtls/mbedtls-2.16.2/library\x509_crt.c **** 
2424:C:/Users/dtjld/workspace/AIoT/src/LiteOS_Lab/iot_link/network/dtls/mbedtls/mbedtls-2.16.2/library\x509_crt.c ****     return( -1 );
 7420              		.loc 2 2424 0
ARM GAS  C:\Users\dtjld\AppData\Local\Temp\ccTXdst3.s 			page 181


 7421 0040 4FF0FF33 		mov	r3, #-1
 7422              	.L507:
2425:C:/Users/dtjld/workspace/AIoT/src/LiteOS_Lab/iot_link/network/dtls/mbedtls/mbedtls-2.16.2/library\x509_crt.c **** }
 7423              		.loc 2 2425 0
 7424 0044 1846     		mov	r0, r3
 7425 0046 1037     		adds	r7, r7, #16
 7426              	.LCFI195:
 7427              		.cfi_def_cfa_offset 8
 7428 0048 BD46     		mov	sp, r7
 7429              	.LCFI196:
 7430              		.cfi_def_cfa_register 13
 7431              		@ sp needed
 7432 004a 80BD     		pop	{r7, pc}
 7433              		.cfi_endproc
 7434              	.LFE49:
 7436              		.section	.rodata
 7437 0765 000000   		.align	2
 7438              	.LC64:
 7439 0768 55040300 		.ascii	"U\004\003\000"
 7440              		.section	.text.x509_crt_verify_name,"ax",%progbits
 7441              		.align	1
 7442              		.syntax unified
 7443              		.thumb
 7444              		.thumb_func
 7445              		.fpu fpv4-sp-d16
 7447              	x509_crt_verify_name:
 7448              	.LFB50:
2426:C:/Users/dtjld/workspace/AIoT/src/LiteOS_Lab/iot_link/network/dtls/mbedtls/mbedtls-2.16.2/library\x509_crt.c **** 
2427:C:/Users/dtjld/workspace/AIoT/src/LiteOS_Lab/iot_link/network/dtls/mbedtls/mbedtls-2.16.2/library\x509_crt.c **** /*
2428:C:/Users/dtjld/workspace/AIoT/src/LiteOS_Lab/iot_link/network/dtls/mbedtls/mbedtls-2.16.2/library\x509_crt.c ****  * Verify the requested CN - only call this if cn is not NULL!
2429:C:/Users/dtjld/workspace/AIoT/src/LiteOS_Lab/iot_link/network/dtls/mbedtls/mbedtls-2.16.2/library\x509_crt.c ****  */
2430:C:/Users/dtjld/workspace/AIoT/src/LiteOS_Lab/iot_link/network/dtls/mbedtls/mbedtls-2.16.2/library\x509_crt.c **** static void x509_crt_verify_name( const mbedtls_x509_crt *crt,
2431:C:/Users/dtjld/workspace/AIoT/src/LiteOS_Lab/iot_link/network/dtls/mbedtls/mbedtls-2.16.2/library\x509_crt.c ****                                   const char *cn,
2432:C:/Users/dtjld/workspace/AIoT/src/LiteOS_Lab/iot_link/network/dtls/mbedtls/mbedtls-2.16.2/library\x509_crt.c ****                                   uint32_t *flags )
2433:C:/Users/dtjld/workspace/AIoT/src/LiteOS_Lab/iot_link/network/dtls/mbedtls/mbedtls-2.16.2/library\x509_crt.c **** {
 7449              		.loc 2 2433 0
 7450              		.cfi_startproc
 7451              		@ args = 0, pretend = 0, frame = 32
 7452              		@ frame_needed = 1, uses_anonymous_args = 0
 7453 0000 80B5     		push	{r7, lr}
 7454              	.LCFI197:
 7455              		.cfi_def_cfa_offset 8
 7456              		.cfi_offset 7, -8
 7457              		.cfi_offset 14, -4
 7458 0002 88B0     		sub	sp, sp, #32
 7459              	.LCFI198:
 7460              		.cfi_def_cfa_offset 40
 7461 0004 00AF     		add	r7, sp, #0
 7462              	.LCFI199:
 7463              		.cfi_def_cfa_register 7
 7464 0006 F860     		str	r0, [r7, #12]
 7465 0008 B960     		str	r1, [r7, #8]
 7466 000a 7A60     		str	r2, [r7, #4]
2434:C:/Users/dtjld/workspace/AIoT/src/LiteOS_Lab/iot_link/network/dtls/mbedtls/mbedtls-2.16.2/library\x509_crt.c ****     const mbedtls_x509_name *name;
2435:C:/Users/dtjld/workspace/AIoT/src/LiteOS_Lab/iot_link/network/dtls/mbedtls/mbedtls-2.16.2/library\x509_crt.c ****     const mbedtls_x509_sequence *cur;
2436:C:/Users/dtjld/workspace/AIoT/src/LiteOS_Lab/iot_link/network/dtls/mbedtls/mbedtls-2.16.2/library\x509_crt.c ****     size_t cn_len = strlen( cn );
 7467              		.loc 2 2436 0
ARM GAS  C:\Users\dtjld\AppData\Local\Temp\ccTXdst3.s 			page 182


 7468 000c B868     		ldr	r0, [r7, #8]
 7469 000e FFF7FEFF 		bl	strlen
 7470 0012 7861     		str	r0, [r7, #20]
2437:C:/Users/dtjld/workspace/AIoT/src/LiteOS_Lab/iot_link/network/dtls/mbedtls/mbedtls-2.16.2/library\x509_crt.c **** 
2438:C:/Users/dtjld/workspace/AIoT/src/LiteOS_Lab/iot_link/network/dtls/mbedtls/mbedtls-2.16.2/library\x509_crt.c ****     if( crt->ext_types & MBEDTLS_X509_EXT_SUBJECT_ALT_NAME )
 7471              		.loc 2 2438 0
 7472 0014 FB68     		ldr	r3, [r7, #12]
 7473 0016 D3F8F830 		ldr	r3, [r3, #248]
 7474 001a 03F02003 		and	r3, r3, #32
 7475 001e 002B     		cmp	r3, #0
 7476 0020 1ED0     		beq	.L510
2439:C:/Users/dtjld/workspace/AIoT/src/LiteOS_Lab/iot_link/network/dtls/mbedtls/mbedtls-2.16.2/library\x509_crt.c ****     {
2440:C:/Users/dtjld/workspace/AIoT/src/LiteOS_Lab/iot_link/network/dtls/mbedtls/mbedtls-2.16.2/library\x509_crt.c ****         for( cur = &crt->subject_alt_names; cur != NULL; cur = cur->next )
 7477              		.loc 2 2440 0
 7478 0022 FB68     		ldr	r3, [r7, #12]
 7479 0024 E833     		adds	r3, r3, #232
 7480 0026 BB61     		str	r3, [r7, #24]
 7481 0028 0BE0     		b	.L511
 7482              	.L514:
2441:C:/Users/dtjld/workspace/AIoT/src/LiteOS_Lab/iot_link/network/dtls/mbedtls/mbedtls-2.16.2/library\x509_crt.c ****         {
2442:C:/Users/dtjld/workspace/AIoT/src/LiteOS_Lab/iot_link/network/dtls/mbedtls/mbedtls-2.16.2/library\x509_crt.c ****             if( x509_crt_check_cn( &cur->buf, cn, cn_len ) == 0 )
 7483              		.loc 2 2442 0
 7484 002a BB69     		ldr	r3, [r7, #24]
 7485 002c 7A69     		ldr	r2, [r7, #20]
 7486 002e B968     		ldr	r1, [r7, #8]
 7487 0030 1846     		mov	r0, r3
 7488 0032 FFF7FEFF 		bl	x509_crt_check_cn
 7489 0036 0346     		mov	r3, r0
 7490 0038 002B     		cmp	r3, #0
 7491 003a 06D0     		beq	.L524
2440:C:/Users/dtjld/workspace/AIoT/src/LiteOS_Lab/iot_link/network/dtls/mbedtls/mbedtls-2.16.2/library\x509_crt.c ****         {
 7492              		.loc 2 2440 0 discriminator 2
 7493 003c BB69     		ldr	r3, [r7, #24]
 7494 003e DB68     		ldr	r3, [r3, #12]
 7495 0040 BB61     		str	r3, [r7, #24]
 7496              	.L511:
2440:C:/Users/dtjld/workspace/AIoT/src/LiteOS_Lab/iot_link/network/dtls/mbedtls/mbedtls-2.16.2/library\x509_crt.c ****         {
 7497              		.loc 2 2440 0 is_stmt 0 discriminator 1
 7498 0042 BB69     		ldr	r3, [r7, #24]
 7499 0044 002B     		cmp	r3, #0
 7500 0046 F0D1     		bne	.L514
 7501 0048 00E0     		b	.L513
 7502              	.L524:
2443:C:/Users/dtjld/workspace/AIoT/src/LiteOS_Lab/iot_link/network/dtls/mbedtls/mbedtls-2.16.2/library\x509_crt.c ****                 break;
 7503              		.loc 2 2443 0 is_stmt 1
 7504 004a 00BF     		nop
 7505              	.L513:
2444:C:/Users/dtjld/workspace/AIoT/src/LiteOS_Lab/iot_link/network/dtls/mbedtls/mbedtls-2.16.2/library\x509_crt.c ****         }
2445:C:/Users/dtjld/workspace/AIoT/src/LiteOS_Lab/iot_link/network/dtls/mbedtls/mbedtls-2.16.2/library\x509_crt.c **** 
2446:C:/Users/dtjld/workspace/AIoT/src/LiteOS_Lab/iot_link/network/dtls/mbedtls/mbedtls-2.16.2/library\x509_crt.c ****         if( cur == NULL )
 7506              		.loc 2 2446 0
 7507 004c BB69     		ldr	r3, [r7, #24]
 7508 004e 002B     		cmp	r3, #0
 7509 0050 39D1     		bne	.L525
2447:C:/Users/dtjld/workspace/AIoT/src/LiteOS_Lab/iot_link/network/dtls/mbedtls/mbedtls-2.16.2/library\x509_crt.c ****             *flags |= MBEDTLS_X509_BADCERT_CN_MISMATCH;
 7510              		.loc 2 2447 0
 7511 0052 7B68     		ldr	r3, [r7, #4]
ARM GAS  C:\Users\dtjld\AppData\Local\Temp\ccTXdst3.s 			page 183


 7512 0054 1B68     		ldr	r3, [r3]
 7513 0056 43F00402 		orr	r2, r3, #4
 7514 005a 7B68     		ldr	r3, [r7, #4]
 7515 005c 1A60     		str	r2, [r3]
2448:C:/Users/dtjld/workspace/AIoT/src/LiteOS_Lab/iot_link/network/dtls/mbedtls/mbedtls-2.16.2/library\x509_crt.c ****     }
2449:C:/Users/dtjld/workspace/AIoT/src/LiteOS_Lab/iot_link/network/dtls/mbedtls/mbedtls-2.16.2/library\x509_crt.c ****     else
2450:C:/Users/dtjld/workspace/AIoT/src/LiteOS_Lab/iot_link/network/dtls/mbedtls/mbedtls-2.16.2/library\x509_crt.c ****     {
2451:C:/Users/dtjld/workspace/AIoT/src/LiteOS_Lab/iot_link/network/dtls/mbedtls/mbedtls-2.16.2/library\x509_crt.c ****         for( name = &crt->subject; name != NULL; name = name->next )
2452:C:/Users/dtjld/workspace/AIoT/src/LiteOS_Lab/iot_link/network/dtls/mbedtls/mbedtls-2.16.2/library\x509_crt.c ****         {
2453:C:/Users/dtjld/workspace/AIoT/src/LiteOS_Lab/iot_link/network/dtls/mbedtls/mbedtls-2.16.2/library\x509_crt.c ****             if( MBEDTLS_OID_CMP( MBEDTLS_OID_AT_CN, &name->oid ) == 0 &&
2454:C:/Users/dtjld/workspace/AIoT/src/LiteOS_Lab/iot_link/network/dtls/mbedtls/mbedtls-2.16.2/library\x509_crt.c ****                 x509_crt_check_cn( &name->val, cn, cn_len ) == 0 )
2455:C:/Users/dtjld/workspace/AIoT/src/LiteOS_Lab/iot_link/network/dtls/mbedtls/mbedtls-2.16.2/library\x509_crt.c ****             {
2456:C:/Users/dtjld/workspace/AIoT/src/LiteOS_Lab/iot_link/network/dtls/mbedtls/mbedtls-2.16.2/library\x509_crt.c ****                 break;
2457:C:/Users/dtjld/workspace/AIoT/src/LiteOS_Lab/iot_link/network/dtls/mbedtls/mbedtls-2.16.2/library\x509_crt.c ****             }
2458:C:/Users/dtjld/workspace/AIoT/src/LiteOS_Lab/iot_link/network/dtls/mbedtls/mbedtls-2.16.2/library\x509_crt.c ****         }
2459:C:/Users/dtjld/workspace/AIoT/src/LiteOS_Lab/iot_link/network/dtls/mbedtls/mbedtls-2.16.2/library\x509_crt.c **** 
2460:C:/Users/dtjld/workspace/AIoT/src/LiteOS_Lab/iot_link/network/dtls/mbedtls/mbedtls-2.16.2/library\x509_crt.c ****         if( name == NULL )
2461:C:/Users/dtjld/workspace/AIoT/src/LiteOS_Lab/iot_link/network/dtls/mbedtls/mbedtls-2.16.2/library\x509_crt.c ****             *flags |= MBEDTLS_X509_BADCERT_CN_MISMATCH;
2462:C:/Users/dtjld/workspace/AIoT/src/LiteOS_Lab/iot_link/network/dtls/mbedtls/mbedtls-2.16.2/library\x509_crt.c ****     }
2463:C:/Users/dtjld/workspace/AIoT/src/LiteOS_Lab/iot_link/network/dtls/mbedtls/mbedtls-2.16.2/library\x509_crt.c **** }
 7516              		.loc 2 2463 0
 7517 005e 32E0     		b	.L525
 7518              	.L510:
2451:C:/Users/dtjld/workspace/AIoT/src/LiteOS_Lab/iot_link/network/dtls/mbedtls/mbedtls-2.16.2/library\x509_crt.c ****         {
 7519              		.loc 2 2451 0
 7520 0060 FB68     		ldr	r3, [r7, #12]
 7521 0062 6C33     		adds	r3, r3, #108
 7522 0064 FB61     		str	r3, [r7, #28]
 7523 0066 20E0     		b	.L517
 7524              	.L523:
2453:C:/Users/dtjld/workspace/AIoT/src/LiteOS_Lab/iot_link/network/dtls/mbedtls/mbedtls-2.16.2/library\x509_crt.c ****                 x509_crt_check_cn( &name->val, cn, cn_len ) == 0 )
 7525              		.loc 2 2453 0
 7526 0068 FB69     		ldr	r3, [r7, #28]
 7527 006a 5B68     		ldr	r3, [r3, #4]
 7528 006c 032B     		cmp	r3, #3
 7529 006e 0AD1     		bne	.L518
2453:C:/Users/dtjld/workspace/AIoT/src/LiteOS_Lab/iot_link/network/dtls/mbedtls/mbedtls-2.16.2/library\x509_crt.c ****                 x509_crt_check_cn( &name->val, cn, cn_len ) == 0 )
 7530              		.loc 2 2453 0 is_stmt 0 discriminator 2
 7531 0070 FB69     		ldr	r3, [r7, #28]
 7532 0072 9968     		ldr	r1, [r3, #8]
 7533 0074 FB69     		ldr	r3, [r7, #28]
 7534 0076 5B68     		ldr	r3, [r3, #4]
 7535 0078 1A46     		mov	r2, r3
 7536 007a 1548     		ldr	r0, .L527
 7537 007c FFF7FEFF 		bl	memcmp
 7538 0080 0346     		mov	r3, r0
 7539 0082 002B     		cmp	r3, #0
 7540 0084 01D0     		beq	.L519
 7541              	.L518:
2453:C:/Users/dtjld/workspace/AIoT/src/LiteOS_Lab/iot_link/network/dtls/mbedtls/mbedtls-2.16.2/library\x509_crt.c ****                 x509_crt_check_cn( &name->val, cn, cn_len ) == 0 )
 7542              		.loc 2 2453 0 discriminator 3
 7543 0086 0123     		movs	r3, #1
 7544 0088 00E0     		b	.L520
 7545              	.L519:
2453:C:/Users/dtjld/workspace/AIoT/src/LiteOS_Lab/iot_link/network/dtls/mbedtls/mbedtls-2.16.2/library\x509_crt.c ****                 x509_crt_check_cn( &name->val, cn, cn_len ) == 0 )
 7546              		.loc 2 2453 0 discriminator 4
 7547 008a 0023     		movs	r3, #0
ARM GAS  C:\Users\dtjld\AppData\Local\Temp\ccTXdst3.s 			page 184


 7548              	.L520:
2453:C:/Users/dtjld/workspace/AIoT/src/LiteOS_Lab/iot_link/network/dtls/mbedtls/mbedtls-2.16.2/library\x509_crt.c ****                 x509_crt_check_cn( &name->val, cn, cn_len ) == 0 )
 7549              		.loc 2 2453 0 discriminator 6
 7550 008c 002B     		cmp	r3, #0
 7551 008e 09D1     		bne	.L521
2454:C:/Users/dtjld/workspace/AIoT/src/LiteOS_Lab/iot_link/network/dtls/mbedtls/mbedtls-2.16.2/library\x509_crt.c ****             {
 7552              		.loc 2 2454 0 is_stmt 1 discriminator 7
 7553 0090 FB69     		ldr	r3, [r7, #28]
 7554 0092 0C33     		adds	r3, r3, #12
 7555 0094 7A69     		ldr	r2, [r7, #20]
 7556 0096 B968     		ldr	r1, [r7, #8]
 7557 0098 1846     		mov	r0, r3
 7558 009a FFF7FEFF 		bl	x509_crt_check_cn
 7559 009e 0346     		mov	r3, r0
2453:C:/Users/dtjld/workspace/AIoT/src/LiteOS_Lab/iot_link/network/dtls/mbedtls/mbedtls-2.16.2/library\x509_crt.c ****                 x509_crt_check_cn( &name->val, cn, cn_len ) == 0 )
 7560              		.loc 2 2453 0 discriminator 7
 7561 00a0 002B     		cmp	r3, #0
 7562 00a2 06D0     		beq	.L526
 7563              	.L521:
2451:C:/Users/dtjld/workspace/AIoT/src/LiteOS_Lab/iot_link/network/dtls/mbedtls/mbedtls-2.16.2/library\x509_crt.c ****         {
 7564              		.loc 2 2451 0 discriminator 2
 7565 00a4 FB69     		ldr	r3, [r7, #28]
 7566 00a6 9B69     		ldr	r3, [r3, #24]
 7567 00a8 FB61     		str	r3, [r7, #28]
 7568              	.L517:
2451:C:/Users/dtjld/workspace/AIoT/src/LiteOS_Lab/iot_link/network/dtls/mbedtls/mbedtls-2.16.2/library\x509_crt.c ****         {
 7569              		.loc 2 2451 0 is_stmt 0 discriminator 1
 7570 00aa FB69     		ldr	r3, [r7, #28]
 7571 00ac 002B     		cmp	r3, #0
 7572 00ae DBD1     		bne	.L523
 7573 00b0 00E0     		b	.L522
 7574              	.L526:
2456:C:/Users/dtjld/workspace/AIoT/src/LiteOS_Lab/iot_link/network/dtls/mbedtls/mbedtls-2.16.2/library\x509_crt.c ****             }
 7575              		.loc 2 2456 0 is_stmt 1
 7576 00b2 00BF     		nop
 7577              	.L522:
2460:C:/Users/dtjld/workspace/AIoT/src/LiteOS_Lab/iot_link/network/dtls/mbedtls/mbedtls-2.16.2/library\x509_crt.c ****             *flags |= MBEDTLS_X509_BADCERT_CN_MISMATCH;
 7578              		.loc 2 2460 0
 7579 00b4 FB69     		ldr	r3, [r7, #28]
 7580 00b6 002B     		cmp	r3, #0
 7581 00b8 05D1     		bne	.L525
2461:C:/Users/dtjld/workspace/AIoT/src/LiteOS_Lab/iot_link/network/dtls/mbedtls/mbedtls-2.16.2/library\x509_crt.c ****     }
 7582              		.loc 2 2461 0
 7583 00ba 7B68     		ldr	r3, [r7, #4]
 7584 00bc 1B68     		ldr	r3, [r3]
 7585 00be 43F00402 		orr	r2, r3, #4
 7586 00c2 7B68     		ldr	r3, [r7, #4]
 7587 00c4 1A60     		str	r2, [r3]
 7588              	.L525:
 7589              		.loc 2 2463 0
 7590 00c6 00BF     		nop
 7591 00c8 2037     		adds	r7, r7, #32
 7592              	.LCFI200:
 7593              		.cfi_def_cfa_offset 8
 7594 00ca BD46     		mov	sp, r7
 7595              	.LCFI201:
 7596              		.cfi_def_cfa_register 13
ARM GAS  C:\Users\dtjld\AppData\Local\Temp\ccTXdst3.s 			page 185


 7597              		@ sp needed
 7598 00cc 80BD     		pop	{r7, pc}
 7599              	.L528:
 7600 00ce 00BF     		.align	2
 7601              	.L527:
 7602 00d0 68070000 		.word	.LC64
 7603              		.cfi_endproc
 7604              	.LFE50:
 7606              		.section	.text.x509_crt_merge_flags_with_cb,"ax",%progbits
 7607              		.align	1
 7608              		.syntax unified
 7609              		.thumb
 7610              		.thumb_func
 7611              		.fpu fpv4-sp-d16
 7613              	x509_crt_merge_flags_with_cb:
 7614              	.LFB51:
2464:C:/Users/dtjld/workspace/AIoT/src/LiteOS_Lab/iot_link/network/dtls/mbedtls/mbedtls-2.16.2/library\x509_crt.c **** 
2465:C:/Users/dtjld/workspace/AIoT/src/LiteOS_Lab/iot_link/network/dtls/mbedtls/mbedtls-2.16.2/library\x509_crt.c **** /*
2466:C:/Users/dtjld/workspace/AIoT/src/LiteOS_Lab/iot_link/network/dtls/mbedtls/mbedtls-2.16.2/library\x509_crt.c ****  * Merge the flags for all certs in the chain, after calling callback
2467:C:/Users/dtjld/workspace/AIoT/src/LiteOS_Lab/iot_link/network/dtls/mbedtls/mbedtls-2.16.2/library\x509_crt.c ****  */
2468:C:/Users/dtjld/workspace/AIoT/src/LiteOS_Lab/iot_link/network/dtls/mbedtls/mbedtls-2.16.2/library\x509_crt.c **** static int x509_crt_merge_flags_with_cb(
2469:C:/Users/dtjld/workspace/AIoT/src/LiteOS_Lab/iot_link/network/dtls/mbedtls/mbedtls-2.16.2/library\x509_crt.c ****            uint32_t *flags,
2470:C:/Users/dtjld/workspace/AIoT/src/LiteOS_Lab/iot_link/network/dtls/mbedtls/mbedtls-2.16.2/library\x509_crt.c ****            const mbedtls_x509_crt_verify_chain *ver_chain,
2471:C:/Users/dtjld/workspace/AIoT/src/LiteOS_Lab/iot_link/network/dtls/mbedtls/mbedtls-2.16.2/library\x509_crt.c ****            int (*f_vrfy)(void *, mbedtls_x509_crt *, int, uint32_t *),
2472:C:/Users/dtjld/workspace/AIoT/src/LiteOS_Lab/iot_link/network/dtls/mbedtls/mbedtls-2.16.2/library\x509_crt.c ****            void *p_vrfy )
2473:C:/Users/dtjld/workspace/AIoT/src/LiteOS_Lab/iot_link/network/dtls/mbedtls/mbedtls-2.16.2/library\x509_crt.c **** {
 7615              		.loc 2 2473 0
 7616              		.cfi_startproc
 7617              		@ args = 0, pretend = 0, frame = 32
 7618              		@ frame_needed = 1, uses_anonymous_args = 0
 7619 0000 90B5     		push	{r4, r7, lr}
 7620              	.LCFI202:
 7621              		.cfi_def_cfa_offset 12
 7622              		.cfi_offset 4, -12
 7623              		.cfi_offset 7, -8
 7624              		.cfi_offset 14, -4
 7625 0002 89B0     		sub	sp, sp, #36
 7626              	.LCFI203:
 7627              		.cfi_def_cfa_offset 48
 7628 0004 00AF     		add	r7, sp, #0
 7629              	.LCFI204:
 7630              		.cfi_def_cfa_register 7
 7631 0006 F860     		str	r0, [r7, #12]
 7632 0008 B960     		str	r1, [r7, #8]
 7633 000a 7A60     		str	r2, [r7, #4]
 7634 000c 3B60     		str	r3, [r7]
2474:C:/Users/dtjld/workspace/AIoT/src/LiteOS_Lab/iot_link/network/dtls/mbedtls/mbedtls-2.16.2/library\x509_crt.c ****     int ret;
2475:C:/Users/dtjld/workspace/AIoT/src/LiteOS_Lab/iot_link/network/dtls/mbedtls/mbedtls-2.16.2/library\x509_crt.c ****     unsigned i;
2476:C:/Users/dtjld/workspace/AIoT/src/LiteOS_Lab/iot_link/network/dtls/mbedtls/mbedtls-2.16.2/library\x509_crt.c ****     uint32_t cur_flags;
2477:C:/Users/dtjld/workspace/AIoT/src/LiteOS_Lab/iot_link/network/dtls/mbedtls/mbedtls-2.16.2/library\x509_crt.c ****     const mbedtls_x509_crt_verify_chain_item *cur;
2478:C:/Users/dtjld/workspace/AIoT/src/LiteOS_Lab/iot_link/network/dtls/mbedtls/mbedtls-2.16.2/library\x509_crt.c **** 
2479:C:/Users/dtjld/workspace/AIoT/src/LiteOS_Lab/iot_link/network/dtls/mbedtls/mbedtls-2.16.2/library\x509_crt.c ****     for( i = ver_chain->len; i != 0; --i )
 7635              		.loc 2 2479 0
 7636 000e BB68     		ldr	r3, [r7, #8]
 7637 0010 1B6D     		ldr	r3, [r3, #80]
 7638 0012 FB61     		str	r3, [r7, #28]
 7639 0014 23E0     		b	.L530
ARM GAS  C:\Users\dtjld\AppData\Local\Temp\ccTXdst3.s 			page 186


 7640              	.L533:
2480:C:/Users/dtjld/workspace/AIoT/src/LiteOS_Lab/iot_link/network/dtls/mbedtls/mbedtls-2.16.2/library\x509_crt.c ****     {
2481:C:/Users/dtjld/workspace/AIoT/src/LiteOS_Lab/iot_link/network/dtls/mbedtls/mbedtls-2.16.2/library\x509_crt.c ****         cur = &ver_chain->items[i-1];
 7641              		.loc 2 2481 0
 7642 0016 FB69     		ldr	r3, [r7, #28]
 7643 0018 013B     		subs	r3, r3, #1
 7644 001a DB00     		lsls	r3, r3, #3
 7645 001c BA68     		ldr	r2, [r7, #8]
 7646 001e 1344     		add	r3, r3, r2
 7647 0020 BB61     		str	r3, [r7, #24]
2482:C:/Users/dtjld/workspace/AIoT/src/LiteOS_Lab/iot_link/network/dtls/mbedtls/mbedtls-2.16.2/library\x509_crt.c ****         cur_flags = cur->flags;
 7648              		.loc 2 2482 0
 7649 0022 BB69     		ldr	r3, [r7, #24]
 7650 0024 5B68     		ldr	r3, [r3, #4]
 7651 0026 3B61     		str	r3, [r7, #16]
2483:C:/Users/dtjld/workspace/AIoT/src/LiteOS_Lab/iot_link/network/dtls/mbedtls/mbedtls-2.16.2/library\x509_crt.c **** 
2484:C:/Users/dtjld/workspace/AIoT/src/LiteOS_Lab/iot_link/network/dtls/mbedtls/mbedtls-2.16.2/library\x509_crt.c ****         if( NULL != f_vrfy )
 7652              		.loc 2 2484 0
 7653 0028 7B68     		ldr	r3, [r7, #4]
 7654 002a 002B     		cmp	r3, #0
 7655 002c 0ED0     		beq	.L531
2485:C:/Users/dtjld/workspace/AIoT/src/LiteOS_Lab/iot_link/network/dtls/mbedtls/mbedtls-2.16.2/library\x509_crt.c ****             if( ( ret = f_vrfy( p_vrfy, cur->crt, (int) i-1, &cur_flags ) ) != 0 )
 7656              		.loc 2 2485 0
 7657 002e BB69     		ldr	r3, [r7, #24]
 7658 0030 1968     		ldr	r1, [r3]
 7659 0032 FB69     		ldr	r3, [r7, #28]
 7660 0034 5A1E     		subs	r2, r3, #1
 7661 0036 07F11003 		add	r3, r7, #16
 7662 003a 7C68     		ldr	r4, [r7, #4]
 7663 003c 3868     		ldr	r0, [r7]
 7664 003e A047     		blx	r4
 7665              	.LVL36:
 7666 0040 7861     		str	r0, [r7, #20]
 7667 0042 7B69     		ldr	r3, [r7, #20]
 7668 0044 002B     		cmp	r3, #0
 7669 0046 01D0     		beq	.L531
2486:C:/Users/dtjld/workspace/AIoT/src/LiteOS_Lab/iot_link/network/dtls/mbedtls/mbedtls-2.16.2/library\x509_crt.c ****                 return( ret );
 7670              		.loc 2 2486 0
 7671 0048 7B69     		ldr	r3, [r7, #20]
 7672 004a 0CE0     		b	.L534
 7673              	.L531:
2487:C:/Users/dtjld/workspace/AIoT/src/LiteOS_Lab/iot_link/network/dtls/mbedtls/mbedtls-2.16.2/library\x509_crt.c **** 
2488:C:/Users/dtjld/workspace/AIoT/src/LiteOS_Lab/iot_link/network/dtls/mbedtls/mbedtls-2.16.2/library\x509_crt.c ****         *flags |= cur_flags;
 7674              		.loc 2 2488 0 discriminator 2
 7675 004c FB68     		ldr	r3, [r7, #12]
 7676 004e 1A68     		ldr	r2, [r3]
 7677 0050 3B69     		ldr	r3, [r7, #16]
 7678 0052 1A43     		orrs	r2, r2, r3
 7679 0054 FB68     		ldr	r3, [r7, #12]
 7680 0056 1A60     		str	r2, [r3]
2479:C:/Users/dtjld/workspace/AIoT/src/LiteOS_Lab/iot_link/network/dtls/mbedtls/mbedtls-2.16.2/library\x509_crt.c ****     {
 7681              		.loc 2 2479 0 discriminator 2
 7682 0058 FB69     		ldr	r3, [r7, #28]
 7683 005a 013B     		subs	r3, r3, #1
 7684 005c FB61     		str	r3, [r7, #28]
 7685              	.L530:
2479:C:/Users/dtjld/workspace/AIoT/src/LiteOS_Lab/iot_link/network/dtls/mbedtls/mbedtls-2.16.2/library\x509_crt.c ****     {
ARM GAS  C:\Users\dtjld\AppData\Local\Temp\ccTXdst3.s 			page 187


 7686              		.loc 2 2479 0 is_stmt 0 discriminator 1
 7687 005e FB69     		ldr	r3, [r7, #28]
 7688 0060 002B     		cmp	r3, #0
 7689 0062 D8D1     		bne	.L533
2489:C:/Users/dtjld/workspace/AIoT/src/LiteOS_Lab/iot_link/network/dtls/mbedtls/mbedtls-2.16.2/library\x509_crt.c ****     }
2490:C:/Users/dtjld/workspace/AIoT/src/LiteOS_Lab/iot_link/network/dtls/mbedtls/mbedtls-2.16.2/library\x509_crt.c **** 
2491:C:/Users/dtjld/workspace/AIoT/src/LiteOS_Lab/iot_link/network/dtls/mbedtls/mbedtls-2.16.2/library\x509_crt.c ****     return( 0 );
 7690              		.loc 2 2491 0 is_stmt 1
 7691 0064 0023     		movs	r3, #0
 7692              	.L534:
2492:C:/Users/dtjld/workspace/AIoT/src/LiteOS_Lab/iot_link/network/dtls/mbedtls/mbedtls-2.16.2/library\x509_crt.c **** }
 7693              		.loc 2 2492 0 discriminator 1
 7694 0066 1846     		mov	r0, r3
 7695 0068 2437     		adds	r7, r7, #36
 7696              	.LCFI205:
 7697              		.cfi_def_cfa_offset 12
 7698 006a BD46     		mov	sp, r7
 7699              	.LCFI206:
 7700              		.cfi_def_cfa_register 13
 7701              		@ sp needed
 7702 006c 90BD     		pop	{r4, r7, pc}
 7703              		.cfi_endproc
 7704              	.LFE51:
 7706              		.section	.text.mbedtls_x509_crt_verify,"ax",%progbits
 7707              		.align	1
 7708              		.global	mbedtls_x509_crt_verify
 7709              		.syntax unified
 7710              		.thumb
 7711              		.thumb_func
 7712              		.fpu fpv4-sp-d16
 7714              	mbedtls_x509_crt_verify:
 7715              	.LFB52:
2493:C:/Users/dtjld/workspace/AIoT/src/LiteOS_Lab/iot_link/network/dtls/mbedtls/mbedtls-2.16.2/library\x509_crt.c **** 
2494:C:/Users/dtjld/workspace/AIoT/src/LiteOS_Lab/iot_link/network/dtls/mbedtls/mbedtls-2.16.2/library\x509_crt.c **** /*
2495:C:/Users/dtjld/workspace/AIoT/src/LiteOS_Lab/iot_link/network/dtls/mbedtls/mbedtls-2.16.2/library\x509_crt.c ****  * Verify the certificate validity (default profile, not restartable)
2496:C:/Users/dtjld/workspace/AIoT/src/LiteOS_Lab/iot_link/network/dtls/mbedtls/mbedtls-2.16.2/library\x509_crt.c ****  */
2497:C:/Users/dtjld/workspace/AIoT/src/LiteOS_Lab/iot_link/network/dtls/mbedtls/mbedtls-2.16.2/library\x509_crt.c **** int mbedtls_x509_crt_verify( mbedtls_x509_crt *crt,
2498:C:/Users/dtjld/workspace/AIoT/src/LiteOS_Lab/iot_link/network/dtls/mbedtls/mbedtls-2.16.2/library\x509_crt.c ****                      mbedtls_x509_crt *trust_ca,
2499:C:/Users/dtjld/workspace/AIoT/src/LiteOS_Lab/iot_link/network/dtls/mbedtls/mbedtls-2.16.2/library\x509_crt.c ****                      mbedtls_x509_crl *ca_crl,
2500:C:/Users/dtjld/workspace/AIoT/src/LiteOS_Lab/iot_link/network/dtls/mbedtls/mbedtls-2.16.2/library\x509_crt.c ****                      const char *cn, uint32_t *flags,
2501:C:/Users/dtjld/workspace/AIoT/src/LiteOS_Lab/iot_link/network/dtls/mbedtls/mbedtls-2.16.2/library\x509_crt.c ****                      int (*f_vrfy)(void *, mbedtls_x509_crt *, int, uint32_t *),
2502:C:/Users/dtjld/workspace/AIoT/src/LiteOS_Lab/iot_link/network/dtls/mbedtls/mbedtls-2.16.2/library\x509_crt.c ****                      void *p_vrfy )
2503:C:/Users/dtjld/workspace/AIoT/src/LiteOS_Lab/iot_link/network/dtls/mbedtls/mbedtls-2.16.2/library\x509_crt.c **** {
 7716              		.loc 2 2503 0
 7717              		.cfi_startproc
 7718              		@ args = 12, pretend = 0, frame = 16
 7719              		@ frame_needed = 1, uses_anonymous_args = 0
 7720 0000 80B5     		push	{r7, lr}
 7721              	.LCFI207:
 7722              		.cfi_def_cfa_offset 8
 7723              		.cfi_offset 7, -8
 7724              		.cfi_offset 14, -4
 7725 0002 8AB0     		sub	sp, sp, #40
 7726              	.LCFI208:
 7727              		.cfi_def_cfa_offset 48
 7728 0004 06AF     		add	r7, sp, #24
 7729              	.LCFI209:
ARM GAS  C:\Users\dtjld\AppData\Local\Temp\ccTXdst3.s 			page 188


 7730              		.cfi_def_cfa 7, 24
 7731 0006 F860     		str	r0, [r7, #12]
 7732 0008 B960     		str	r1, [r7, #8]
 7733 000a 7A60     		str	r2, [r7, #4]
 7734 000c 3B60     		str	r3, [r7]
2504:C:/Users/dtjld/workspace/AIoT/src/LiteOS_Lab/iot_link/network/dtls/mbedtls/mbedtls-2.16.2/library\x509_crt.c ****     return( mbedtls_x509_crt_verify_restartable( crt, trust_ca, ca_crl,
 7735              		.loc 2 2504 0
 7736 000e 0023     		movs	r3, #0
 7737 0010 0493     		str	r3, [sp, #16]
 7738 0012 3B6A     		ldr	r3, [r7, #32]
 7739 0014 0393     		str	r3, [sp, #12]
 7740 0016 FB69     		ldr	r3, [r7, #28]
 7741 0018 0293     		str	r3, [sp, #8]
 7742 001a BB69     		ldr	r3, [r7, #24]
 7743 001c 0193     		str	r3, [sp, #4]
 7744 001e 3B68     		ldr	r3, [r7]
 7745 0020 0093     		str	r3, [sp]
 7746 0022 054B     		ldr	r3, .L537
 7747 0024 7A68     		ldr	r2, [r7, #4]
 7748 0026 B968     		ldr	r1, [r7, #8]
 7749 0028 F868     		ldr	r0, [r7, #12]
 7750 002a FFF7FEFF 		bl	mbedtls_x509_crt_verify_restartable
 7751 002e 0346     		mov	r3, r0
2505:C:/Users/dtjld/workspace/AIoT/src/LiteOS_Lab/iot_link/network/dtls/mbedtls/mbedtls-2.16.2/library\x509_crt.c ****                 &mbedtls_x509_crt_profile_default, cn, flags,
2506:C:/Users/dtjld/workspace/AIoT/src/LiteOS_Lab/iot_link/network/dtls/mbedtls/mbedtls-2.16.2/library\x509_crt.c ****                 f_vrfy, p_vrfy, NULL ) );
2507:C:/Users/dtjld/workspace/AIoT/src/LiteOS_Lab/iot_link/network/dtls/mbedtls/mbedtls-2.16.2/library\x509_crt.c **** }
 7752              		.loc 2 2507 0
 7753 0030 1846     		mov	r0, r3
 7754 0032 1037     		adds	r7, r7, #16
 7755              	.LCFI210:
 7756              		.cfi_def_cfa_offset 8
 7757 0034 BD46     		mov	sp, r7
 7758              	.LCFI211:
 7759              		.cfi_def_cfa_register 13
 7760              		@ sp needed
 7761 0036 80BD     		pop	{r7, pc}
 7762              	.L538:
 7763              		.align	2
 7764              	.L537:
 7765 0038 00000000 		.word	mbedtls_x509_crt_profile_default
 7766              		.cfi_endproc
 7767              	.LFE52:
 7769              		.section	.text.mbedtls_x509_crt_verify_with_profile,"ax",%progbits
 7770              		.align	1
 7771              		.global	mbedtls_x509_crt_verify_with_profile
 7772              		.syntax unified
 7773              		.thumb
 7774              		.thumb_func
 7775              		.fpu fpv4-sp-d16
 7777              	mbedtls_x509_crt_verify_with_profile:
 7778              	.LFB53:
2508:C:/Users/dtjld/workspace/AIoT/src/LiteOS_Lab/iot_link/network/dtls/mbedtls/mbedtls-2.16.2/library\x509_crt.c **** 
2509:C:/Users/dtjld/workspace/AIoT/src/LiteOS_Lab/iot_link/network/dtls/mbedtls/mbedtls-2.16.2/library\x509_crt.c **** /*
2510:C:/Users/dtjld/workspace/AIoT/src/LiteOS_Lab/iot_link/network/dtls/mbedtls/mbedtls-2.16.2/library\x509_crt.c ****  * Verify the certificate validity (user-chosen profile, not restartable)
2511:C:/Users/dtjld/workspace/AIoT/src/LiteOS_Lab/iot_link/network/dtls/mbedtls/mbedtls-2.16.2/library\x509_crt.c ****  */
2512:C:/Users/dtjld/workspace/AIoT/src/LiteOS_Lab/iot_link/network/dtls/mbedtls/mbedtls-2.16.2/library\x509_crt.c **** int mbedtls_x509_crt_verify_with_profile( mbedtls_x509_crt *crt,
2513:C:/Users/dtjld/workspace/AIoT/src/LiteOS_Lab/iot_link/network/dtls/mbedtls/mbedtls-2.16.2/library\x509_crt.c ****                      mbedtls_x509_crt *trust_ca,
ARM GAS  C:\Users\dtjld\AppData\Local\Temp\ccTXdst3.s 			page 189


2514:C:/Users/dtjld/workspace/AIoT/src/LiteOS_Lab/iot_link/network/dtls/mbedtls/mbedtls-2.16.2/library\x509_crt.c ****                      mbedtls_x509_crl *ca_crl,
2515:C:/Users/dtjld/workspace/AIoT/src/LiteOS_Lab/iot_link/network/dtls/mbedtls/mbedtls-2.16.2/library\x509_crt.c ****                      const mbedtls_x509_crt_profile *profile,
2516:C:/Users/dtjld/workspace/AIoT/src/LiteOS_Lab/iot_link/network/dtls/mbedtls/mbedtls-2.16.2/library\x509_crt.c ****                      const char *cn, uint32_t *flags,
2517:C:/Users/dtjld/workspace/AIoT/src/LiteOS_Lab/iot_link/network/dtls/mbedtls/mbedtls-2.16.2/library\x509_crt.c ****                      int (*f_vrfy)(void *, mbedtls_x509_crt *, int, uint32_t *),
2518:C:/Users/dtjld/workspace/AIoT/src/LiteOS_Lab/iot_link/network/dtls/mbedtls/mbedtls-2.16.2/library\x509_crt.c ****                      void *p_vrfy )
2519:C:/Users/dtjld/workspace/AIoT/src/LiteOS_Lab/iot_link/network/dtls/mbedtls/mbedtls-2.16.2/library\x509_crt.c **** {
 7779              		.loc 2 2519 0
 7780              		.cfi_startproc
 7781              		@ args = 16, pretend = 0, frame = 16
 7782              		@ frame_needed = 1, uses_anonymous_args = 0
 7783 0000 80B5     		push	{r7, lr}
 7784              	.LCFI212:
 7785              		.cfi_def_cfa_offset 8
 7786              		.cfi_offset 7, -8
 7787              		.cfi_offset 14, -4
 7788 0002 8AB0     		sub	sp, sp, #40
 7789              	.LCFI213:
 7790              		.cfi_def_cfa_offset 48
 7791 0004 06AF     		add	r7, sp, #24
 7792              	.LCFI214:
 7793              		.cfi_def_cfa 7, 24
 7794 0006 F860     		str	r0, [r7, #12]
 7795 0008 B960     		str	r1, [r7, #8]
 7796 000a 7A60     		str	r2, [r7, #4]
 7797 000c 3B60     		str	r3, [r7]
2520:C:/Users/dtjld/workspace/AIoT/src/LiteOS_Lab/iot_link/network/dtls/mbedtls/mbedtls-2.16.2/library\x509_crt.c ****     return( mbedtls_x509_crt_verify_restartable( crt, trust_ca, ca_crl,
 7798              		.loc 2 2520 0
 7799 000e 0023     		movs	r3, #0
 7800 0010 0493     		str	r3, [sp, #16]
 7801 0012 7B6A     		ldr	r3, [r7, #36]
 7802 0014 0393     		str	r3, [sp, #12]
 7803 0016 3B6A     		ldr	r3, [r7, #32]
 7804 0018 0293     		str	r3, [sp, #8]
 7805 001a FB69     		ldr	r3, [r7, #28]
 7806 001c 0193     		str	r3, [sp, #4]
 7807 001e BB69     		ldr	r3, [r7, #24]
 7808 0020 0093     		str	r3, [sp]
 7809 0022 3B68     		ldr	r3, [r7]
 7810 0024 7A68     		ldr	r2, [r7, #4]
 7811 0026 B968     		ldr	r1, [r7, #8]
 7812 0028 F868     		ldr	r0, [r7, #12]
 7813 002a FFF7FEFF 		bl	mbedtls_x509_crt_verify_restartable
 7814 002e 0346     		mov	r3, r0
2521:C:/Users/dtjld/workspace/AIoT/src/LiteOS_Lab/iot_link/network/dtls/mbedtls/mbedtls-2.16.2/library\x509_crt.c ****                 profile, cn, flags, f_vrfy, p_vrfy, NULL ) );
2522:C:/Users/dtjld/workspace/AIoT/src/LiteOS_Lab/iot_link/network/dtls/mbedtls/mbedtls-2.16.2/library\x509_crt.c **** }
 7815              		.loc 2 2522 0
 7816 0030 1846     		mov	r0, r3
 7817 0032 1037     		adds	r7, r7, #16
 7818              	.LCFI215:
 7819              		.cfi_def_cfa_offset 8
 7820 0034 BD46     		mov	sp, r7
 7821              	.LCFI216:
 7822              		.cfi_def_cfa_register 13
 7823              		@ sp needed
 7824 0036 80BD     		pop	{r7, pc}
 7825              		.cfi_endproc
 7826              	.LFE53:
ARM GAS  C:\Users\dtjld\AppData\Local\Temp\ccTXdst3.s 			page 190


 7828              		.section	.text.mbedtls_x509_crt_verify_restartable,"ax",%progbits
 7829              		.align	1
 7830              		.global	mbedtls_x509_crt_verify_restartable
 7831              		.syntax unified
 7832              		.thumb
 7833              		.thumb_func
 7834              		.fpu fpv4-sp-d16
 7836              	mbedtls_x509_crt_verify_restartable:
 7837              	.LFB54:
2523:C:/Users/dtjld/workspace/AIoT/src/LiteOS_Lab/iot_link/network/dtls/mbedtls/mbedtls-2.16.2/library\x509_crt.c **** 
2524:C:/Users/dtjld/workspace/AIoT/src/LiteOS_Lab/iot_link/network/dtls/mbedtls/mbedtls-2.16.2/library\x509_crt.c **** /*
2525:C:/Users/dtjld/workspace/AIoT/src/LiteOS_Lab/iot_link/network/dtls/mbedtls/mbedtls-2.16.2/library\x509_crt.c ****  * Verify the certificate validity, with profile, restartable version
2526:C:/Users/dtjld/workspace/AIoT/src/LiteOS_Lab/iot_link/network/dtls/mbedtls/mbedtls-2.16.2/library\x509_crt.c ****  *
2527:C:/Users/dtjld/workspace/AIoT/src/LiteOS_Lab/iot_link/network/dtls/mbedtls/mbedtls-2.16.2/library\x509_crt.c ****  * This function:
2528:C:/Users/dtjld/workspace/AIoT/src/LiteOS_Lab/iot_link/network/dtls/mbedtls/mbedtls-2.16.2/library\x509_crt.c ****  *  - checks the requested CN (if any)
2529:C:/Users/dtjld/workspace/AIoT/src/LiteOS_Lab/iot_link/network/dtls/mbedtls/mbedtls-2.16.2/library\x509_crt.c ****  *  - checks the type and size of the EE cert's key,
2530:C:/Users/dtjld/workspace/AIoT/src/LiteOS_Lab/iot_link/network/dtls/mbedtls/mbedtls-2.16.2/library\x509_crt.c ****  *    as that isn't done as part of chain building/verification currently
2531:C:/Users/dtjld/workspace/AIoT/src/LiteOS_Lab/iot_link/network/dtls/mbedtls/mbedtls-2.16.2/library\x509_crt.c ****  *  - builds and verifies the chain
2532:C:/Users/dtjld/workspace/AIoT/src/LiteOS_Lab/iot_link/network/dtls/mbedtls/mbedtls-2.16.2/library\x509_crt.c ****  *  - then calls the callback and merges the flags
2533:C:/Users/dtjld/workspace/AIoT/src/LiteOS_Lab/iot_link/network/dtls/mbedtls/mbedtls-2.16.2/library\x509_crt.c ****  */
2534:C:/Users/dtjld/workspace/AIoT/src/LiteOS_Lab/iot_link/network/dtls/mbedtls/mbedtls-2.16.2/library\x509_crt.c **** int mbedtls_x509_crt_verify_restartable( mbedtls_x509_crt *crt,
2535:C:/Users/dtjld/workspace/AIoT/src/LiteOS_Lab/iot_link/network/dtls/mbedtls/mbedtls-2.16.2/library\x509_crt.c ****                      mbedtls_x509_crt *trust_ca,
2536:C:/Users/dtjld/workspace/AIoT/src/LiteOS_Lab/iot_link/network/dtls/mbedtls/mbedtls-2.16.2/library\x509_crt.c ****                      mbedtls_x509_crl *ca_crl,
2537:C:/Users/dtjld/workspace/AIoT/src/LiteOS_Lab/iot_link/network/dtls/mbedtls/mbedtls-2.16.2/library\x509_crt.c ****                      const mbedtls_x509_crt_profile *profile,
2538:C:/Users/dtjld/workspace/AIoT/src/LiteOS_Lab/iot_link/network/dtls/mbedtls/mbedtls-2.16.2/library\x509_crt.c ****                      const char *cn, uint32_t *flags,
2539:C:/Users/dtjld/workspace/AIoT/src/LiteOS_Lab/iot_link/network/dtls/mbedtls/mbedtls-2.16.2/library\x509_crt.c ****                      int (*f_vrfy)(void *, mbedtls_x509_crt *, int, uint32_t *),
2540:C:/Users/dtjld/workspace/AIoT/src/LiteOS_Lab/iot_link/network/dtls/mbedtls/mbedtls-2.16.2/library\x509_crt.c ****                      void *p_vrfy,
2541:C:/Users/dtjld/workspace/AIoT/src/LiteOS_Lab/iot_link/network/dtls/mbedtls/mbedtls-2.16.2/library\x509_crt.c ****                      mbedtls_x509_crt_restart_ctx *rs_ctx )
2542:C:/Users/dtjld/workspace/AIoT/src/LiteOS_Lab/iot_link/network/dtls/mbedtls/mbedtls-2.16.2/library\x509_crt.c **** {
 7838              		.loc 2 2542 0
 7839              		.cfi_startproc
 7840              		@ args = 20, pretend = 0, frame = 112
 7841              		@ frame_needed = 1, uses_anonymous_args = 0
 7842 0000 80B5     		push	{r7, lr}
 7843              	.LCFI217:
 7844              		.cfi_def_cfa_offset 8
 7845              		.cfi_offset 7, -8
 7846              		.cfi_offset 14, -4
 7847 0002 9EB0     		sub	sp, sp, #120
 7848              	.LCFI218:
 7849              		.cfi_def_cfa_offset 128
 7850 0004 02AF     		add	r7, sp, #8
 7851              	.LCFI219:
 7852              		.cfi_def_cfa 7, 120
 7853 0006 F860     		str	r0, [r7, #12]
 7854 0008 B960     		str	r1, [r7, #8]
 7855 000a 7A60     		str	r2, [r7, #4]
 7856 000c 3B60     		str	r3, [r7]
2543:C:/Users/dtjld/workspace/AIoT/src/LiteOS_Lab/iot_link/network/dtls/mbedtls/mbedtls-2.16.2/library\x509_crt.c ****     int ret;
2544:C:/Users/dtjld/workspace/AIoT/src/LiteOS_Lab/iot_link/network/dtls/mbedtls/mbedtls-2.16.2/library\x509_crt.c ****     mbedtls_pk_type_t pk_type;
2545:C:/Users/dtjld/workspace/AIoT/src/LiteOS_Lab/iot_link/network/dtls/mbedtls/mbedtls-2.16.2/library\x509_crt.c ****     mbedtls_x509_crt_verify_chain ver_chain;
2546:C:/Users/dtjld/workspace/AIoT/src/LiteOS_Lab/iot_link/network/dtls/mbedtls/mbedtls-2.16.2/library\x509_crt.c ****     uint32_t ee_flags;
2547:C:/Users/dtjld/workspace/AIoT/src/LiteOS_Lab/iot_link/network/dtls/mbedtls/mbedtls-2.16.2/library\x509_crt.c **** 
2548:C:/Users/dtjld/workspace/AIoT/src/LiteOS_Lab/iot_link/network/dtls/mbedtls/mbedtls-2.16.2/library\x509_crt.c ****     *flags = 0;
 7857              		.loc 2 2548 0
 7858 000e FB6F     		ldr	r3, [r7, #124]
 7859 0010 0022     		movs	r2, #0
ARM GAS  C:\Users\dtjld\AppData\Local\Temp\ccTXdst3.s 			page 191


 7860 0012 1A60     		str	r2, [r3]
2549:C:/Users/dtjld/workspace/AIoT/src/LiteOS_Lab/iot_link/network/dtls/mbedtls/mbedtls-2.16.2/library\x509_crt.c ****     ee_flags = 0;
 7861              		.loc 2 2549 0
 7862 0014 0023     		movs	r3, #0
 7863 0016 3B61     		str	r3, [r7, #16]
2550:C:/Users/dtjld/workspace/AIoT/src/LiteOS_Lab/iot_link/network/dtls/mbedtls/mbedtls-2.16.2/library\x509_crt.c ****     x509_crt_verify_chain_reset( &ver_chain );
 7864              		.loc 2 2550 0
 7865 0018 07F11403 		add	r3, r7, #20
 7866 001c 1846     		mov	r0, r3
 7867 001e FFF7FEFF 		bl	x509_crt_verify_chain_reset
2551:C:/Users/dtjld/workspace/AIoT/src/LiteOS_Lab/iot_link/network/dtls/mbedtls/mbedtls-2.16.2/library\x509_crt.c **** 
2552:C:/Users/dtjld/workspace/AIoT/src/LiteOS_Lab/iot_link/network/dtls/mbedtls/mbedtls-2.16.2/library\x509_crt.c ****     if( profile == NULL )
 7868              		.loc 2 2552 0
 7869 0022 3B68     		ldr	r3, [r7]
 7870 0024 002B     		cmp	r3, #0
 7871 0026 02D1     		bne	.L542
2553:C:/Users/dtjld/workspace/AIoT/src/LiteOS_Lab/iot_link/network/dtls/mbedtls/mbedtls-2.16.2/library\x509_crt.c ****     {
2554:C:/Users/dtjld/workspace/AIoT/src/LiteOS_Lab/iot_link/network/dtls/mbedtls/mbedtls-2.16.2/library\x509_crt.c ****         ret = MBEDTLS_ERR_X509_BAD_INPUT_DATA;
 7872              		.loc 2 2554 0
 7873 0028 344B     		ldr	r3, .L554
 7874 002a FB66     		str	r3, [r7, #108]
2555:C:/Users/dtjld/workspace/AIoT/src/LiteOS_Lab/iot_link/network/dtls/mbedtls/mbedtls-2.16.2/library\x509_crt.c ****         goto exit;
 7875              		.loc 2 2555 0
 7876 002c 4BE0     		b	.L543
 7877              	.L542:
2556:C:/Users/dtjld/workspace/AIoT/src/LiteOS_Lab/iot_link/network/dtls/mbedtls/mbedtls-2.16.2/library\x509_crt.c ****     }
2557:C:/Users/dtjld/workspace/AIoT/src/LiteOS_Lab/iot_link/network/dtls/mbedtls/mbedtls-2.16.2/library\x509_crt.c **** 
2558:C:/Users/dtjld/workspace/AIoT/src/LiteOS_Lab/iot_link/network/dtls/mbedtls/mbedtls-2.16.2/library\x509_crt.c ****     /* check name if requested */
2559:C:/Users/dtjld/workspace/AIoT/src/LiteOS_Lab/iot_link/network/dtls/mbedtls/mbedtls-2.16.2/library\x509_crt.c ****     if( cn != NULL )
 7878              		.loc 2 2559 0
 7879 002e BB6F     		ldr	r3, [r7, #120]
 7880 0030 002B     		cmp	r3, #0
 7881 0032 06D0     		beq	.L544
2560:C:/Users/dtjld/workspace/AIoT/src/LiteOS_Lab/iot_link/network/dtls/mbedtls/mbedtls-2.16.2/library\x509_crt.c ****         x509_crt_verify_name( crt, cn, &ee_flags );
 7882              		.loc 2 2560 0
 7883 0034 07F11003 		add	r3, r7, #16
 7884 0038 1A46     		mov	r2, r3
 7885 003a B96F     		ldr	r1, [r7, #120]
 7886 003c F868     		ldr	r0, [r7, #12]
 7887 003e FFF7FEFF 		bl	x509_crt_verify_name
 7888              	.L544:
2561:C:/Users/dtjld/workspace/AIoT/src/LiteOS_Lab/iot_link/network/dtls/mbedtls/mbedtls-2.16.2/library\x509_crt.c **** 
2562:C:/Users/dtjld/workspace/AIoT/src/LiteOS_Lab/iot_link/network/dtls/mbedtls/mbedtls-2.16.2/library\x509_crt.c ****     /* Check the type and size of the key */
2563:C:/Users/dtjld/workspace/AIoT/src/LiteOS_Lab/iot_link/network/dtls/mbedtls/mbedtls-2.16.2/library\x509_crt.c ****     pk_type = mbedtls_pk_get_type( &crt->pk );
 7889              		.loc 2 2563 0
 7890 0042 FB68     		ldr	r3, [r7, #12]
 7891 0044 BC33     		adds	r3, r3, #188
 7892 0046 1846     		mov	r0, r3
 7893 0048 FFF7FEFF 		bl	mbedtls_pk_get_type
 7894 004c 0346     		mov	r3, r0
 7895 004e 87F86B30 		strb	r3, [r7, #107]
2564:C:/Users/dtjld/workspace/AIoT/src/LiteOS_Lab/iot_link/network/dtls/mbedtls/mbedtls-2.16.2/library\x509_crt.c **** 
2565:C:/Users/dtjld/workspace/AIoT/src/LiteOS_Lab/iot_link/network/dtls/mbedtls/mbedtls-2.16.2/library\x509_crt.c ****     if( x509_profile_check_pk_alg( profile, pk_type ) != 0 )
 7896              		.loc 2 2565 0
 7897 0052 97F86B30 		ldrb	r3, [r7, #107]	@ zero_extendqisi2
 7898 0056 1946     		mov	r1, r3
 7899 0058 3868     		ldr	r0, [r7]
ARM GAS  C:\Users\dtjld\AppData\Local\Temp\ccTXdst3.s 			page 192


 7900 005a FFF7FEFF 		bl	x509_profile_check_pk_alg
 7901 005e 0346     		mov	r3, r0
 7902 0060 002B     		cmp	r3, #0
 7903 0062 03D0     		beq	.L545
2566:C:/Users/dtjld/workspace/AIoT/src/LiteOS_Lab/iot_link/network/dtls/mbedtls/mbedtls-2.16.2/library\x509_crt.c ****         ee_flags |= MBEDTLS_X509_BADCERT_BAD_PK;
 7904              		.loc 2 2566 0
 7905 0064 3B69     		ldr	r3, [r7, #16]
 7906 0066 43F40043 		orr	r3, r3, #32768
 7907 006a 3B61     		str	r3, [r7, #16]
 7908              	.L545:
2567:C:/Users/dtjld/workspace/AIoT/src/LiteOS_Lab/iot_link/network/dtls/mbedtls/mbedtls-2.16.2/library\x509_crt.c **** 
2568:C:/Users/dtjld/workspace/AIoT/src/LiteOS_Lab/iot_link/network/dtls/mbedtls/mbedtls-2.16.2/library\x509_crt.c ****     if( x509_profile_check_key( profile, &crt->pk ) != 0 )
 7909              		.loc 2 2568 0
 7910 006c FB68     		ldr	r3, [r7, #12]
 7911 006e BC33     		adds	r3, r3, #188
 7912 0070 1946     		mov	r1, r3
 7913 0072 3868     		ldr	r0, [r7]
 7914 0074 FFF7FEFF 		bl	x509_profile_check_key
 7915 0078 0346     		mov	r3, r0
 7916 007a 002B     		cmp	r3, #0
 7917 007c 03D0     		beq	.L546
2569:C:/Users/dtjld/workspace/AIoT/src/LiteOS_Lab/iot_link/network/dtls/mbedtls/mbedtls-2.16.2/library\x509_crt.c ****         ee_flags |= MBEDTLS_X509_BADCERT_BAD_KEY;
 7918              		.loc 2 2569 0
 7919 007e 3B69     		ldr	r3, [r7, #16]
 7920 0080 43F48033 		orr	r3, r3, #65536
 7921 0084 3B61     		str	r3, [r7, #16]
 7922              	.L546:
2570:C:/Users/dtjld/workspace/AIoT/src/LiteOS_Lab/iot_link/network/dtls/mbedtls/mbedtls-2.16.2/library\x509_crt.c **** 
2571:C:/Users/dtjld/workspace/AIoT/src/LiteOS_Lab/iot_link/network/dtls/mbedtls/mbedtls-2.16.2/library\x509_crt.c ****     /* Check the chain */
2572:C:/Users/dtjld/workspace/AIoT/src/LiteOS_Lab/iot_link/network/dtls/mbedtls/mbedtls-2.16.2/library\x509_crt.c ****     ret = x509_crt_verify_chain( crt, trust_ca, ca_crl, profile,
 7923              		.loc 2 2572 0
 7924 0086 D7F88830 		ldr	r3, [r7, #136]
 7925 008a 0193     		str	r3, [sp, #4]
 7926 008c 07F11403 		add	r3, r7, #20
 7927 0090 0093     		str	r3, [sp]
 7928 0092 3B68     		ldr	r3, [r7]
 7929 0094 7A68     		ldr	r2, [r7, #4]
 7930 0096 B968     		ldr	r1, [r7, #8]
 7931 0098 F868     		ldr	r0, [r7, #12]
 7932 009a FFF7FEFF 		bl	x509_crt_verify_chain
 7933 009e F866     		str	r0, [r7, #108]
2573:C:/Users/dtjld/workspace/AIoT/src/LiteOS_Lab/iot_link/network/dtls/mbedtls/mbedtls-2.16.2/library\x509_crt.c ****                                  &ver_chain, rs_ctx );
2574:C:/Users/dtjld/workspace/AIoT/src/LiteOS_Lab/iot_link/network/dtls/mbedtls/mbedtls-2.16.2/library\x509_crt.c **** 
2575:C:/Users/dtjld/workspace/AIoT/src/LiteOS_Lab/iot_link/network/dtls/mbedtls/mbedtls-2.16.2/library\x509_crt.c ****     if( ret != 0 )
 7934              		.loc 2 2575 0
 7935 00a0 FB6E     		ldr	r3, [r7, #108]
 7936 00a2 002B     		cmp	r3, #0
 7937 00a4 0ED1     		bne	.L553
2576:C:/Users/dtjld/workspace/AIoT/src/LiteOS_Lab/iot_link/network/dtls/mbedtls/mbedtls-2.16.2/library\x509_crt.c ****         goto exit;
2577:C:/Users/dtjld/workspace/AIoT/src/LiteOS_Lab/iot_link/network/dtls/mbedtls/mbedtls-2.16.2/library\x509_crt.c **** 
2578:C:/Users/dtjld/workspace/AIoT/src/LiteOS_Lab/iot_link/network/dtls/mbedtls/mbedtls-2.16.2/library\x509_crt.c ****     /* Merge end-entity flags */
2579:C:/Users/dtjld/workspace/AIoT/src/LiteOS_Lab/iot_link/network/dtls/mbedtls/mbedtls-2.16.2/library\x509_crt.c ****     ver_chain.items[0].flags |= ee_flags;
 7938              		.loc 2 2579 0
 7939 00a6 BA69     		ldr	r2, [r7, #24]
 7940 00a8 3B69     		ldr	r3, [r7, #16]
 7941 00aa 1343     		orrs	r3, r3, r2
 7942 00ac BB61     		str	r3, [r7, #24]
ARM GAS  C:\Users\dtjld\AppData\Local\Temp\ccTXdst3.s 			page 193


2580:C:/Users/dtjld/workspace/AIoT/src/LiteOS_Lab/iot_link/network/dtls/mbedtls/mbedtls-2.16.2/library\x509_crt.c **** 
2581:C:/Users/dtjld/workspace/AIoT/src/LiteOS_Lab/iot_link/network/dtls/mbedtls/mbedtls-2.16.2/library\x509_crt.c ****     /* Build final flags, calling callback on the way if any */
2582:C:/Users/dtjld/workspace/AIoT/src/LiteOS_Lab/iot_link/network/dtls/mbedtls/mbedtls-2.16.2/library\x509_crt.c ****     ret = x509_crt_merge_flags_with_cb( flags, &ver_chain, f_vrfy, p_vrfy );
 7943              		.loc 2 2582 0
 7944 00ae 07F11401 		add	r1, r7, #20
 7945 00b2 D7F88430 		ldr	r3, [r7, #132]
 7946 00b6 D7F88020 		ldr	r2, [r7, #128]
 7947 00ba F86F     		ldr	r0, [r7, #124]
 7948 00bc FFF7FEFF 		bl	x509_crt_merge_flags_with_cb
 7949 00c0 F866     		str	r0, [r7, #108]
 7950 00c2 00E0     		b	.L543
 7951              	.L553:
2576:C:/Users/dtjld/workspace/AIoT/src/LiteOS_Lab/iot_link/network/dtls/mbedtls/mbedtls-2.16.2/library\x509_crt.c ****         goto exit;
 7952              		.loc 2 2576 0
 7953 00c4 00BF     		nop
 7954              	.L543:
2583:C:/Users/dtjld/workspace/AIoT/src/LiteOS_Lab/iot_link/network/dtls/mbedtls/mbedtls-2.16.2/library\x509_crt.c **** 
2584:C:/Users/dtjld/workspace/AIoT/src/LiteOS_Lab/iot_link/network/dtls/mbedtls/mbedtls-2.16.2/library\x509_crt.c **** exit:
2585:C:/Users/dtjld/workspace/AIoT/src/LiteOS_Lab/iot_link/network/dtls/mbedtls/mbedtls-2.16.2/library\x509_crt.c **** #if defined(MBEDTLS_ECDSA_C) && defined(MBEDTLS_ECP_RESTARTABLE)
2586:C:/Users/dtjld/workspace/AIoT/src/LiteOS_Lab/iot_link/network/dtls/mbedtls/mbedtls-2.16.2/library\x509_crt.c ****     if( rs_ctx != NULL && ret != MBEDTLS_ERR_ECP_IN_PROGRESS )
2587:C:/Users/dtjld/workspace/AIoT/src/LiteOS_Lab/iot_link/network/dtls/mbedtls/mbedtls-2.16.2/library\x509_crt.c ****         mbedtls_x509_crt_restart_free( rs_ctx );
2588:C:/Users/dtjld/workspace/AIoT/src/LiteOS_Lab/iot_link/network/dtls/mbedtls/mbedtls-2.16.2/library\x509_crt.c **** #endif
2589:C:/Users/dtjld/workspace/AIoT/src/LiteOS_Lab/iot_link/network/dtls/mbedtls/mbedtls-2.16.2/library\x509_crt.c **** 
2590:C:/Users/dtjld/workspace/AIoT/src/LiteOS_Lab/iot_link/network/dtls/mbedtls/mbedtls-2.16.2/library\x509_crt.c ****     /* prevent misuse of the vrfy callback - VERIFY_FAILED would be ignored by
2591:C:/Users/dtjld/workspace/AIoT/src/LiteOS_Lab/iot_link/network/dtls/mbedtls/mbedtls-2.16.2/library\x509_crt.c ****      * the SSL module for authmode optional, but non-zero return from the
2592:C:/Users/dtjld/workspace/AIoT/src/LiteOS_Lab/iot_link/network/dtls/mbedtls/mbedtls-2.16.2/library\x509_crt.c ****      * callback means a fatal error so it shouldn't be ignored */
2593:C:/Users/dtjld/workspace/AIoT/src/LiteOS_Lab/iot_link/network/dtls/mbedtls/mbedtls-2.16.2/library\x509_crt.c ****     if( ret == MBEDTLS_ERR_X509_CERT_VERIFY_FAILED )
 7955              		.loc 2 2593 0
 7956 00c6 FB6E     		ldr	r3, [r7, #108]
 7957 00c8 13F51C5F 		cmn	r3, #9984
 7958 00cc 01D1     		bne	.L548
2594:C:/Users/dtjld/workspace/AIoT/src/LiteOS_Lab/iot_link/network/dtls/mbedtls/mbedtls-2.16.2/library\x509_crt.c ****         ret = MBEDTLS_ERR_X509_FATAL_ERROR;
 7959              		.loc 2 2594 0
 7960 00ce 0C4B     		ldr	r3, .L554+4
 7961 00d0 FB66     		str	r3, [r7, #108]
 7962              	.L548:
2595:C:/Users/dtjld/workspace/AIoT/src/LiteOS_Lab/iot_link/network/dtls/mbedtls/mbedtls-2.16.2/library\x509_crt.c **** 
2596:C:/Users/dtjld/workspace/AIoT/src/LiteOS_Lab/iot_link/network/dtls/mbedtls/mbedtls-2.16.2/library\x509_crt.c ****     if( ret != 0 )
 7963              		.loc 2 2596 0
 7964 00d2 FB6E     		ldr	r3, [r7, #108]
 7965 00d4 002B     		cmp	r3, #0
 7966 00d6 05D0     		beq	.L549
2597:C:/Users/dtjld/workspace/AIoT/src/LiteOS_Lab/iot_link/network/dtls/mbedtls/mbedtls-2.16.2/library\x509_crt.c ****     {
2598:C:/Users/dtjld/workspace/AIoT/src/LiteOS_Lab/iot_link/network/dtls/mbedtls/mbedtls-2.16.2/library\x509_crt.c ****         *flags = (uint32_t) -1;
 7967              		.loc 2 2598 0
 7968 00d8 FB6F     		ldr	r3, [r7, #124]
 7969 00da 4FF0FF32 		mov	r2, #-1
 7970 00de 1A60     		str	r2, [r3]
2599:C:/Users/dtjld/workspace/AIoT/src/LiteOS_Lab/iot_link/network/dtls/mbedtls/mbedtls-2.16.2/library\x509_crt.c ****         return( ret );
 7971              		.loc 2 2599 0
 7972 00e0 FB6E     		ldr	r3, [r7, #108]
 7973 00e2 06E0     		b	.L552
 7974              	.L549:
2600:C:/Users/dtjld/workspace/AIoT/src/LiteOS_Lab/iot_link/network/dtls/mbedtls/mbedtls-2.16.2/library\x509_crt.c ****     }
2601:C:/Users/dtjld/workspace/AIoT/src/LiteOS_Lab/iot_link/network/dtls/mbedtls/mbedtls-2.16.2/library\x509_crt.c **** 
2602:C:/Users/dtjld/workspace/AIoT/src/LiteOS_Lab/iot_link/network/dtls/mbedtls/mbedtls-2.16.2/library\x509_crt.c ****     if( *flags != 0 )
 7975              		.loc 2 2602 0
ARM GAS  C:\Users\dtjld\AppData\Local\Temp\ccTXdst3.s 			page 194


 7976 00e4 FB6F     		ldr	r3, [r7, #124]
 7977 00e6 1B68     		ldr	r3, [r3]
 7978 00e8 002B     		cmp	r3, #0
 7979 00ea 01D0     		beq	.L551
2603:C:/Users/dtjld/workspace/AIoT/src/LiteOS_Lab/iot_link/network/dtls/mbedtls/mbedtls-2.16.2/library\x509_crt.c ****         return( MBEDTLS_ERR_X509_CERT_VERIFY_FAILED );
 7980              		.loc 2 2603 0
 7981 00ec 054B     		ldr	r3, .L554+8
 7982 00ee 00E0     		b	.L552
 7983              	.L551:
2604:C:/Users/dtjld/workspace/AIoT/src/LiteOS_Lab/iot_link/network/dtls/mbedtls/mbedtls-2.16.2/library\x509_crt.c **** 
2605:C:/Users/dtjld/workspace/AIoT/src/LiteOS_Lab/iot_link/network/dtls/mbedtls/mbedtls-2.16.2/library\x509_crt.c ****     return( 0 );
 7984              		.loc 2 2605 0
 7985 00f0 0023     		movs	r3, #0
 7986              	.L552:
2606:C:/Users/dtjld/workspace/AIoT/src/LiteOS_Lab/iot_link/network/dtls/mbedtls/mbedtls-2.16.2/library\x509_crt.c **** }
 7987              		.loc 2 2606 0 discriminator 1
 7988 00f2 1846     		mov	r0, r3
 7989 00f4 7037     		adds	r7, r7, #112
 7990              	.LCFI220:
 7991              		.cfi_def_cfa_offset 8
 7992 00f6 BD46     		mov	sp, r7
 7993              	.LCFI221:
 7994              		.cfi_def_cfa_register 13
 7995              		@ sp needed
 7996 00f8 80BD     		pop	{r7, pc}
 7997              	.L555:
 7998 00fa 00BF     		.align	2
 7999              	.L554:
 8000 00fc 00D8FFFF 		.word	-10240
 8001 0100 00D0FFFF 		.word	-12288
 8002 0104 00D9FFFF 		.word	-9984
 8003              		.cfi_endproc
 8004              	.LFE54:
 8006              		.section	.text.mbedtls_x509_crt_init,"ax",%progbits
 8007              		.align	1
 8008              		.global	mbedtls_x509_crt_init
 8009              		.syntax unified
 8010              		.thumb
 8011              		.thumb_func
 8012              		.fpu fpv4-sp-d16
 8014              	mbedtls_x509_crt_init:
 8015              	.LFB55:
2607:C:/Users/dtjld/workspace/AIoT/src/LiteOS_Lab/iot_link/network/dtls/mbedtls/mbedtls-2.16.2/library\x509_crt.c **** 
2608:C:/Users/dtjld/workspace/AIoT/src/LiteOS_Lab/iot_link/network/dtls/mbedtls/mbedtls-2.16.2/library\x509_crt.c **** /*
2609:C:/Users/dtjld/workspace/AIoT/src/LiteOS_Lab/iot_link/network/dtls/mbedtls/mbedtls-2.16.2/library\x509_crt.c ****  * Initialize a certificate chain
2610:C:/Users/dtjld/workspace/AIoT/src/LiteOS_Lab/iot_link/network/dtls/mbedtls/mbedtls-2.16.2/library\x509_crt.c ****  */
2611:C:/Users/dtjld/workspace/AIoT/src/LiteOS_Lab/iot_link/network/dtls/mbedtls/mbedtls-2.16.2/library\x509_crt.c **** void mbedtls_x509_crt_init( mbedtls_x509_crt *crt )
2612:C:/Users/dtjld/workspace/AIoT/src/LiteOS_Lab/iot_link/network/dtls/mbedtls/mbedtls-2.16.2/library\x509_crt.c **** {
 8016              		.loc 2 2612 0
 8017              		.cfi_startproc
 8018              		@ args = 0, pretend = 0, frame = 8
 8019              		@ frame_needed = 1, uses_anonymous_args = 0
 8020 0000 80B5     		push	{r7, lr}
 8021              	.LCFI222:
 8022              		.cfi_def_cfa_offset 8
 8023              		.cfi_offset 7, -8
 8024              		.cfi_offset 14, -4
ARM GAS  C:\Users\dtjld\AppData\Local\Temp\ccTXdst3.s 			page 195


 8025 0002 82B0     		sub	sp, sp, #8
 8026              	.LCFI223:
 8027              		.cfi_def_cfa_offset 16
 8028 0004 00AF     		add	r7, sp, #0
 8029              	.LCFI224:
 8030              		.cfi_def_cfa_register 7
 8031 0006 7860     		str	r0, [r7, #4]
2613:C:/Users/dtjld/workspace/AIoT/src/LiteOS_Lab/iot_link/network/dtls/mbedtls/mbedtls-2.16.2/library\x509_crt.c ****     memset( crt, 0, sizeof(mbedtls_x509_crt) );
 8032              		.loc 2 2613 0
 8033 0008 4FF49A72 		mov	r2, #308
 8034 000c 0021     		movs	r1, #0
 8035 000e 7868     		ldr	r0, [r7, #4]
 8036 0010 FFF7FEFF 		bl	memset
2614:C:/Users/dtjld/workspace/AIoT/src/LiteOS_Lab/iot_link/network/dtls/mbedtls/mbedtls-2.16.2/library\x509_crt.c **** }
 8037              		.loc 2 2614 0
 8038 0014 00BF     		nop
 8039 0016 0837     		adds	r7, r7, #8
 8040              	.LCFI225:
 8041              		.cfi_def_cfa_offset 8
 8042 0018 BD46     		mov	sp, r7
 8043              	.LCFI226:
 8044              		.cfi_def_cfa_register 13
 8045              		@ sp needed
 8046 001a 80BD     		pop	{r7, pc}
 8047              		.cfi_endproc
 8048              	.LFE55:
 8050              		.section	.text.mbedtls_x509_crt_free,"ax",%progbits
 8051              		.align	1
 8052              		.global	mbedtls_x509_crt_free
 8053              		.syntax unified
 8054              		.thumb
 8055              		.thumb_func
 8056              		.fpu fpv4-sp-d16
 8058              	mbedtls_x509_crt_free:
 8059              	.LFB56:
2615:C:/Users/dtjld/workspace/AIoT/src/LiteOS_Lab/iot_link/network/dtls/mbedtls/mbedtls-2.16.2/library\x509_crt.c **** 
2616:C:/Users/dtjld/workspace/AIoT/src/LiteOS_Lab/iot_link/network/dtls/mbedtls/mbedtls-2.16.2/library\x509_crt.c **** /*
2617:C:/Users/dtjld/workspace/AIoT/src/LiteOS_Lab/iot_link/network/dtls/mbedtls/mbedtls-2.16.2/library\x509_crt.c ****  * Unallocate all certificate data
2618:C:/Users/dtjld/workspace/AIoT/src/LiteOS_Lab/iot_link/network/dtls/mbedtls/mbedtls-2.16.2/library\x509_crt.c ****  */
2619:C:/Users/dtjld/workspace/AIoT/src/LiteOS_Lab/iot_link/network/dtls/mbedtls/mbedtls-2.16.2/library\x509_crt.c **** void mbedtls_x509_crt_free( mbedtls_x509_crt *crt )
2620:C:/Users/dtjld/workspace/AIoT/src/LiteOS_Lab/iot_link/network/dtls/mbedtls/mbedtls-2.16.2/library\x509_crt.c **** {
 8060              		.loc 2 2620 0
 8061              		.cfi_startproc
 8062              		@ args = 0, pretend = 0, frame = 32
 8063              		@ frame_needed = 1, uses_anonymous_args = 0
 8064 0000 80B5     		push	{r7, lr}
 8065              	.LCFI227:
 8066              		.cfi_def_cfa_offset 8
 8067              		.cfi_offset 7, -8
 8068              		.cfi_offset 14, -4
 8069 0002 88B0     		sub	sp, sp, #32
 8070              	.LCFI228:
 8071              		.cfi_def_cfa_offset 40
 8072 0004 00AF     		add	r7, sp, #0
 8073              	.LCFI229:
 8074              		.cfi_def_cfa_register 7
 8075 0006 7860     		str	r0, [r7, #4]
ARM GAS  C:\Users\dtjld\AppData\Local\Temp\ccTXdst3.s 			page 196


2621:C:/Users/dtjld/workspace/AIoT/src/LiteOS_Lab/iot_link/network/dtls/mbedtls/mbedtls-2.16.2/library\x509_crt.c ****     mbedtls_x509_crt *cert_cur = crt;
 8076              		.loc 2 2621 0
 8077 0008 7B68     		ldr	r3, [r7, #4]
 8078 000a FB61     		str	r3, [r7, #28]
2622:C:/Users/dtjld/workspace/AIoT/src/LiteOS_Lab/iot_link/network/dtls/mbedtls/mbedtls-2.16.2/library\x509_crt.c ****     mbedtls_x509_crt *cert_prv;
2623:C:/Users/dtjld/workspace/AIoT/src/LiteOS_Lab/iot_link/network/dtls/mbedtls/mbedtls-2.16.2/library\x509_crt.c ****     mbedtls_x509_name *name_cur;
2624:C:/Users/dtjld/workspace/AIoT/src/LiteOS_Lab/iot_link/network/dtls/mbedtls/mbedtls-2.16.2/library\x509_crt.c ****     mbedtls_x509_name *name_prv;
2625:C:/Users/dtjld/workspace/AIoT/src/LiteOS_Lab/iot_link/network/dtls/mbedtls/mbedtls-2.16.2/library\x509_crt.c ****     mbedtls_x509_sequence *seq_cur;
2626:C:/Users/dtjld/workspace/AIoT/src/LiteOS_Lab/iot_link/network/dtls/mbedtls/mbedtls-2.16.2/library\x509_crt.c ****     mbedtls_x509_sequence *seq_prv;
2627:C:/Users/dtjld/workspace/AIoT/src/LiteOS_Lab/iot_link/network/dtls/mbedtls/mbedtls-2.16.2/library\x509_crt.c **** 
2628:C:/Users/dtjld/workspace/AIoT/src/LiteOS_Lab/iot_link/network/dtls/mbedtls/mbedtls-2.16.2/library\x509_crt.c ****     if( crt == NULL )
 8079              		.loc 2 2628 0
 8080 000c 7B68     		ldr	r3, [r7, #4]
 8081 000e 002B     		cmp	r3, #0
 8082 0010 00F08A80 		beq	.L571
 8083              	.L558:
2629:C:/Users/dtjld/workspace/AIoT/src/LiteOS_Lab/iot_link/network/dtls/mbedtls/mbedtls-2.16.2/library\x509_crt.c ****         return;
2630:C:/Users/dtjld/workspace/AIoT/src/LiteOS_Lab/iot_link/network/dtls/mbedtls/mbedtls-2.16.2/library\x509_crt.c **** 
2631:C:/Users/dtjld/workspace/AIoT/src/LiteOS_Lab/iot_link/network/dtls/mbedtls/mbedtls-2.16.2/library\x509_crt.c ****     do
2632:C:/Users/dtjld/workspace/AIoT/src/LiteOS_Lab/iot_link/network/dtls/mbedtls/mbedtls-2.16.2/library\x509_crt.c ****     {
2633:C:/Users/dtjld/workspace/AIoT/src/LiteOS_Lab/iot_link/network/dtls/mbedtls/mbedtls-2.16.2/library\x509_crt.c ****         mbedtls_pk_free( &cert_cur->pk );
 8084              		.loc 2 2633 0
 8085 0014 FB69     		ldr	r3, [r7, #28]
 8086 0016 BC33     		adds	r3, r3, #188
 8087 0018 1846     		mov	r0, r3
 8088 001a FFF7FEFF 		bl	mbedtls_pk_free
2634:C:/Users/dtjld/workspace/AIoT/src/LiteOS_Lab/iot_link/network/dtls/mbedtls/mbedtls-2.16.2/library\x509_crt.c **** 
2635:C:/Users/dtjld/workspace/AIoT/src/LiteOS_Lab/iot_link/network/dtls/mbedtls/mbedtls-2.16.2/library\x509_crt.c **** #if defined(MBEDTLS_X509_RSASSA_PSS_SUPPORT)
2636:C:/Users/dtjld/workspace/AIoT/src/LiteOS_Lab/iot_link/network/dtls/mbedtls/mbedtls-2.16.2/library\x509_crt.c ****         mbedtls_free( cert_cur->sig_opts );
 8089              		.loc 2 2636 0
 8090 001e FB69     		ldr	r3, [r7, #28]
 8091 0020 D3F82C31 		ldr	r3, [r3, #300]
 8092 0024 1846     		mov	r0, r3
 8093 0026 FFF7FEFF 		bl	mbedtls_free
2637:C:/Users/dtjld/workspace/AIoT/src/LiteOS_Lab/iot_link/network/dtls/mbedtls/mbedtls-2.16.2/library\x509_crt.c **** #endif
2638:C:/Users/dtjld/workspace/AIoT/src/LiteOS_Lab/iot_link/network/dtls/mbedtls/mbedtls-2.16.2/library\x509_crt.c **** 
2639:C:/Users/dtjld/workspace/AIoT/src/LiteOS_Lab/iot_link/network/dtls/mbedtls/mbedtls-2.16.2/library\x509_crt.c ****         name_cur = cert_cur->issuer.next;
 8094              		.loc 2 2639 0
 8095 002a FB69     		ldr	r3, [r7, #28]
 8096 002c 5B6E     		ldr	r3, [r3, #100]
 8097 002e BB61     		str	r3, [r7, #24]
2640:C:/Users/dtjld/workspace/AIoT/src/LiteOS_Lab/iot_link/network/dtls/mbedtls/mbedtls-2.16.2/library\x509_crt.c ****         while( name_cur != NULL )
 8098              		.loc 2 2640 0
 8099 0030 0BE0     		b	.L560
 8100              	.L561:
2641:C:/Users/dtjld/workspace/AIoT/src/LiteOS_Lab/iot_link/network/dtls/mbedtls/mbedtls-2.16.2/library\x509_crt.c ****         {
2642:C:/Users/dtjld/workspace/AIoT/src/LiteOS_Lab/iot_link/network/dtls/mbedtls/mbedtls-2.16.2/library\x509_crt.c ****             name_prv = name_cur;
 8101              		.loc 2 2642 0
 8102 0032 BB69     		ldr	r3, [r7, #24]
 8103 0034 BB60     		str	r3, [r7, #8]
2643:C:/Users/dtjld/workspace/AIoT/src/LiteOS_Lab/iot_link/network/dtls/mbedtls/mbedtls-2.16.2/library\x509_crt.c ****             name_cur = name_cur->next;
 8104              		.loc 2 2643 0
 8105 0036 BB69     		ldr	r3, [r7, #24]
 8106 0038 9B69     		ldr	r3, [r3, #24]
 8107 003a BB61     		str	r3, [r7, #24]
2644:C:/Users/dtjld/workspace/AIoT/src/LiteOS_Lab/iot_link/network/dtls/mbedtls/mbedtls-2.16.2/library\x509_crt.c ****             mbedtls_platform_zeroize( name_prv, sizeof( mbedtls_x509_name ) );
 8108              		.loc 2 2644 0
ARM GAS  C:\Users\dtjld\AppData\Local\Temp\ccTXdst3.s 			page 197


 8109 003c 2021     		movs	r1, #32
 8110 003e B868     		ldr	r0, [r7, #8]
 8111 0040 FFF7FEFF 		bl	mbedtls_platform_zeroize
2645:C:/Users/dtjld/workspace/AIoT/src/LiteOS_Lab/iot_link/network/dtls/mbedtls/mbedtls-2.16.2/library\x509_crt.c ****             mbedtls_free( name_prv );
 8112              		.loc 2 2645 0
 8113 0044 B868     		ldr	r0, [r7, #8]
 8114 0046 FFF7FEFF 		bl	mbedtls_free
 8115              	.L560:
2640:C:/Users/dtjld/workspace/AIoT/src/LiteOS_Lab/iot_link/network/dtls/mbedtls/mbedtls-2.16.2/library\x509_crt.c ****         {
 8116              		.loc 2 2640 0
 8117 004a BB69     		ldr	r3, [r7, #24]
 8118 004c 002B     		cmp	r3, #0
 8119 004e F0D1     		bne	.L561
2646:C:/Users/dtjld/workspace/AIoT/src/LiteOS_Lab/iot_link/network/dtls/mbedtls/mbedtls-2.16.2/library\x509_crt.c ****         }
2647:C:/Users/dtjld/workspace/AIoT/src/LiteOS_Lab/iot_link/network/dtls/mbedtls/mbedtls-2.16.2/library\x509_crt.c **** 
2648:C:/Users/dtjld/workspace/AIoT/src/LiteOS_Lab/iot_link/network/dtls/mbedtls/mbedtls-2.16.2/library\x509_crt.c ****         name_cur = cert_cur->subject.next;
 8120              		.loc 2 2648 0
 8121 0050 FB69     		ldr	r3, [r7, #28]
 8122 0052 D3F88430 		ldr	r3, [r3, #132]
 8123 0056 BB61     		str	r3, [r7, #24]
2649:C:/Users/dtjld/workspace/AIoT/src/LiteOS_Lab/iot_link/network/dtls/mbedtls/mbedtls-2.16.2/library\x509_crt.c ****         while( name_cur != NULL )
 8124              		.loc 2 2649 0
 8125 0058 0BE0     		b	.L562
 8126              	.L563:
2650:C:/Users/dtjld/workspace/AIoT/src/LiteOS_Lab/iot_link/network/dtls/mbedtls/mbedtls-2.16.2/library\x509_crt.c ****         {
2651:C:/Users/dtjld/workspace/AIoT/src/LiteOS_Lab/iot_link/network/dtls/mbedtls/mbedtls-2.16.2/library\x509_crt.c ****             name_prv = name_cur;
 8127              		.loc 2 2651 0
 8128 005a BB69     		ldr	r3, [r7, #24]
 8129 005c BB60     		str	r3, [r7, #8]
2652:C:/Users/dtjld/workspace/AIoT/src/LiteOS_Lab/iot_link/network/dtls/mbedtls/mbedtls-2.16.2/library\x509_crt.c ****             name_cur = name_cur->next;
 8130              		.loc 2 2652 0
 8131 005e BB69     		ldr	r3, [r7, #24]
 8132 0060 9B69     		ldr	r3, [r3, #24]
 8133 0062 BB61     		str	r3, [r7, #24]
2653:C:/Users/dtjld/workspace/AIoT/src/LiteOS_Lab/iot_link/network/dtls/mbedtls/mbedtls-2.16.2/library\x509_crt.c ****             mbedtls_platform_zeroize( name_prv, sizeof( mbedtls_x509_name ) );
 8134              		.loc 2 2653 0
 8135 0064 2021     		movs	r1, #32
 8136 0066 B868     		ldr	r0, [r7, #8]
 8137 0068 FFF7FEFF 		bl	mbedtls_platform_zeroize
2654:C:/Users/dtjld/workspace/AIoT/src/LiteOS_Lab/iot_link/network/dtls/mbedtls/mbedtls-2.16.2/library\x509_crt.c ****             mbedtls_free( name_prv );
 8138              		.loc 2 2654 0
 8139 006c B868     		ldr	r0, [r7, #8]
 8140 006e FFF7FEFF 		bl	mbedtls_free
 8141              	.L562:
2649:C:/Users/dtjld/workspace/AIoT/src/LiteOS_Lab/iot_link/network/dtls/mbedtls/mbedtls-2.16.2/library\x509_crt.c ****         {
 8142              		.loc 2 2649 0
 8143 0072 BB69     		ldr	r3, [r7, #24]
 8144 0074 002B     		cmp	r3, #0
 8145 0076 F0D1     		bne	.L563
2655:C:/Users/dtjld/workspace/AIoT/src/LiteOS_Lab/iot_link/network/dtls/mbedtls/mbedtls-2.16.2/library\x509_crt.c ****         }
2656:C:/Users/dtjld/workspace/AIoT/src/LiteOS_Lab/iot_link/network/dtls/mbedtls/mbedtls-2.16.2/library\x509_crt.c **** 
2657:C:/Users/dtjld/workspace/AIoT/src/LiteOS_Lab/iot_link/network/dtls/mbedtls/mbedtls-2.16.2/library\x509_crt.c ****         seq_cur = cert_cur->ext_key_usage.next;
 8146              		.loc 2 2657 0
 8147 0078 FB69     		ldr	r3, [r7, #28]
 8148 007a D3F81431 		ldr	r3, [r3, #276]
 8149 007e 7B61     		str	r3, [r7, #20]
2658:C:/Users/dtjld/workspace/AIoT/src/LiteOS_Lab/iot_link/network/dtls/mbedtls/mbedtls-2.16.2/library\x509_crt.c ****         while( seq_cur != NULL )
ARM GAS  C:\Users\dtjld\AppData\Local\Temp\ccTXdst3.s 			page 198


 8150              		.loc 2 2658 0
 8151 0080 0BE0     		b	.L564
 8152              	.L565:
2659:C:/Users/dtjld/workspace/AIoT/src/LiteOS_Lab/iot_link/network/dtls/mbedtls/mbedtls-2.16.2/library\x509_crt.c ****         {
2660:C:/Users/dtjld/workspace/AIoT/src/LiteOS_Lab/iot_link/network/dtls/mbedtls/mbedtls-2.16.2/library\x509_crt.c ****             seq_prv = seq_cur;
 8153              		.loc 2 2660 0
 8154 0082 7B69     		ldr	r3, [r7, #20]
 8155 0084 FB60     		str	r3, [r7, #12]
2661:C:/Users/dtjld/workspace/AIoT/src/LiteOS_Lab/iot_link/network/dtls/mbedtls/mbedtls-2.16.2/library\x509_crt.c ****             seq_cur = seq_cur->next;
 8156              		.loc 2 2661 0
 8157 0086 7B69     		ldr	r3, [r7, #20]
 8158 0088 DB68     		ldr	r3, [r3, #12]
 8159 008a 7B61     		str	r3, [r7, #20]
2662:C:/Users/dtjld/workspace/AIoT/src/LiteOS_Lab/iot_link/network/dtls/mbedtls/mbedtls-2.16.2/library\x509_crt.c ****             mbedtls_platform_zeroize( seq_prv,
 8160              		.loc 2 2662 0
 8161 008c 1021     		movs	r1, #16
 8162 008e F868     		ldr	r0, [r7, #12]
 8163 0090 FFF7FEFF 		bl	mbedtls_platform_zeroize
2663:C:/Users/dtjld/workspace/AIoT/src/LiteOS_Lab/iot_link/network/dtls/mbedtls/mbedtls-2.16.2/library\x509_crt.c ****                                       sizeof( mbedtls_x509_sequence ) );
2664:C:/Users/dtjld/workspace/AIoT/src/LiteOS_Lab/iot_link/network/dtls/mbedtls/mbedtls-2.16.2/library\x509_crt.c ****             mbedtls_free( seq_prv );
 8164              		.loc 2 2664 0
 8165 0094 F868     		ldr	r0, [r7, #12]
 8166 0096 FFF7FEFF 		bl	mbedtls_free
 8167              	.L564:
2658:C:/Users/dtjld/workspace/AIoT/src/LiteOS_Lab/iot_link/network/dtls/mbedtls/mbedtls-2.16.2/library\x509_crt.c ****         {
 8168              		.loc 2 2658 0
 8169 009a 7B69     		ldr	r3, [r7, #20]
 8170 009c 002B     		cmp	r3, #0
 8171 009e F0D1     		bne	.L565
2665:C:/Users/dtjld/workspace/AIoT/src/LiteOS_Lab/iot_link/network/dtls/mbedtls/mbedtls-2.16.2/library\x509_crt.c ****         }
2666:C:/Users/dtjld/workspace/AIoT/src/LiteOS_Lab/iot_link/network/dtls/mbedtls/mbedtls-2.16.2/library\x509_crt.c **** 
2667:C:/Users/dtjld/workspace/AIoT/src/LiteOS_Lab/iot_link/network/dtls/mbedtls/mbedtls-2.16.2/library\x509_crt.c ****         seq_cur = cert_cur->subject_alt_names.next;
 8172              		.loc 2 2667 0
 8173 00a0 FB69     		ldr	r3, [r7, #28]
 8174 00a2 D3F8F430 		ldr	r3, [r3, #244]
 8175 00a6 7B61     		str	r3, [r7, #20]
2668:C:/Users/dtjld/workspace/AIoT/src/LiteOS_Lab/iot_link/network/dtls/mbedtls/mbedtls-2.16.2/library\x509_crt.c ****         while( seq_cur != NULL )
 8176              		.loc 2 2668 0
 8177 00a8 0BE0     		b	.L566
 8178              	.L567:
2669:C:/Users/dtjld/workspace/AIoT/src/LiteOS_Lab/iot_link/network/dtls/mbedtls/mbedtls-2.16.2/library\x509_crt.c ****         {
2670:C:/Users/dtjld/workspace/AIoT/src/LiteOS_Lab/iot_link/network/dtls/mbedtls/mbedtls-2.16.2/library\x509_crt.c ****             seq_prv = seq_cur;
 8179              		.loc 2 2670 0
 8180 00aa 7B69     		ldr	r3, [r7, #20]
 8181 00ac FB60     		str	r3, [r7, #12]
2671:C:/Users/dtjld/workspace/AIoT/src/LiteOS_Lab/iot_link/network/dtls/mbedtls/mbedtls-2.16.2/library\x509_crt.c ****             seq_cur = seq_cur->next;
 8182              		.loc 2 2671 0
 8183 00ae 7B69     		ldr	r3, [r7, #20]
 8184 00b0 DB68     		ldr	r3, [r3, #12]
 8185 00b2 7B61     		str	r3, [r7, #20]
2672:C:/Users/dtjld/workspace/AIoT/src/LiteOS_Lab/iot_link/network/dtls/mbedtls/mbedtls-2.16.2/library\x509_crt.c ****             mbedtls_platform_zeroize( seq_prv,
 8186              		.loc 2 2672 0
 8187 00b4 1021     		movs	r1, #16
 8188 00b6 F868     		ldr	r0, [r7, #12]
 8189 00b8 FFF7FEFF 		bl	mbedtls_platform_zeroize
2673:C:/Users/dtjld/workspace/AIoT/src/LiteOS_Lab/iot_link/network/dtls/mbedtls/mbedtls-2.16.2/library\x509_crt.c ****                                       sizeof( mbedtls_x509_sequence ) );
2674:C:/Users/dtjld/workspace/AIoT/src/LiteOS_Lab/iot_link/network/dtls/mbedtls/mbedtls-2.16.2/library\x509_crt.c ****             mbedtls_free( seq_prv );
ARM GAS  C:\Users\dtjld\AppData\Local\Temp\ccTXdst3.s 			page 199


 8190              		.loc 2 2674 0
 8191 00bc F868     		ldr	r0, [r7, #12]
 8192 00be FFF7FEFF 		bl	mbedtls_free
 8193              	.L566:
2668:C:/Users/dtjld/workspace/AIoT/src/LiteOS_Lab/iot_link/network/dtls/mbedtls/mbedtls-2.16.2/library\x509_crt.c ****         {
 8194              		.loc 2 2668 0
 8195 00c2 7B69     		ldr	r3, [r7, #20]
 8196 00c4 002B     		cmp	r3, #0
 8197 00c6 F0D1     		bne	.L567
2675:C:/Users/dtjld/workspace/AIoT/src/LiteOS_Lab/iot_link/network/dtls/mbedtls/mbedtls-2.16.2/library\x509_crt.c ****         }
2676:C:/Users/dtjld/workspace/AIoT/src/LiteOS_Lab/iot_link/network/dtls/mbedtls/mbedtls-2.16.2/library\x509_crt.c **** 
2677:C:/Users/dtjld/workspace/AIoT/src/LiteOS_Lab/iot_link/network/dtls/mbedtls/mbedtls-2.16.2/library\x509_crt.c ****         if( cert_cur->raw.p != NULL )
 8198              		.loc 2 2677 0
 8199 00c8 FB69     		ldr	r3, [r7, #28]
 8200 00ca 9B68     		ldr	r3, [r3, #8]
 8201 00cc 002B     		cmp	r3, #0
 8202 00ce 0CD0     		beq	.L568
2678:C:/Users/dtjld/workspace/AIoT/src/LiteOS_Lab/iot_link/network/dtls/mbedtls/mbedtls-2.16.2/library\x509_crt.c ****         {
2679:C:/Users/dtjld/workspace/AIoT/src/LiteOS_Lab/iot_link/network/dtls/mbedtls/mbedtls-2.16.2/library\x509_crt.c ****             mbedtls_platform_zeroize( cert_cur->raw.p, cert_cur->raw.len );
 8203              		.loc 2 2679 0
 8204 00d0 FB69     		ldr	r3, [r7, #28]
 8205 00d2 9A68     		ldr	r2, [r3, #8]
 8206 00d4 FB69     		ldr	r3, [r7, #28]
 8207 00d6 5B68     		ldr	r3, [r3, #4]
 8208 00d8 1946     		mov	r1, r3
 8209 00da 1046     		mov	r0, r2
 8210 00dc FFF7FEFF 		bl	mbedtls_platform_zeroize
2680:C:/Users/dtjld/workspace/AIoT/src/LiteOS_Lab/iot_link/network/dtls/mbedtls/mbedtls-2.16.2/library\x509_crt.c ****             mbedtls_free( cert_cur->raw.p );
 8211              		.loc 2 2680 0
 8212 00e0 FB69     		ldr	r3, [r7, #28]
 8213 00e2 9B68     		ldr	r3, [r3, #8]
 8214 00e4 1846     		mov	r0, r3
 8215 00e6 FFF7FEFF 		bl	mbedtls_free
 8216              	.L568:
2681:C:/Users/dtjld/workspace/AIoT/src/LiteOS_Lab/iot_link/network/dtls/mbedtls/mbedtls-2.16.2/library\x509_crt.c ****         }
2682:C:/Users/dtjld/workspace/AIoT/src/LiteOS_Lab/iot_link/network/dtls/mbedtls/mbedtls-2.16.2/library\x509_crt.c **** 
2683:C:/Users/dtjld/workspace/AIoT/src/LiteOS_Lab/iot_link/network/dtls/mbedtls/mbedtls-2.16.2/library\x509_crt.c ****         cert_cur = cert_cur->next;
 8217              		.loc 2 2683 0
 8218 00ea FB69     		ldr	r3, [r7, #28]
 8219 00ec D3F83031 		ldr	r3, [r3, #304]
 8220 00f0 FB61     		str	r3, [r7, #28]
2684:C:/Users/dtjld/workspace/AIoT/src/LiteOS_Lab/iot_link/network/dtls/mbedtls/mbedtls-2.16.2/library\x509_crt.c ****     }
2685:C:/Users/dtjld/workspace/AIoT/src/LiteOS_Lab/iot_link/network/dtls/mbedtls/mbedtls-2.16.2/library\x509_crt.c ****     while( cert_cur != NULL );
 8221              		.loc 2 2685 0
 8222 00f2 FB69     		ldr	r3, [r7, #28]
 8223 00f4 002B     		cmp	r3, #0
 8224 00f6 8DD1     		bne	.L558
2686:C:/Users/dtjld/workspace/AIoT/src/LiteOS_Lab/iot_link/network/dtls/mbedtls/mbedtls-2.16.2/library\x509_crt.c **** 
2687:C:/Users/dtjld/workspace/AIoT/src/LiteOS_Lab/iot_link/network/dtls/mbedtls/mbedtls-2.16.2/library\x509_crt.c ****     cert_cur = crt;
 8225              		.loc 2 2687 0
 8226 00f8 7B68     		ldr	r3, [r7, #4]
 8227 00fa FB61     		str	r3, [r7, #28]
 8228              	.L570:
2688:C:/Users/dtjld/workspace/AIoT/src/LiteOS_Lab/iot_link/network/dtls/mbedtls/mbedtls-2.16.2/library\x509_crt.c ****     do
2689:C:/Users/dtjld/workspace/AIoT/src/LiteOS_Lab/iot_link/network/dtls/mbedtls/mbedtls-2.16.2/library\x509_crt.c ****     {
2690:C:/Users/dtjld/workspace/AIoT/src/LiteOS_Lab/iot_link/network/dtls/mbedtls/mbedtls-2.16.2/library\x509_crt.c ****         cert_prv = cert_cur;
 8229              		.loc 2 2690 0
ARM GAS  C:\Users\dtjld\AppData\Local\Temp\ccTXdst3.s 			page 200


 8230 00fc FB69     		ldr	r3, [r7, #28]
 8231 00fe 3B61     		str	r3, [r7, #16]
2691:C:/Users/dtjld/workspace/AIoT/src/LiteOS_Lab/iot_link/network/dtls/mbedtls/mbedtls-2.16.2/library\x509_crt.c ****         cert_cur = cert_cur->next;
 8232              		.loc 2 2691 0
 8233 0100 FB69     		ldr	r3, [r7, #28]
 8234 0102 D3F83031 		ldr	r3, [r3, #304]
 8235 0106 FB61     		str	r3, [r7, #28]
2692:C:/Users/dtjld/workspace/AIoT/src/LiteOS_Lab/iot_link/network/dtls/mbedtls/mbedtls-2.16.2/library\x509_crt.c **** 
2693:C:/Users/dtjld/workspace/AIoT/src/LiteOS_Lab/iot_link/network/dtls/mbedtls/mbedtls-2.16.2/library\x509_crt.c ****         mbedtls_platform_zeroize( cert_prv, sizeof( mbedtls_x509_crt ) );
 8236              		.loc 2 2693 0
 8237 0108 4FF49A71 		mov	r1, #308
 8238 010c 3869     		ldr	r0, [r7, #16]
 8239 010e FFF7FEFF 		bl	mbedtls_platform_zeroize
2694:C:/Users/dtjld/workspace/AIoT/src/LiteOS_Lab/iot_link/network/dtls/mbedtls/mbedtls-2.16.2/library\x509_crt.c ****         if( cert_prv != crt )
 8240              		.loc 2 2694 0
 8241 0112 3A69     		ldr	r2, [r7, #16]
 8242 0114 7B68     		ldr	r3, [r7, #4]
 8243 0116 9A42     		cmp	r2, r3
 8244 0118 02D0     		beq	.L569
2695:C:/Users/dtjld/workspace/AIoT/src/LiteOS_Lab/iot_link/network/dtls/mbedtls/mbedtls-2.16.2/library\x509_crt.c ****             mbedtls_free( cert_prv );
 8245              		.loc 2 2695 0
 8246 011a 3869     		ldr	r0, [r7, #16]
 8247 011c FFF7FEFF 		bl	mbedtls_free
 8248              	.L569:
2696:C:/Users/dtjld/workspace/AIoT/src/LiteOS_Lab/iot_link/network/dtls/mbedtls/mbedtls-2.16.2/library\x509_crt.c ****     }
2697:C:/Users/dtjld/workspace/AIoT/src/LiteOS_Lab/iot_link/network/dtls/mbedtls/mbedtls-2.16.2/library\x509_crt.c ****     while( cert_cur != NULL );
 8249              		.loc 2 2697 0
 8250 0120 FB69     		ldr	r3, [r7, #28]
 8251 0122 002B     		cmp	r3, #0
 8252 0124 EAD1     		bne	.L570
 8253 0126 00E0     		b	.L557
 8254              	.L571:
2629:C:/Users/dtjld/workspace/AIoT/src/LiteOS_Lab/iot_link/network/dtls/mbedtls/mbedtls-2.16.2/library\x509_crt.c **** 
 8255              		.loc 2 2629 0
 8256 0128 00BF     		nop
 8257              	.L557:
2698:C:/Users/dtjld/workspace/AIoT/src/LiteOS_Lab/iot_link/network/dtls/mbedtls/mbedtls-2.16.2/library\x509_crt.c **** }
 8258              		.loc 2 2698 0
 8259 012a 2037     		adds	r7, r7, #32
 8260              	.LCFI230:
 8261              		.cfi_def_cfa_offset 8
 8262 012c BD46     		mov	sp, r7
 8263              	.LCFI231:
 8264              		.cfi_def_cfa_register 13
 8265              		@ sp needed
 8266 012e 80BD     		pop	{r7, pc}
 8267              		.cfi_endproc
 8268              	.LFE56:
 8270              		.text
 8271              	.Letext0:
 8272              		.file 3 "c:\\ac6\\systemworkbench\\plugins\\fr.ac6.mcu.externaltools.arm-none.win32_1.16.0.2018071
 8273              		.file 4 "c:\\ac6\\systemworkbench\\plugins\\fr.ac6.mcu.externaltools.arm-none.win32_1.16.0.2018071
 8274              		.file 5 "c:\\ac6\\systemworkbench\\plugins\\fr.ac6.mcu.externaltools.arm-none.win32_1.16.0.2018071
 8275              		.file 6 "C:/Users/dtjld/workspace/AIoT/src/LiteOS_Lab/iot_link/network/dtls/mbedtls/mbedtls-2.16.2
 8276              		.file 7 "C:/Users/dtjld/workspace/AIoT/src/LiteOS_Lab/iot_link/network/dtls/mbedtls/mbedtls-2.16.2
 8277              		.file 8 "C:/Users/dtjld/workspace/AIoT/src/LiteOS_Lab/iot_link/network/dtls/mbedtls/mbedtls-2.16.2
 8278              		.file 9 "C:/Users/dtjld/workspace/AIoT/src/LiteOS_Lab/iot_link/network/dtls/mbedtls/mbedtls-2.16.2
ARM GAS  C:\Users\dtjld\AppData\Local\Temp\ccTXdst3.s 			page 201


 8279              		.file 10 "C:/Users/dtjld/workspace/AIoT/src/LiteOS_Lab/iot_link/network/dtls/mbedtls/mbedtls-2.16.
 8280              		.file 11 "C:/Users/dtjld/workspace/AIoT/src/LiteOS_Lab/iot_link/network/dtls/mbedtls/mbedtls-2.16.
 8281              		.file 12 "C:/Users/dtjld/workspace/AIoT/src/LiteOS_Lab/iot_link/network/dtls/mbedtls/mbedtls-2.16.
 8282              		.file 13 "c:\\ac6\\systemworkbench\\plugins\\fr.ac6.mcu.externaltools.arm-none.win32_1.16.0.201807
 8283              		.file 14 "c:\\ac6\\systemworkbench\\plugins\\fr.ac6.mcu.externaltools.arm-none.win32_1.16.0.201807
 8284              		.file 15 "c:\\ac6\\systemworkbench\\plugins\\fr.ac6.mcu.externaltools.arm-none.win32_1.16.0.201807
 8285              		.file 16 "C:/Users/dtjld/workspace/AIoT/src/LiteOS_Lab/iot_link/network/dtls/mbedtls/mbedtls-2.16.
 8286              		.file 17 "c:\\ac6\\systemworkbench\\plugins\\fr.ac6.mcu.externaltools.arm-none.win32_1.16.0.201807
 8287              		.file 18 "c:\\ac6\\systemworkbench\\plugins\\fr.ac6.mcu.externaltools.arm-none.win32_1.16.0.201807
 8288              		.file 19 "C:/Users/dtjld/workspace/AIoT/src/LiteOS_Lab/iot_link/network/dtls/mbedtls/mbedtls-2.16.
ARM GAS  C:\Users\dtjld\AppData\Local\Temp\ccTXdst3.s 			page 202


DEFINED SYMBOLS
                            *ABS*:00000000 x509_crt.c
C:\Users\dtjld\AppData\Local\Temp\ccTXdst3.s:18     .text.mbedtls_pk_ec:00000000 $t
C:\Users\dtjld\AppData\Local\Temp\ccTXdst3.s:24     .text.mbedtls_pk_ec:00000000 mbedtls_pk_ec
C:\Users\dtjld\AppData\Local\Temp\ccTXdst3.s:68     .rodata.mbedtls_x509_crt_profile_default:00000000 mbedtls_x509_crt_profile_default
C:\Users\dtjld\AppData\Local\Temp\ccTXdst3.s:65     .rodata.mbedtls_x509_crt_profile_default:00000000 $d
C:\Users\dtjld\AppData\Local\Temp\ccTXdst3.s:78     .rodata.mbedtls_x509_crt_profile_next:00000000 mbedtls_x509_crt_profile_next
C:\Users\dtjld\AppData\Local\Temp\ccTXdst3.s:75     .rodata.mbedtls_x509_crt_profile_next:00000000 $d
C:\Users\dtjld\AppData\Local\Temp\ccTXdst3.s:88     .rodata.mbedtls_x509_crt_profile_suiteb:00000000 mbedtls_x509_crt_profile_suiteb
C:\Users\dtjld\AppData\Local\Temp\ccTXdst3.s:85     .rodata.mbedtls_x509_crt_profile_suiteb:00000000 $d
C:\Users\dtjld\AppData\Local\Temp\ccTXdst3.s:94     .text.x509_profile_check_md_alg:00000000 $t
C:\Users\dtjld\AppData\Local\Temp\ccTXdst3.s:100    .text.x509_profile_check_md_alg:00000000 x509_profile_check_md_alg
C:\Users\dtjld\AppData\Local\Temp\ccTXdst3.s:164    .text.x509_profile_check_pk_alg:00000000 $t
C:\Users\dtjld\AppData\Local\Temp\ccTXdst3.s:170    .text.x509_profile_check_pk_alg:00000000 x509_profile_check_pk_alg
C:\Users\dtjld\AppData\Local\Temp\ccTXdst3.s:233    .text.x509_profile_check_key:00000000 $t
C:\Users\dtjld\AppData\Local\Temp\ccTXdst3.s:239    .text.x509_profile_check_key:00000000 x509_profile_check_key
C:\Users\dtjld\AppData\Local\Temp\ccTXdst3.s:353    .text.x509_memcasecmp:00000000 $t
C:\Users\dtjld\AppData\Local\Temp\ccTXdst3.s:359    .text.x509_memcasecmp:00000000 x509_memcasecmp
C:\Users\dtjld\AppData\Local\Temp\ccTXdst3.s:482    .text.x509_check_wildcard:00000000 $t
C:\Users\dtjld\AppData\Local\Temp\ccTXdst3.s:488    .text.x509_check_wildcard:00000000 x509_check_wildcard
C:\Users\dtjld\AppData\Local\Temp\ccTXdst3.s:619    .text.x509_string_cmp:00000000 $t
C:\Users\dtjld\AppData\Local\Temp\ccTXdst3.s:625    .text.x509_string_cmp:00000000 x509_string_cmp
C:\Users\dtjld\AppData\Local\Temp\ccTXdst3.s:741    .text.x509_name_cmp:00000000 $t
C:\Users\dtjld\AppData\Local\Temp\ccTXdst3.s:747    .text.x509_name_cmp:00000000 x509_name_cmp
C:\Users\dtjld\AppData\Local\Temp\ccTXdst3.s:875    .text.x509_crt_verify_chain_reset:00000000 $t
C:\Users\dtjld\AppData\Local\Temp\ccTXdst3.s:881    .text.x509_crt_verify_chain_reset:00000000 x509_crt_verify_chain_reset
C:\Users\dtjld\AppData\Local\Temp\ccTXdst3.s:947    .text.x509_get_version:00000000 $t
C:\Users\dtjld\AppData\Local\Temp\ccTXdst3.s:953    .text.x509_get_version:00000000 x509_get_version
C:\Users\dtjld\AppData\Local\Temp\ccTXdst3.s:1046   .text.x509_get_version:00000078 $d
C:\Users\dtjld\AppData\Local\Temp\ccTXdst3.s:1051   .text.x509_get_dates:00000000 $t
C:\Users\dtjld\AppData\Local\Temp\ccTXdst3.s:1057   .text.x509_get_dates:00000000 x509_get_dates
C:\Users\dtjld\AppData\Local\Temp\ccTXdst3.s:1151   .text.x509_get_dates:0000007c $d
C:\Users\dtjld\AppData\Local\Temp\ccTXdst3.s:1156   .text.x509_get_uid:00000000 $t
C:\Users\dtjld\AppData\Local\Temp\ccTXdst3.s:1162   .text.x509_get_uid:00000000 x509_get_uid
C:\Users\dtjld\AppData\Local\Temp\ccTXdst3.s:1255   .text.x509_get_basic_constraints:00000000 $t
C:\Users\dtjld\AppData\Local\Temp\ccTXdst3.s:1261   .text.x509_get_basic_constraints:00000000 x509_get_basic_constraints
C:\Users\dtjld\AppData\Local\Temp\ccTXdst3.s:1410   .text.x509_get_basic_constraints:000000d4 $d
C:\Users\dtjld\AppData\Local\Temp\ccTXdst3.s:1415   .text.x509_get_ns_cert_type:00000000 $t
C:\Users\dtjld\AppData\Local\Temp\ccTXdst3.s:1421   .text.x509_get_ns_cert_type:00000000 x509_get_ns_cert_type
C:\Users\dtjld\AppData\Local\Temp\ccTXdst3.s:1492   .text.x509_get_ns_cert_type:00000054 $d
C:\Users\dtjld\AppData\Local\Temp\ccTXdst3.s:1497   .text.x509_get_key_usage:00000000 $t
C:\Users\dtjld\AppData\Local\Temp\ccTXdst3.s:1503   .text.x509_get_key_usage:00000000 x509_get_key_usage
C:\Users\dtjld\AppData\Local\Temp\ccTXdst3.s:1607   .text.x509_get_key_usage:00000088 $d
C:\Users\dtjld\AppData\Local\Temp\ccTXdst3.s:1612   .text.x509_get_ext_key_usage:00000000 $t
C:\Users\dtjld\AppData\Local\Temp\ccTXdst3.s:1618   .text.x509_get_ext_key_usage:00000000 x509_get_ext_key_usage
C:\Users\dtjld\AppData\Local\Temp\ccTXdst3.s:1678   .text.x509_get_ext_key_usage:00000040 $d
C:\Users\dtjld\AppData\Local\Temp\ccTXdst3.s:1683   .text.x509_get_subject_alt_name:00000000 $t
C:\Users\dtjld\AppData\Local\Temp\ccTXdst3.s:1689   .text.x509_get_subject_alt_name:00000000 x509_get_subject_alt_name
C:\Users\dtjld\AppData\Local\Temp\ccTXdst3.s:1895   .text.x509_get_subject_alt_name:00000124 $d
C:\Users\dtjld\AppData\Local\Temp\ccTXdst3.s:1904   .text.x509_get_crt_ext:00000000 $t
C:\Users\dtjld\AppData\Local\Temp\ccTXdst3.s:1910   .text.x509_get_crt_ext:00000000 x509_get_crt_ext
C:\Users\dtjld\AppData\Local\Temp\ccTXdst3.s:2270   .text.x509_get_crt_ext:0000024c $d
C:\Users\dtjld\AppData\Local\Temp\ccTXdst3.s:2278   .text.x509_crt_parse_der_core:00000000 $t
C:\Users\dtjld\AppData\Local\Temp\ccTXdst3.s:2284   .text.x509_crt_parse_der_core:00000000 x509_crt_parse_der_core
C:\Users\dtjld\AppData\Local\Temp\ccTXdst3.s:8058   .text.mbedtls_x509_crt_free:00000000 mbedtls_x509_crt_free
C:\Users\dtjld\AppData\Local\Temp\ccTXdst3.s:2676   .text.x509_crt_parse_der_core:000002c8 $d
C:\Users\dtjld\AppData\Local\Temp\ccTXdst3.s:2683   .text.x509_crt_parse_der_core:000002dc $t
ARM GAS  C:\Users\dtjld\AppData\Local\Temp\ccTXdst3.s 			page 203


C:\Users\dtjld\AppData\Local\Temp\ccTXdst3.s:2917   .text.x509_crt_parse_der_core:00000464 $d
C:\Users\dtjld\AppData\Local\Temp\ccTXdst3.s:2923   .text.mbedtls_x509_crt_parse_der:00000000 $t
C:\Users\dtjld\AppData\Local\Temp\ccTXdst3.s:2930   .text.mbedtls_x509_crt_parse_der:00000000 mbedtls_x509_crt_parse_der
C:\Users\dtjld\AppData\Local\Temp\ccTXdst3.s:8014   .text.mbedtls_x509_crt_init:00000000 mbedtls_x509_crt_init
C:\Users\dtjld\AppData\Local\Temp\ccTXdst3.s:3073   .text.mbedtls_x509_crt_parse_der:000000c8 $d
C:\Users\dtjld\AppData\Local\Temp\ccTXdst3.s:3079   .rodata:00000000 $d
C:\Users\dtjld\AppData\Local\Temp\ccTXdst3.s:3086   .text.mbedtls_x509_crt_parse:00000000 $t
C:\Users\dtjld\AppData\Local\Temp\ccTXdst3.s:3093   .text.mbedtls_x509_crt_parse:00000000 mbedtls_x509_crt_parse
C:\Users\dtjld\AppData\Local\Temp\ccTXdst3.s:3342   .text.mbedtls_x509_crt_parse:00000158 $d
C:\Users\dtjld\AppData\Local\Temp\ccTXdst3.s:3357   .text.x509_info_subject_alt_name:00000000 $t
C:\Users\dtjld\AppData\Local\Temp\ccTXdst3.s:3363   .text.x509_info_subject_alt_name:00000000 x509_info_subject_alt_name
C:\Users\dtjld\AppData\Local\Temp\ccTXdst3.s:3524   .text.x509_info_subject_alt_name:000000cc $d
C:\Users\dtjld\AppData\Local\Temp\ccTXdst3.s:3556   .text.x509_info_cert_type:00000000 $t
C:\Users\dtjld\AppData\Local\Temp\ccTXdst3.s:3562   .text.x509_info_cert_type:00000000 x509_info_cert_type
C:\Users\dtjld\AppData\Local\Temp\ccTXdst3.s:3938   .text.x509_info_cert_type:00000234 $d
C:\Users\dtjld\AppData\Local\Temp\ccTXdst3.s:3982   .text.x509_info_key_usage:00000000 $t
C:\Users\dtjld\AppData\Local\Temp\ccTXdst3.s:3988   .text.x509_info_key_usage:00000000 x509_info_key_usage
C:\Users\dtjld\AppData\Local\Temp\ccTXdst3.s:4370   .text.x509_info_key_usage:00000248 $d
C:\Users\dtjld\AppData\Local\Temp\ccTXdst3.s:4385   .text.x509_info_key_usage:0000027c $t
C:\Users\dtjld\AppData\Local\Temp\ccTXdst3.s:4420   .text.x509_info_key_usage:000002a8 $d
C:\Users\dtjld\AppData\Local\Temp\ccTXdst3.s:4432   .text.x509_info_ext_key_usage:00000000 $t
C:\Users\dtjld\AppData\Local\Temp\ccTXdst3.s:4438   .text.x509_info_ext_key_usage:00000000 x509_info_ext_key_usage
C:\Users\dtjld\AppData\Local\Temp\ccTXdst3.s:4560   .text.x509_info_ext_key_usage:00000098 $d
C:\Users\dtjld\AppData\Local\Temp\ccTXdst3.s:4627   .text.mbedtls_x509_crt_info:00000000 $t
C:\Users\dtjld\AppData\Local\Temp\ccTXdst3.s:4634   .text.mbedtls_x509_crt_info:00000000 mbedtls_x509_crt_info
C:\Users\dtjld\AppData\Local\Temp\ccTXdst3.s:4982   .text.mbedtls_x509_crt_info:00000214 $d
C:\Users\dtjld\AppData\Local\Temp\ccTXdst3.s:4992   .text.mbedtls_x509_crt_info:00000234 $t
C:\Users\dtjld\AppData\Local\Temp\ccTXdst3.s:5344   .text.mbedtls_x509_crt_info:00000490 $d
C:\Users\dtjld\AppData\Local\Temp\ccTXdst3.s:5356   .text.mbedtls_x509_crt_info:000004b8 $t
C:\Users\dtjld\AppData\Local\Temp\ccTXdst3.s:5567   .text.mbedtls_x509_crt_info:00000618 $d
C:\Users\dtjld\AppData\Local\Temp\ccTXdst3.s:5646   .rodata.x509_crt_verify_strings:00000000 $d
C:\Users\dtjld\AppData\Local\Temp\ccTXdst3.s:5649   .rodata.x509_crt_verify_strings:00000000 x509_crt_verify_strings
C:\Users\dtjld\AppData\Local\Temp\ccTXdst3.s:5700   .text.mbedtls_x509_crt_verify_info:00000000 $t
C:\Users\dtjld\AppData\Local\Temp\ccTXdst3.s:5707   .text.mbedtls_x509_crt_verify_info:00000000 mbedtls_x509_crt_verify_info
C:\Users\dtjld\AppData\Local\Temp\ccTXdst3.s:5862   .text.mbedtls_x509_crt_verify_info:000000c8 $d
C:\Users\dtjld\AppData\Local\Temp\ccTXdst3.s:5871   .text.mbedtls_x509_crt_check_key_usage:00000000 $t
C:\Users\dtjld\AppData\Local\Temp\ccTXdst3.s:5878   .text.mbedtls_x509_crt_check_key_usage:00000000 mbedtls_x509_crt_check_key_usage
C:\Users\dtjld\AppData\Local\Temp\ccTXdst3.s:5970   .text.mbedtls_x509_crt_check_key_usage:00000074 $d
C:\Users\dtjld\AppData\Local\Temp\ccTXdst3.s:5979   .text.mbedtls_x509_crt_check_extended_key_usage:00000000 $t
C:\Users\dtjld\AppData\Local\Temp\ccTXdst3.s:5986   .text.mbedtls_x509_crt_check_extended_key_usage:00000000 mbedtls_x509_crt_check_extended_key_usage
C:\Users\dtjld\AppData\Local\Temp\ccTXdst3.s:6104   .text.mbedtls_x509_crt_check_extended_key_usage:00000090 $d
C:\Users\dtjld\AppData\Local\Temp\ccTXdst3.s:6110   .text.mbedtls_x509_crt_is_revoked:00000000 $t
C:\Users\dtjld\AppData\Local\Temp\ccTXdst3.s:6117   .text.mbedtls_x509_crt_is_revoked:00000000 mbedtls_x509_crt_is_revoked
C:\Users\dtjld\AppData\Local\Temp\ccTXdst3.s:6207   .text.x509_crt_verifycrl:00000000 $t
C:\Users\dtjld\AppData\Local\Temp\ccTXdst3.s:6213   .text.x509_crt_verifycrl:00000000 x509_crt_verifycrl
C:\Users\dtjld\AppData\Local\Temp\ccTXdst3.s:6462   .text.x509_crt_check_signature:00000000 $t
C:\Users\dtjld\AppData\Local\Temp\ccTXdst3.s:6468   .text.x509_crt_check_signature:00000000 x509_crt_check_signature
C:\Users\dtjld\AppData\Local\Temp\ccTXdst3.s:6575   .text.x509_crt_check_parent:00000000 $t
C:\Users\dtjld\AppData\Local\Temp\ccTXdst3.s:6581   .text.x509_crt_check_parent:00000000 x509_crt_check_parent
C:\Users\dtjld\AppData\Local\Temp\ccTXdst3.s:6678   .text.x509_crt_find_parent_in:00000000 $t
C:\Users\dtjld\AppData\Local\Temp\ccTXdst3.s:6684   .text.x509_crt_find_parent_in:00000000 x509_crt_find_parent_in
C:\Users\dtjld\AppData\Local\Temp\ccTXdst3.s:6863   .text.x509_crt_find_parent:00000000 $t
C:\Users\dtjld\AppData\Local\Temp\ccTXdst3.s:6869   .text.x509_crt_find_parent:00000000 x509_crt_find_parent
C:\Users\dtjld\AppData\Local\Temp\ccTXdst3.s:6973   .text.x509_crt_check_ee_locally_trusted:00000000 $t
C:\Users\dtjld\AppData\Local\Temp\ccTXdst3.s:6979   .text.x509_crt_check_ee_locally_trusted:00000000 x509_crt_check_ee_locally_trusted
C:\Users\dtjld\AppData\Local\Temp\ccTXdst3.s:7068   .text.x509_crt_verify_chain:00000000 $t
C:\Users\dtjld\AppData\Local\Temp\ccTXdst3.s:7074   .text.x509_crt_verify_chain:00000000 x509_crt_verify_chain
ARM GAS  C:\Users\dtjld\AppData\Local\Temp\ccTXdst3.s 			page 204


C:\Users\dtjld\AppData\Local\Temp\ccTXdst3.s:7357   .text.x509_crt_verify_chain:000001c0 $d
C:\Users\dtjld\AppData\Local\Temp\ccTXdst3.s:7362   .text.x509_crt_check_cn:00000000 $t
C:\Users\dtjld\AppData\Local\Temp\ccTXdst3.s:7368   .text.x509_crt_check_cn:00000000 x509_crt_check_cn
C:\Users\dtjld\AppData\Local\Temp\ccTXdst3.s:7441   .text.x509_crt_verify_name:00000000 $t
C:\Users\dtjld\AppData\Local\Temp\ccTXdst3.s:7447   .text.x509_crt_verify_name:00000000 x509_crt_verify_name
C:\Users\dtjld\AppData\Local\Temp\ccTXdst3.s:7602   .text.x509_crt_verify_name:000000d0 $d
C:\Users\dtjld\AppData\Local\Temp\ccTXdst3.s:7607   .text.x509_crt_merge_flags_with_cb:00000000 $t
C:\Users\dtjld\AppData\Local\Temp\ccTXdst3.s:7613   .text.x509_crt_merge_flags_with_cb:00000000 x509_crt_merge_flags_with_cb
C:\Users\dtjld\AppData\Local\Temp\ccTXdst3.s:7707   .text.mbedtls_x509_crt_verify:00000000 $t
C:\Users\dtjld\AppData\Local\Temp\ccTXdst3.s:7714   .text.mbedtls_x509_crt_verify:00000000 mbedtls_x509_crt_verify
C:\Users\dtjld\AppData\Local\Temp\ccTXdst3.s:7836   .text.mbedtls_x509_crt_verify_restartable:00000000 mbedtls_x509_crt_verify_restartable
C:\Users\dtjld\AppData\Local\Temp\ccTXdst3.s:7765   .text.mbedtls_x509_crt_verify:00000038 $d
C:\Users\dtjld\AppData\Local\Temp\ccTXdst3.s:7770   .text.mbedtls_x509_crt_verify_with_profile:00000000 $t
C:\Users\dtjld\AppData\Local\Temp\ccTXdst3.s:7777   .text.mbedtls_x509_crt_verify_with_profile:00000000 mbedtls_x509_crt_verify_with_profile
C:\Users\dtjld\AppData\Local\Temp\ccTXdst3.s:7829   .text.mbedtls_x509_crt_verify_restartable:00000000 $t
C:\Users\dtjld\AppData\Local\Temp\ccTXdst3.s:8000   .text.mbedtls_x509_crt_verify_restartable:000000fc $d
C:\Users\dtjld\AppData\Local\Temp\ccTXdst3.s:8007   .text.mbedtls_x509_crt_init:00000000 $t
C:\Users\dtjld\AppData\Local\Temp\ccTXdst3.s:8051   .text.mbedtls_x509_crt_free:00000000 $t

UNDEFINED SYMBOLS
mbedtls_pk_get_type
mbedtls_pk_get_bitlen
strlen
memcmp
mbedtls_asn1_get_tag
mbedtls_asn1_get_int
mbedtls_x509_get_time
mbedtls_asn1_get_bool
mbedtls_asn1_get_bitstring
mbedtls_asn1_get_sequence_of
mbedtls_asn1_get_len
mbedtls_calloc
mbedtls_x509_get_ext
mbedtls_oid_get_x509_ext_type
memset
memcpy
mbedtls_x509_get_serial
mbedtls_x509_get_alg
mbedtls_x509_get_sig_alg
mbedtls_x509_get_name
mbedtls_pk_parse_subpubkey
mbedtls_x509_get_sig
mbedtls_free
strstr
mbedtls_pem_init
mbedtls_pem_read_buffer
mbedtls_pem_free
mbedtls_snprintf
mbedtls_oid_get_extended_key_usage
mbedtls_x509_serial_gets
mbedtls_x509_dn_gets
mbedtls_x509_sig_alg_gets
mbedtls_pk_get_name
mbedtls_x509_key_size_helper
mbedtls_x509_time_is_past
mbedtls_md_info_from_type
mbedtls_md
ARM GAS  C:\Users\dtjld\AppData\Local\Temp\ccTXdst3.s 			page 205


mbedtls_md_get_size
mbedtls_pk_verify_ext
mbedtls_x509_time_is_future
mbedtls_pk_can_do
mbedtls_pk_free
mbedtls_platform_zeroize
